(dp1
S'output'
p2
S"<type 'exceptions.KeyError'> 'N/A'"
p3
sS'layer'
p4
S'/home/www-data/web2py/applications/oadev/views/deputes/ajax_top.html'
p5
sS'code'
p6
S'def emphasize(itemtype,value):\n    response.write(\'\\n\', escape=False)\n    return SPAN(value,_class=\'emphasize\' if itemtype==tri else None)\nresponse.write(\'\\n\', escape=False)\npass\nresponse.write(\'\\n\', escape=False)\nfor i,d in enumerate(deputes):\n    response.write(\'\\n  <article class="depute-item">\\n    <a href="#">\\n      <img src="http://www2.assemblee-nationale.fr/static/tribun/15/photos/\', escape=False)\n    response.write(d[\'depute_uid\'][2:])\n    response.write(\'.jpg" />\\n    </a>\\n    <div>\\n      <a href="#">\\n        <header>\\n          <h2><span>\', escape=False)\n    response.write(d[\'depute_region\'])\n    response.write(\' / \', escape=False)\n    response.write(d[\'depute_departement\'])\n    response.write(\' / \', escape=False)\n    response.write(d[\'depute_circo\'])\n    response.write(\'</span></h2>\\n          <h1>\', escape=False)\n    response.write(d[\'depute_nom\'])\n    response.write(\'</h1>\\n        </header>\\n      </a>\\n      <div class="deputes-infos">\\n        <a href="#" class="deputes-groupe"><i class="fa fa-group"></i> \', escape=False)\n    response.write(d[\'groupe_libelle\'])\n    response.write(\' (\', escape=False)\n    response.write(d[\'groupe_abrev\'])\n    response.write(\')</a>\\n          \', escape=False)\n    response.write(tf)\n    response.write(\'\\n        \', escape=False)\n    if \'positions\' in d[\'stats\'].keys():\n        response.write(\'\\n        <div class="deputes-votes">\\n          <h2>\', escape=False)\n        response.write(d[\'stats\'][\'ranks\'][top[\'rank\']] if tf==\'top\' else (578-d[\'stats\'][\'ranks\'][top[\'rank\']]))\n        response.write(\'</h2>\\n          <div class="\', escape=False)\n        response.write(top[\'classe\'])\n        response.write(\'">\\n            <h3>\', escape=False)\n        response.write(top[\'label\'])\n        response.write(\'</h3>\\n            <div>\', escape=False)\n        response.write(getdot(d,tri))\n        response.write(\' \', escape=False)\n        response.write(top[\'unit\'])\n        response.write(\'</div>\\n            \\n          </div>\\n          \\n        \', escape=False)\n        pass\n    response.write(\'\\n      </div>\\n    </div>\\n  </article>\\n\\n\', escape=False)\n    pass\nresponse.write(\'\\n\', escape=False)\nif next:\n    response.write(\'\\n    <div class="pagination__next"></div>\\n\', escape=False)\n    pass\nresponse.write(\'\\n\', escape=False)'
p7
sS'snapshot'
p8
(dp9
S'exception'
p10
(dp11
S'__getslice__'
p12
S"<method-wrapper '__getslice__' of exceptions.KeyError object>"
p13
sS'__str__'
p14
S"<method-wrapper '__str__' of exceptions.KeyError object>"
p15
sS'__reduce__'
p16
S'<built-in method __reduce__ of exceptions.KeyError object>'
p17
sS'__dict__'
p18
S'{}'
p19
sS'message'
p20
S"'N/A'"
p21
sS'__sizeof__'
p22
S'<built-in method __sizeof__ of exceptions.KeyError object>'
p23
sS'__init__'
p24
S"<method-wrapper '__init__' of exceptions.KeyError object>"
p25
sS'__setattr__'
p26
S"<method-wrapper '__setattr__' of exceptions.KeyError object>"
p27
sS'__reduce_ex__'
p28
S'<built-in method __reduce_ex__ of exceptions.KeyError object>'
p29
sS'__new__'
p30
S'<built-in method __new__ of type object>'
p31
sS'__format__'
p32
S'<built-in method __format__ of exceptions.KeyError object>'
p33
sS'__class__'
p34
S"<type 'exceptions.KeyError'>"
p35
sS'__doc__'
p36
S"'Mapping key not found.'"
p37
sS'__getitem__'
p38
S"<method-wrapper '__getitem__' of exceptions.KeyError object>"
p39
sS'__setstate__'
p40
S'<built-in method __setstate__ of exceptions.KeyError object>'
p41
sS'__getattribute__'
p42
S"<method-wrapper '__getattribute__' of exceptions.KeyError object>"
p43
sS'args'
p44
S"('N/A',)"
p45
sS'__subclasshook__'
p46
S'<built-in method __subclasshook__ of type object>'
p47
sS'__unicode__'
p48
S'<built-in method __unicode__ of exceptions.KeyError object>'
p49
sS'__delattr__'
p50
S"<method-wrapper '__delattr__' of exceptions.KeyError object>"
p51
sS'__repr__'
p52
S"<method-wrapper '__repr__' of exceptions.KeyError object>"
p53
sS'__hash__'
p54
S"<method-wrapper '__hash__' of exceptions.KeyError object>"
p55
ssS'evalue'
p56
S"'N/A'"
p57
sS'request'
p58
cgluon.html
XML_unpickle
p59
(S's\xd7n\x00\x00<div><table><tr><td style="font-weight:bold;vertical-align:top;">ajax</td><td style="vertical-align:top;">:</td><td><div>False</div></td></tr><tr><td style="font-weight:bold;vertical-align:top;">application</td><td style="vertical-align:top;">:</td><td><div>oadev</div></td></tr><tr><td style="font-weight:bold;vertical-align:top;">args</td><td style="vertical-align:top;">:</td><td><div><table><tr><td><div>2</div></td></tr></table></div></td></tr><tr><td style="font-weight:bold;vertical-align:top;">cid</td><td style="vertical-align:top;">:</td><td><div>None</div></td></tr><tr><td style="font-weight:bold;vertical-align:top;">client</td><td style="vertical-align:top;">:</td><td><div>81.248.7.56</div></td></tr><tr><td style="font-weight:bold;vertical-align:top;">controller</td><td style="vertical-align:top;">:</td><td><div>deputes</div></td></tr><tr><td style="font-weight:bold;vertical-align:top;">cookies</td><td style="vertical-align:top;">:</td><td><div><table><tr><td style="font-weight:bold;vertical-align:top;">session_id_admin</td><td style="vertical-align:top;">:</td><td><div>81.248.7.56-1670af5a-aa6a-444f-ad5c-919dcb94f869<table><tr><td style="font-weight:bold;vertical-align:top;">comment</td><td style="vertical-align:top;">:</td><td><div></div></td></tr><tr><td style="font-weight:bold;vertical-align:top;">domain</td><td style="vertical-align:top;">:</td><td><div></div></td></tr><tr><td style="font-weight:bold;vertical-align:top;">expires</td><td style="vertical-align:top;">:</td><td><div></div></td></tr><tr><td style="font-weight:bold;vertical-align:top;">httponly</td><td style="vertical-align:top;">:</td><td><div></div></td></tr><tr><td style="font-weight:bold;vertical-align:top;">max-age</td><td style="vertical-align:top;">:</td><td><div></div></td></tr><tr><td style="font-weight:bold;vertical-align:top;">path</td><td style="vertical-align:top;">:</td><td><div></div></td></tr><tr><td style="font-weight:bold;vertical-align:top;">secure</td><td style="vertical-align:top;">:</td><td><div></div></td></tr><tr><td style="font-weight:bold;vertical-align:top;">version</td><td style="vertical-align:top;">:</td><td><div></div></td></tr></table></div></td></tr><tr><td style="font-weight:bold;vertical-align:top;">session_id_oadev</td><td style="vertical-align:top;">:</td><td><div>81.248.7.56-186a4536-472a-4456-9b35-79519dc0632d<table><tr><td style="font-weight:bold;vertical-align:top;">comment</td><td style="vertical-align:top;">:</td><td><div></div></td></tr><tr><td style="font-weight:bold;vertical-align:top;">domain</td><td style="vertical-align:top;">:</td><td><div></div></td></tr><tr><td style="font-weight:bold;vertical-align:top;">expires</td><td style="vertical-align:top;">:</td><td><div></div></td></tr><tr><td style="font-weight:bold;vertical-align:top;">httponly</td><td style="vertical-align:top;">:</td><td><div></div></td></tr><tr><td style="font-weight:bold;vertical-align:top;">max-age</td><td style="vertical-align:top;">:</td><td><div></div></td></tr><tr><td style="font-weight:bold;vertical-align:top;">path</td><td style="vertical-align:top;">:</td><td><div></div></td></tr><tr><td style="font-weight:bold;vertical-align:top;">secure</td><td style="vertical-align:top;">:</td><td><div></div></td></tr><tr><td style="font-weight:bold;vertical-align:top;">version</td><td style="vertical-align:top;">:</td><td><div></div></td></tr></table></div></td></tr></table></div></td></tr><tr><td style="font-weight:bold;vertical-align:top;">env</td><td style="vertical-align:top;">:</td><td><div><table><tr><td style="font-weight:bold;vertical-align:top;">CONTEXT_DOCUMENT_ROOT</td><td style="vertical-align:top;">:</td><td><div>/var/www/html</div></td></tr><tr><td style="font-weight:bold;vertical-align:top;">CONTEXT_PREFIX</td><td style="vertical-align:top;">:</td><td><div></div></td></tr><tr><td style="font-weight:bold;vertical-align:top;">DOCUMENT_ROOT</td><td style="vertical-align:top;">:</td><td><div>/var/www/html</div></td></tr><tr><td style="font-weight:bold;vertical-align:top;">GATEWAY_INTERFACE</td><td style="vertical-align:top;">:</td><td><div>CGI/1.1</div></td></tr><tr><td style="font-weight:bold;vertical-align:top;">HTTP_ACCEPT</td><td style="vertical-align:top;">:</td><td><div>*/*</div></td></tr><tr><td style="font-weight:bold;vertical-align:top;">HTTP_ACCEPT_ENCODING</td><td style="vertical-align:top;">:</td><td><div>gzip, deflate, br</div></td></tr><tr><td style="font-weight:bold;vertical-align:top;">HTTP_ACCEPT_LANGUAGE</td><td style="vertical-align:top;">:</td><td><div>fr-FR,fr;q=0.8,en-US;q=0.6,en;q=0.4</div></td></tr><tr><td style="font-weight:bold;vertical-align:top;">HTTP_CONNECTION</td><td style="vertical-align:top;">:</td><td><div>keep-alive</div></td></tr><tr><td style="font-weight:bold;vertical-align:top;">HTTP_COOKIE</td><td style="vertical-align:top;">:</td><td><div>session_id_admin=81.248.7.56-1670af5a-aa6a-444f-ad5c-919dcb94f869; session_id_oadev=81.248.7.56-186a4536-472a-4456-9b35-79519dc0632d</div></td></tr><tr><td style="font-weight:bold;vertical-align:top;">HTTP_HOST</td><td style="vertical-align:top;">:</td><td><div>admin.obsas.orvdev.fr</div></td></tr><tr><td style="font-weight:bold;vertical-align:top;">HTTP_REFERER</td><td style="vertical-align:top;">:</td><td><div>https://admin.obsas.orvdev.fr/oadev/deputes/liste</div></td></tr><tr><td style="font-weight:bold;vertical-align:top;">HTTP_USER_AGENT</td><td style="vertical-align:top;">:</td><td><div>Mozilla/5.0 (Linux; Android 6.0; Nexus 5 Build/MRA58N) AppleWebKit/537.36 (KHTML, like Gecko) Chrome/59.0.3071.86 Mobile Safari/537.36</div></td></tr><tr><td style="font-weight:bold;vertical-align:top;">PATH_INFO</td><td style="vertical-align:top;">:</td><td><div>/oadev/deputes/ajax_top/2</div></td></tr><tr><td style="font-weight:bold;vertical-align:top;">PATH_TRANSLATED</td><td style="vertical-align:top;">:</td><td><div>/home/www-data/web2py/wsgihandler.py/oadev/deputes/ajax_top/2</div></td></tr><tr><td style="font-weight:bold;vertical-align:top;">QUERY_STRING</td><td style="vertical-align:top;">:</td><td><div></div></td></tr><tr><td style="font-weight:bold;vertical-align:top;">REMOTE_ADDR</td><td style="vertical-align:top;">:</td><td><div>81.248.7.56</div></td></tr><tr><td style="font-weight:bold;vertical-align:top;">REMOTE_PORT</td><td style="vertical-align:top;">:</td><td><div>44106</div></td></tr><tr><td style="font-weight:bold;vertical-align:top;">REQUEST_METHOD</td><td style="vertical-align:top;">:</td><td><div>GET</div></td></tr><tr><td style="font-weight:bold;vertical-align:top;">REQUEST_SCHEME</td><td style="vertical-align:top;">:</td><td><div>https</div></td></tr><tr><td style="font-weight:bold;vertical-align:top;">REQUEST_URI</td><td style="vertical-align:top;">:</td><td><div>/oadev/deputes/ajax_top/2</div></td></tr><tr><td style="font-weight:bold;vertical-align:top;">SCRIPT_FILENAME</td><td style="vertical-align:top;">:</td><td><div>/home/www-data/web2py/wsgihandler.py</div></td></tr><tr><td style="font-weight:bold;vertical-align:top;">SCRIPT_NAME</td><td style="vertical-align:top;">:</td><td><div></div></td></tr><tr><td style="font-weight:bold;vertical-align:top;">SERVER_ADDR</td><td style="vertical-align:top;">:</td><td><div>151.80.57.169</div></td></tr><tr><td style="font-weight:bold;vertical-align:top;">SERVER_ADMIN</td><td style="vertical-align:top;">:</td><td><div>[no address given]</div></td></tr><tr><td style="font-weight:bold;vertical-align:top;">SERVER_NAME</td><td style="vertical-align:top;">:</td><td><div>admin.obsas.orvdev.fr</div></td></tr><tr><td style="font-weight:bold;vertical-align:top;">SERVER_PORT</td><td style="vertical-align:top;">:</td><td><div>443</div></td></tr><tr><td style="font-weight:bold;vertical-align:top;">SERVER_PROTOCOL</td><td style="vertical-align:top;">:</td><td><div>HTTP/1.1</div></td></tr><tr><td style="font-weight:bold;vertical-align:top;">SERVER_SIGNATURE</td><td style="vertical-align:top;">:</td><td><div>&lt;address&gt;Apache/2.4.18 (Ubuntu) Server at admin.obsas.orvdev.fr Port 443&lt;/address&gt;\n</div></td></tr><tr><td style="font-weight:bold;vertical-align:top;">SERVER_SOFTWARE</td><td style="vertical-align:top;">:</td><td><div>Apache/2.4.18 (Ubuntu)</div></td></tr><tr><td style="font-weight:bold;vertical-align:top;">SSL_TLS_SNI</td><td style="vertical-align:top;">:</td><td><div>admin.obsas.orvdev.fr</div></td></tr><tr><td style="font-weight:bold;vertical-align:top;">apache.version</td><td style="vertical-align:top;">:</td><td><div><table><tr><td><div>2</div></td></tr><tr><td><div>4</div></td></tr><tr><td><div>18</div></td></tr></table></div></td></tr><tr><td style="font-weight:bold;vertical-align:top;">apache_version</td><td style="vertical-align:top;">:</td><td><div><table><tr><td><div>2</div></td></tr><tr><td><div>4</div></td></tr><tr><td><div>18</div></td></tr></table></div></td></tr><tr><td style="font-weight:bold;vertical-align:top;">app_folders</td><td style="vertical-align:top;">:</td><td><div>set([&#x27;/home/www-data/web2py/applications/observatoireassemblee/&#x27;, &#x27;/home/www-data/web2py/applications/obsas_dev/&#x27;, &#x27;/home/www-data/web2py/applications/admin/&#x27;, &#x27;/home/www-data/web2py/applications/oadev/&#x27;])</div></td></tr><tr><td style="font-weight:bold;vertical-align:top;">applications_parent</td><td style="vertical-align:top;">:</td><td><div>/home/www-data/web2py</div></td></tr><tr><td style="font-weight:bold;vertical-align:top;">context_document_root</td><td style="vertical-align:top;">:</td><td><div>/var/www/html</div></td></tr><tr><td style="font-weight:bold;vertical-align:top;">context_prefix</td><td style="vertical-align:top;">:</td><td><div></div></td></tr><tr><td style="font-weight:bold;vertical-align:top;">db_sessions</td><td style="vertical-align:top;">:</td><td><div>set([])</div></td></tr><tr><td style="font-weight:bold;vertical-align:top;">debugging</td><td style="vertical-align:top;">:</td><td><div>True</div></td></tr><tr><td style="font-weight:bold;vertical-align:top;">document_root</td><td style="vertical-align:top;">:</td><td><div>/var/www/html</div></td></tr><tr><td style="font-weight:bold;vertical-align:top;">gateway_interface</td><td style="vertical-align:top;">:</td><td><div>CGI/1.1</div></td></tr><tr><td style="font-weight:bold;vertical-align:top;">gluon_parent</td><td style="vertical-align:top;">:</td><td><div>/home/www-data/web2py</div></td></tr><tr><td style="font-weight:bold;vertical-align:top;">http_accept</td><td style="vertical-align:top;">:</td><td><div>*/*</div></td></tr><tr><td style="font-weight:bold;vertical-align:top;">http_accept_encoding</td><td style="vertical-align:top;">:</td><td><div>gzip, deflate, br</div></td></tr><tr><td style="font-weight:bold;vertical-align:top;">http_accept_language</td><td style="vertical-align:top;">:</td><td><div>fr-FR,fr;q=0.8,en-US;q=0.6,en;q=0.4</div></td></tr><tr><td style="font-weight:bold;vertical-align:top;">http_connection</td><td style="vertical-align:top;">:</td><td><div>keep-alive</div></td></tr><tr><td style="font-weight:bold;vertical-align:top;">http_cookie</td><td style="vertical-align:top;">:</td><td><div>session_id_admin=81.248.7.56-1670af5a-aa6a-444f-ad5c-919dcb94f869; session_id_oadev=81.248.7.56-186a4536-472a-4456-9b35-79519dc0632d</div></td></tr><tr><td style="font-weight:bold;vertical-align:top;">http_host</td><td style="vertical-align:top;">:</td><td><div>admin.obsas.orvdev.fr</div></td></tr><tr><td style="font-weight:bold;vertical-align:top;">http_referer</td><td style="vertical-align:top;">:</td><td><div>https://admin.obsas.orvdev.fr/oadev/deputes/liste</div></td></tr><tr><td style="font-weight:bold;vertical-align:top;">http_user_agent</td><td style="vertical-align:top;">:</td><td><div>Mozilla/5.0 (Linux; Android 6.0; Nexus 5 Build/MRA58N) AppleWebKit/537.36 (KHTML, like Gecko) Chrome/59.0.3071.86 Mobile Safari/537.36</div></td></tr><tr><td style="font-weight:bold;vertical-align:top;">is_jython</td><td style="vertical-align:top;">:</td><td><div>False</div></td></tr><tr><td style="font-weight:bold;vertical-align:top;">is_py2</td><td style="vertical-align:top;">:</td><td><div>True</div></td></tr><tr><td style="font-weight:bold;vertical-align:top;">is_pypy</td><td style="vertical-align:top;">:</td><td><div>False</div></td></tr><tr><td style="font-weight:bold;vertical-align:top;">is_source</td><td style="vertical-align:top;">:</td><td><div>True</div></td></tr><tr><td style="font-weight:bold;vertical-align:top;">local_hosts</td><td style="vertical-align:top;">:</td><td><div><table><tr><td><div>vps433020</div></td></tr><tr><td><div>::ffff:127.0.0.1</div></td></tr><tr><td><div>::1</div></td></tr><tr><td><div>151.80.57.169</div></td></tr><tr><td><div>vps433020.ovh.net</div></td></tr><tr><td><div>127.0.1.1</div></td></tr><tr><td><div>admin.obsas.orvdev.fr</div></td></tr><tr><td><div>127.0.0.1</div></td></tr></table></div></td></tr><tr><td style="font-weight:bold;vertical-align:top;">mod_wsgi.application_group</td><td style="vertical-align:top;">:</td><td><div></div></td></tr><tr><td style="font-weight:bold;vertical-align:top;">mod_wsgi.callable_object</td><td style="vertical-align:top;">:</td><td><div>application</div></td></tr><tr><td style="font-weight:bold;vertical-align:top;">mod_wsgi.daemon_connects</td><td style="vertical-align:top;">:</td><td><div>1</div></td></tr><tr><td style="font-weight:bold;vertical-align:top;">mod_wsgi.daemon_restarts</td><td style="vertical-align:top;">:</td><td><div>0</div></td></tr><tr><td style="font-weight:bold;vertical-align:top;">mod_wsgi.daemon_start</td><td style="vertical-align:top;">:</td><td><div>1505914234065986</div></td></tr><tr><td style="font-weight:bold;vertical-align:top;">mod_wsgi.enable_sendfile</td><td style="vertical-align:top;">:</td><td><div>0</div></td></tr><tr><td style="font-weight:bold;vertical-align:top;">mod_wsgi.handler_script</td><td style="vertical-align:top;">:</td><td><div></div></td></tr><tr><td style="font-weight:bold;vertical-align:top;">mod_wsgi.input_chunked</td><td style="vertical-align:top;">:</td><td><div>0</div></td></tr><tr><td style="font-weight:bold;vertical-align:top;">mod_wsgi.listener_host</td><td style="vertical-align:top;">:</td><td><div></div></td></tr><tr><td style="font-weight:bold;vertical-align:top;">mod_wsgi.listener_port</td><td style="vertical-align:top;">:</td><td><div>443</div></td></tr><tr><td style="font-weight:bold;vertical-align:top;">mod_wsgi.process_group</td><td style="vertical-align:top;">:</td><td><div>obsasadm</div></td></tr><tr><td style="font-weight:bold;vertical-align:top;">mod_wsgi.queue_start</td><td style="vertical-align:top;">:</td><td><div>1505914234065603</div></td></tr><tr><td style="font-weight:bold;vertical-align:top;">mod_wsgi.request_handler</td><td style="vertical-align:top;">:</td><td><div>wsgi-script</div></td></tr><tr><td style="font-weight:bold;vertical-align:top;">mod_wsgi.request_start</td><td style="vertical-align:top;">:</td><td><div>1505914234065347</div></td></tr><tr><td style="font-weight:bold;vertical-align:top;">mod_wsgi.script_reloading</td><td style="vertical-align:top;">:</td><td><div>1</div></td></tr><tr><td style="font-weight:bold;vertical-align:top;">mod_wsgi.script_start</td><td style="vertical-align:top;">:</td><td><div>1505914234066029</div></td></tr><tr><td style="font-weight:bold;vertical-align:top;">mod_wsgi.version</td><td style="vertical-align:top;">:</td><td><div><table><tr><td><div>4</div></td></tr><tr><td><div>3</div></td></tr><tr><td><div>0</div></td></tr></table></div></td></tr><tr><td style="font-weight:bold;vertical-align:top;">mod_wsgi_application_group</td><td style="vertical-align:top;">:</td><td><div></div></td></tr><tr><td style="font-weight:bold;vertical-align:top;">mod_wsgi_callable_object</td><td style="vertical-align:top;">:</td><td><div>application</div></td></tr><tr><td style="font-weight:bold;vertical-align:top;">mod_wsgi_daemon_connects</td><td style="vertical-align:top;">:</td><td><div>1</div></td></tr><tr><td style="font-weight:bold;vertical-align:top;">mod_wsgi_daemon_restarts</td><td style="vertical-align:top;">:</td><td><div>0</div></td></tr><tr><td style="font-weight:bold;vertical-align:top;">mod_wsgi_daemon_start</td><td style="vertical-align:top;">:</td><td><div>1505914234065986</div></td></tr><tr><td style="font-weight:bold;vertical-align:top;">mod_wsgi_enable_sendfile</td><td style="vertical-align:top;">:</td><td><div>0</div></td></tr><tr><td style="font-weight:bold;vertical-align:top;">mod_wsgi_handler_script</td><td style="vertical-align:top;">:</td><td><div></div></td></tr><tr><td style="font-weight:bold;vertical-align:top;">mod_wsgi_input_chunked</td><td style="vertical-align:top;">:</td><td><div>0</div></td></tr><tr><td style="font-weight:bold;vertical-align:top;">mod_wsgi_listener_host</td><td style="vertical-align:top;">:</td><td><div></div></td></tr><tr><td style="font-weight:bold;vertical-align:top;">mod_wsgi_listener_port</td><td style="vertical-align:top;">:</td><td><div>443</div></td></tr><tr><td style="font-weight:bold;vertical-align:top;">mod_wsgi_process_group</td><td style="vertical-align:top;">:</td><td><div>obsasadm</div></td></tr><tr><td style="font-weight:bold;vertical-align:top;">mod_wsgi_queue_start</td><td style="vertical-align:top;">:</td><td><div>1505914234065603</div></td></tr><tr><td style="font-weight:bold;vertical-align:top;">mod_wsgi_request_handler</td><td style="vertical-align:top;">:</td><td><div>wsgi-script</div></td></tr><tr><td style="font-weight:bold;vertical-align:top;">mod_wsgi_request_start</td><td style="vertical-align:top;">:</td><td><div>1505914234065347</div></td></tr><tr><td style="font-weight:bold;vertical-align:top;">mod_wsgi_script_reloading</td><td style="vertical-align:top;">:</td><td><div>1</div></td></tr><tr><td style="font-weight:bold;vertical-align:top;">mod_wsgi_script_start</td><td style="vertical-align:top;">:</td><td><div>1505914234066029</div></td></tr><tr><td style="font-weight:bold;vertical-align:top;">mod_wsgi_version</td><td style="vertical-align:top;">:</td><td><div><table><tr><td><div>4</div></td></tr><tr><td><div>3</div></td></tr><tr><td><div>0</div></td></tr></table></div></td></tr><tr><td style="font-weight:bold;vertical-align:top;">nokeepalive</td><td style="vertical-align:top;">:</td><td><div>ssl-unclean-shutdown</div></td></tr><tr><td style="font-weight:bold;vertical-align:top;">path_info</td><td style="vertical-align:top;">:</td><td><div>/oadev/deputes/ajax_top/2</div></td></tr><tr><td style="font-weight:bold;vertical-align:top;">path_translated</td><td style="vertical-align:top;">:</td><td><div>/home/www-data/web2py/wsgihandler.py/oadev/deputes/ajax_top/2</div></td></tr><tr><td style="font-weight:bold;vertical-align:top;">query_string</td><td style="vertical-align:top;">:</td><td><div></div></td></tr><tr><td style="font-weight:bold;vertical-align:top;">remote_addr</td><td style="vertical-align:top;">:</td><td><div>81.248.7.56</div></td></tr><tr><td style="font-weight:bold;vertical-align:top;">remote_port</td><td style="vertical-align:top;">:</td><td><div>44106</div></td></tr><tr><td style="font-weight:bold;vertical-align:top;">request_method</td><td style="vertical-align:top;">:</td><td><div>GET</div></td></tr><tr><td style="font-weight:bold;vertical-align:top;">request_scheme</td><td style="vertical-align:top;">:</td><td><div>https</div></td></tr><tr><td style="font-weight:bold;vertical-align:top;">request_uri</td><td style="vertical-align:top;">:</td><td><div>/oadev/deputes/ajax_top/2</div></td></tr><tr><td style="font-weight:bold;vertical-align:top;">script_filename</td><td style="vertical-align:top;">:</td><td><div>/home/www-data/web2py/wsgihandler.py</div></td></tr><tr><td style="font-weight:bold;vertical-align:top;">script_name</td><td style="vertical-align:top;">:</td><td><div></div></td></tr><tr><td style="font-weight:bold;vertical-align:top;">server_addr</td><td style="vertical-align:top;">:</td><td><div>151.80.57.169</div></td></tr><tr><td style="font-weight:bold;vertical-align:top;">server_admin</td><td style="vertical-align:top;">:</td><td><div>[no address given]</div></td></tr><tr><td style="font-weight:bold;vertical-align:top;">server_name</td><td style="vertical-align:top;">:</td><td><div>admin.obsas.orvdev.fr</div></td></tr><tr><td style="font-weight:bold;vertical-align:top;">server_port</td><td style="vertical-align:top;">:</td><td><div>443</div></td></tr><tr><td style="font-weight:bold;vertical-align:top;">server_protocol</td><td style="vertical-align:top;">:</td><td><div>HTTP/1.1</div></td></tr><tr><td style="font-weight:bold;vertical-align:top;">server_signature</td><td style="vertical-align:top;">:</td><td><div>&lt;address&gt;Apache/2.4.18 (Ubuntu) Server at admin.obsas.orvdev.fr Port 443&lt;/address&gt;\n</div></td></tr><tr><td style="font-weight:bold;vertical-align:top;">server_software</td><td style="vertical-align:top;">:</td><td><div>Apache/2.4.18 (Ubuntu)</div></td></tr><tr><td style="font-weight:bold;vertical-align:top;">ssl_tls_sni</td><td style="vertical-align:top;">:</td><td><div>admin.obsas.orvdev.fr</div></td></tr><tr><td style="font-weight:bold;vertical-align:top;">web2py_original_uri</td><td style="vertical-align:top;">:</td><td><div>/oadev/deputes/ajax_top/2</div></td></tr><tr><td style="font-weight:bold;vertical-align:top;">web2py_path</td><td style="vertical-align:top;">:</td><td><div>/home/www-data/web2py</div></td></tr><tr><td style="font-weight:bold;vertical-align:top;">web2py_version</td><td style="vertical-align:top;">:</td><td><div>2.15.1-stable+timestamp.2017.07.10.21.25.06</div></td></tr><tr><td style="font-weight:bold;vertical-align:top;">wsgi.errors</td><td style="vertical-align:top;">:</td><td><div>&lt;mod_wsgi.Log object at 0x7f39ccaaf270&gt;</div></td></tr><tr><td style="font-weight:bold;vertical-align:top;">wsgi.file_wrapper</td><td style="vertical-align:top;">:</td><td><div>&lt;type &#x27;mod_wsgi.FileWrapper&#x27;&gt;</div></td></tr><tr><td style="font-weight:bold;vertical-align:top;">wsgi.input</td><td style="vertical-align:top;">:</td><td><div>&lt;mod_wsgi.Input object at 0x7f39cc8762f0&gt;</div></td></tr><tr><td style="font-weight:bold;vertical-align:top;">wsgi.multiprocess</td><td style="vertical-align:top;">:</td><td><div>False</div></td></tr><tr><td style="font-weight:bold;vertical-align:top;">wsgi.multithread</td><td style="vertical-align:top;">:</td><td><div>True</div></td></tr><tr><td style="font-weight:bold;vertical-align:top;">wsgi.run_once</td><td style="vertical-align:top;">:</td><td><div>False</div></td></tr><tr><td style="font-weight:bold;vertical-align:top;">wsgi.url_scheme</td><td style="vertical-align:top;">:</td><td><div>https</div></td></tr><tr><td style="font-weight:bold;vertical-align:top;">wsgi.version</td><td style="vertical-align:top;">:</td><td><div><table><tr><td><div>1</div></td></tr><tr><td><div>0</div></td></tr></table></div></td></tr><tr><td style="font-weight:bold;vertical-align:top;">wsgi_errors</td><td style="vertical-align:top;">:</td><td><div>&lt;mod_wsgi.Log object at 0x7f39ccaaf270&gt;</div></td></tr><tr><td style="font-weight:bold;vertical-align:top;">wsgi_file_wrapper</td><td style="vertical-align:top;">:</td><td><div>&lt;type &#x27;mod_wsgi.FileWrapper&#x27;&gt;</div></td></tr><tr><td style="font-weight:bold;vertical-align:top;">wsgi_input</td><td style="vertical-align:top;">:</td><td><div>&lt;mod_wsgi.Input object at 0x7f39cc8762f0&gt;</div></td></tr><tr><td style="font-weight:bold;vertical-align:top;">wsgi_multiprocess</td><td style="vertical-align:top;">:</td><td><div>False</div></td></tr><tr><td style="font-weight:bold;vertical-align:top;">wsgi_multithread</td><td style="vertical-align:top;">:</td><td><div>True</div></td></tr><tr><td style="font-weight:bold;vertical-align:top;">wsgi_run_once</td><td style="vertical-align:top;">:</td><td><div>False</div></td></tr><tr><td style="font-weight:bold;vertical-align:top;">wsgi_url_scheme</td><td style="vertical-align:top;">:</td><td><div>https</div></td></tr><tr><td style="font-weight:bold;vertical-align:top;">wsgi_version</td><td style="vertical-align:top;">:</td><td><div><table><tr><td><div>1</div></td></tr><tr><td><div>0</div></td></tr></table></div></td></tr></table></div></td></tr><tr><td style="font-weight:bold;vertical-align:top;">extension</td><td style="vertical-align:top;">:</td><td><div>html</div></td></tr><tr><td style="font-weight:bold;vertical-align:top;">folder</td><td style="vertical-align:top;">:</td><td><div>/home/www-data/web2py/applications/oadev/</div></td></tr><tr><td style="font-weight:bold;vertical-align:top;">function</td><td style="vertical-align:top;">:</td><td><div>ajax_top</div></td></tr><tr><td style="font-weight:bold;vertical-align:top;">global_settings</td><td style="vertical-align:top;">:</td><td><div><table><tr><td style="font-weight:bold;vertical-align:top;">app_folders</td><td style="vertical-align:top;">:</td><td><div>set([&#x27;/home/www-data/web2py/applications/observatoireassemblee/&#x27;, &#x27;/home/www-data/web2py/applications/obsas_dev/&#x27;, &#x27;/home/www-data/web2py/applications/admin/&#x27;, &#x27;/home/www-data/web2py/applications/oadev/&#x27;])</div></td></tr><tr><td style="font-weight:bold;vertical-align:top;">applications_parent</td><td style="vertical-align:top;">:</td><td><div>/home/www-data/web2py</div></td></tr><tr><td style="font-weight:bold;vertical-align:top;">db_sessions</td><td style="vertical-align:top;">:</td><td><div>set([])</div></td></tr><tr><td style="font-weight:bold;vertical-align:top;">debugging</td><td style="vertical-align:top;">:</td><td><div>True</div></td></tr><tr><td style="font-weight:bold;vertical-align:top;">gluon_parent</td><td style="vertical-align:top;">:</td><td><div>/home/www-data/web2py</div></td></tr><tr><td style="font-weight:bold;vertical-align:top;">is_jython</td><td style="vertical-align:top;">:</td><td><div>False</div></td></tr><tr><td style="font-weight:bold;vertical-align:top;">is_py2</td><td style="vertical-align:top;">:</td><td><div>True</div></td></tr><tr><td style="font-weight:bold;vertical-align:top;">is_pypy</td><td style="vertical-align:top;">:</td><td><div>False</div></td></tr><tr><td style="font-weight:bold;vertical-align:top;">is_source</td><td style="vertical-align:top;">:</td><td><div>True</div></td></tr><tr><td style="font-weight:bold;vertical-align:top;">local_hosts</td><td style="vertical-align:top;">:</td><td><div><table><tr><td><div>vps433020</div></td></tr><tr><td><div>::ffff:127.0.0.1</div></td></tr><tr><td><div>::1</div></td></tr><tr><td><div>151.80.57.169</div></td></tr><tr><td><div>vps433020.ovh.net</div></td></tr><tr><td><div>127.0.1.1</div></td></tr><tr><td><div>admin.obsas.orvdev.fr</div></td></tr><tr><td><div>127.0.0.1</div></td></tr></table></div></td></tr><tr><td style="font-weight:bold;vertical-align:top;">web2py_version</td><td style="vertical-align:top;">:</td><td><div>2.15.1-stable+timestamp.2017.07.10.21.25.06</div></td></tr></table></div></td></tr><tr><td style="font-weight:bold;vertical-align:top;">is_https</td><td style="vertical-align:top;">:</td><td><div>True</div></td></tr><tr><td style="font-weight:bold;vertical-align:top;">is_local</td><td style="vertical-align:top;">:</td><td><div>False</div></td></tr><tr><td style="font-weight:bold;vertical-align:top;">is_restful</td><td style="vertical-align:top;">:</td><td><div>False</div></td></tr><tr><td style="font-weight:bold;vertical-align:top;">is_scheduler</td><td style="vertical-align:top;">:</td><td><div>False</div></td></tr><tr><td style="font-weight:bold;vertical-align:top;">is_shell</td><td style="vertical-align:top;">:</td><td><div>False</div></td></tr><tr><td style="font-weight:bold;vertical-align:top;">now</td><td style="vertical-align:top;">:</td><td><div>datetime.datetime(2017, 9, 20, 15, 30, 34, 66351)</div></td></tr><tr><td style="font-weight:bold;vertical-align:top;">url</td><td style="vertical-align:top;">:</td><td><div>/oadev/deputes/ajax_top/2</div></td></tr><tr><td style="font-weight:bold;vertical-align:top;">utcnow</td><td style="vertical-align:top;">:</td><td><div>datetime.datetime(2017, 9, 20, 13, 30, 34, 66384)</div></td></tr><tr><td style="font-weight:bold;vertical-align:top;">wsgi</td><td style="vertical-align:top;">:</td><td><div>&lt;gluon.main.LazyWSGI object at 0x7f39bfb8af10&gt;</div></td></tr></table></div>'
tRp60
sS'frames'
p61
(lp62
(dp63
S'file'
p64
S'/home/www-data/web2py/gluon/restricted.py'
p65
sS'dump'
p66
(dp67
S'environment'
p68
S"{'A': <class 'gluon.html.A'>, 'ANY_OF': <class 'gluon.validators.ANY_OF'>, 'ASSIGNJS': <function ASSIGNJS>, 'AppCache': <class __restricted__.AppCache>, 'AppConfig': <function AppConfig>, 'Auth': <class 'gluon.tools.Auth'>, 'B': <class 'gluon.html.B'>, 'BEAUTIFY': <class 'gluon.html.BEAUTIFY'>, 'BODY': <class 'gluon.html.BODY'>, 'BR': <class 'gluon.html.BR'>, ...}"
p69
sS'ccode'
p70
S'"def emphasize(itemtype,value):\\n    response.writ...alse)\\n    pass\\nresponse.write(\'\\\\n\', escape=False)"'
p71
ssS'lnum'
p72
I219
sS'lines'
p73
(dp74
I214
S'    if environment is None:'
p75
sI215
S'        environment = {}'
p76
sI216
S"    environment['__file__'] = layer"
p77
sI217
S"    environment['__name__'] = '__restricted__'"
p78
sI218
S'    try:'
p79
sI219
S'        exec(ccode, environment)'
p80
sI220
S'    except HTTP:'
p81
sI221
S'        raise'
p82
sI222
S'    except RestrictedError:'
p83
sI223
S'        # do not encapsulate (obfuscate) the original RestrictedError'
p84
ssS'call'
p85
S'(ccode="def emphasize(itemtype,value):\\n    response.writ...alse)\\n    pass\\nresponse.write(\'\\\\n\', escape=False)", environment={\'A\': <class \'gluon.html.A\'>, \'ANY_OF\': <class \'gluon.validators.ANY_OF\'>, \'ASSIGNJS\': <function ASSIGNJS>, \'AppCache\': <class __restricted__.AppCache>, \'AppConfig\': <function AppConfig>, \'Auth\': <class \'gluon.tools.Auth\'>, \'B\': <class \'gluon.html.B\'>, \'BEAUTIFY\': <class \'gluon.html.BEAUTIFY\'>, \'BODY\': <class \'gluon.html.BODY\'>, \'BR\': <class \'gluon.html.BR\'>, ...}, layer=\'/home/www-data/web2py/applications/oadev/views/deputes/ajax_top.html\')'
p86
sS'func'
p87
S'restricted'
p88
sa(dp89
g64
S'/home/www-data/web2py/<string>'
p90
sg66
(dp91
sg72
I27
sg73
(dp92
sg85
S'()'
p93
sg87
S'<module>'
p94
sasS'pyver'
p95
S'Python 2.7.12: /home/www-data/web2py/applications/obsas_dev/.pyenv/bin/python (prefix: /home/www-data/web2py/applications/obsas_dev/.pyenv)'
p96
sS'session'
p97
g59
(S's\x1a\x00\x00\x00<div><table></table></div>'
tRp98
sS'etype'
p99
S"<type 'exceptions.KeyError'>"
p100
sS'date'
p101
S'Wed Sep 20 15:30:34 2017'
p102
sS'response'
p103
g59
(S's\x1c>\x00\x00<div><table><tr><td style="font-weight:bold;vertical-align:top;">body</td><td style="vertical-align:top;">:</td><td><div>&lt;cStringIO.StringO object at 0x7f39cc90f308&gt;</div></td></tr><tr><td style="font-weight:bold;vertical-align:top;">cookies</td><td style="vertical-align:top;">:</td><td><div><table><tr><td style="font-weight:bold;vertical-align:top;">session_id_oadev</td><td style="vertical-align:top;">:</td><td><div>81.248.7.56-093f5485-1396-4d69-bea6-dc270ec5c416<table><tr><td style="font-weight:bold;vertical-align:top;">comment</td><td style="vertical-align:top;">:</td><td><div></div></td></tr><tr><td style="font-weight:bold;vertical-align:top;">domain</td><td style="vertical-align:top;">:</td><td><div></div></td></tr><tr><td style="font-weight:bold;vertical-align:top;">expires</td><td style="vertical-align:top;">:</td><td><div></div></td></tr><tr><td style="font-weight:bold;vertical-align:top;">httponly</td><td style="vertical-align:top;">:</td><td><div></div></td></tr><tr><td style="font-weight:bold;vertical-align:top;">max-age</td><td style="vertical-align:top;">:</td><td><div></div></td></tr><tr><td style="font-weight:bold;vertical-align:top;">path</td><td style="vertical-align:top;">:</td><td><div>/</div></td></tr><tr><td style="font-weight:bold;vertical-align:top;">secure</td><td style="vertical-align:top;">:</td><td><div></div></td></tr><tr><td style="font-weight:bold;vertical-align:top;">version</td><td style="vertical-align:top;">:</td><td><div></div></td></tr></table></div></td></tr></table></div></td></tr><tr><td style="font-weight:bold;vertical-align:top;">delimiters</td><td style="vertical-align:top;">:</td><td><div><table><tr><td><div>{{</div></td></tr><tr><td><div>}}</div></td></tr></table></div></td></tr><tr><td style="font-weight:bold;vertical-align:top;">files</td><td style="vertical-align:top;">:</td><td><div><table></table></div></td></tr><tr><td style="font-weight:bold;vertical-align:top;">flash</td><td style="vertical-align:top;">:</td><td><div></div></td></tr><tr><td style="font-weight:bold;vertical-align:top;">form_label_separator</td><td style="vertical-align:top;">:</td><td><div></div></td></tr><tr><td style="font-weight:bold;vertical-align:top;">formstyle</td><td style="vertical-align:top;">:</td><td><div>bootstrap3_inline</div></td></tr><tr><td style="font-weight:bold;vertical-align:top;">generic_patterns</td><td style="vertical-align:top;">:</td><td><div><table><tr><td><div>*.json</div></td></tr></table></div></td></tr><tr><td style="font-weight:bold;vertical-align:top;">google_analytics_id</td><td style="vertical-align:top;">:</td><td><div>None</div></td></tr><tr><td style="font-weight:bold;vertical-align:top;">headers</td><td style="vertical-align:top;">:</td><td><div><table><tr><td style="font-weight:bold;vertical-align:top;">X-Powered-By</td><td style="vertical-align:top;">:</td><td><div>web2py</div></td></tr></table></div></td></tr><tr><td style="font-weight:bold;vertical-align:top;">logo</td><td style="vertical-align:top;">:</td><td><div><a class="navbar-brand" href="http://www.web2py.com/" id="web2py-logo"><b>web<span>2</span>py</b>&trade;&nbsp;</a></div></td></tr><tr><td style="font-weight:bold;vertical-align:top;">menu</td><td style="vertical-align:top;">:</td><td><div><table><tr><td><div><table><tr><td><div>Accueil</div></td></tr><tr><td><div>False</div></td></tr><tr><td><div>/oadev</div></td></tr><tr><td><div><table></table></div></td></tr></table></div></td></tr><tr><td><div><table><tr><td><div>Mes sites</div></td></tr><tr><td><div>False</div></td></tr><tr><td><div>/admin/site</div></td></tr></table></div></td></tr><tr><td><div><table><tr><td><div>Cette Appli</div></td></tr><tr><td><div>False</div></td></tr><tr><td><div>#</div></td></tr><tr><td><div><table><tr><td><div><table><tr><td><div>Design</div></td></tr><tr><td><div>False</div></td></tr><tr><td><div>/admin/design/oadev</div></td></tr></table></div></td></tr><tr><td><div><li class="divider"></li></div></td></tr><tr><td><div><table><tr><td><div>Contr\xc3\xb4leur</div></td></tr><tr><td><div>False</div></td></tr><tr><td><div>/admin/edit/oadev/controllers/deputes.py</div></td></tr></table></div></td></tr><tr><td><div><table><tr><td><div>Pr\xc3\xa9sentation</div></td></tr><tr><td><div>False</div></td></tr><tr><td><div>/admin/edit/oadev/views/deputes/ajax_top.html</div></td></tr></table></div></td></tr><tr><td><div><table><tr><td><div>Mod\xc3\xa8le BD</div></td></tr><tr><td><div>False</div></td></tr><tr><td><div>/admin/edit/oadev/models/db.py</div></td></tr></table></div></td></tr><tr><td><div><table><tr><td><div>Menu mod\xc3\xa8le</div></td></tr><tr><td><div>False</div></td></tr><tr><td><div>/admin/edit/oadev/models/menu.py</div></td></tr></table></div></td></tr><tr><td><div><table><tr><td><div>Config.ini</div></td></tr><tr><td><div>False</div></td></tr><tr><td><div>/admin/edit/oadev/private/appconfig.ini</div></td></tr></table></div></td></tr><tr><td><div><table><tr><td><div>Mise en page</div></td></tr><tr><td><div>False</div></td></tr><tr><td><div>/admin/edit/oadev/views/layout.html</div></td></tr></table></div></td></tr><tr><td><div><table><tr><td><div>Feuille de style</div></td></tr><tr><td><div>False</div></td></tr><tr><td><div>/admin/edit/oadev/static/css/web2py-bootstrap3.css</div></td></tr></table></div></td></tr><tr><td><div><table><tr><td><div>base de donn\xc3\xa9es</div></td></tr><tr><td><div>False</div></td></tr><tr><td><div>/oadev/appadmin</div></td></tr></table></div></td></tr><tr><td><div><table><tr><td><div>Erreurs</div></td></tr><tr><td><div>False</div></td></tr><tr><td><div>/admin/errors/oadev</div></td></tr></table></div></td></tr><tr><td><div><table><tr><td><div>\xc3\x80 propos</div></td></tr><tr><td><div>False</div></td></tr><tr><td><div>/admin/about/oadev</div></td></tr></table></div></td></tr></table></div></td></tr></table></div></td></tr><tr><td><div><table><tr><td><div>web2py.com</div></td></tr><tr><td><div>False</div></td></tr><tr><td><div>#</div></td></tr><tr><td><div><table><tr><td><div><table><tr><td><div>T\xc3\xa9l\xc3\xa9chargement</div></td></tr><tr><td><div>False</div></td></tr><tr><td><div>http://www.web2py.com/examples/default/download</div></td></tr></table></div></td></tr><tr><td><div><table><tr><td><div>Soutien</div></td></tr><tr><td><div>False</div></td></tr><tr><td><div>http://www.web2py.com/examples/default/support</div></td></tr></table></div></td></tr><tr><td><div><table><tr><td><div>D\xc3\xa9mo</div></td></tr><tr><td><div>False</div></td></tr><tr><td><div>http://web2py.com/demo_admin</div></td></tr></table></div></td></tr><tr><td><div><table><tr><td><div>Exemples Rapides</div></td></tr><tr><td><div>False</div></td></tr><tr><td><div>http://web2py.com/examples/default/examples</div></td></tr></table></div></td></tr><tr><td><div><table><tr><td><div>FAQ</div></td></tr><tr><td><div>False</div></td></tr><tr><td><div>http://web2py.com/AlterEgo</div></td></tr></table></div></td></tr><tr><td><div><table><tr><td><div>Vid\xc3\xa9os</div></td></tr><tr><td><div>False</div></td></tr><tr><td><div>http://www.web2py.com/examples/default/videos/</div></td></tr></table></div></td></tr><tr><td><div><table><tr><td><div>Applications gratuites</div></td></tr><tr><td><div>False</div></td></tr><tr><td><div>http://web2py.com/appliances</div></td></tr></table></div></td></tr><tr><td><div><table><tr><td><div>Plugiciels</div></td></tr><tr><td><div>False</div></td></tr><tr><td><div>http://web2py.com/plugins</div></td></tr></table></div></td></tr><tr><td><div><table><tr><td><div>Recettes</div></td></tr><tr><td><div>False</div></td></tr><tr><td><div>http://web2pyslices.com/</div></td></tr></table></div></td></tr></table></div></td></tr></table></div></td></tr><tr><td><div><table><tr><td><div>Documentation</div></td></tr><tr><td><div>False</div></td></tr><tr><td><div>#</div></td></tr><tr><td><div><table><tr><td><div><table><tr><td><div>Online book</div></td></tr><tr><td><div>False</div></td></tr><tr><td><div>http://www.web2py.com/book</div></td></tr></table></div></td></tr><tr><td><div><li class="divider"></li></div></td></tr><tr><td><div><table><tr><td><div>Pr\xc3\xa9face</div></td></tr><tr><td><div>False</div></td></tr><tr><td><div>http://www.web2py.com/book/default/chapter/00</div></td></tr></table></div></td></tr><tr><td><div><table><tr><td><div>Pr\xc3\xa9sentation</div></td></tr><tr><td><div>False</div></td></tr><tr><td><div>http://www.web2py.com/book/default/chapter/01</div></td></tr></table></div></td></tr><tr><td><div><table><tr><td><div>Python</div></td></tr><tr><td><div>False</div></td></tr><tr><td><div>http://www.web2py.com/book/default/chapter/02</div></td></tr></table></div></td></tr><tr><td><div><table><tr><td><div>Pr\xc3\xa9sentation</div></td></tr><tr><td><div>False</div></td></tr><tr><td><div>http://www.web2py.com/book/default/chapter/03</div></td></tr></table></div></td></tr><tr><td><div><table><tr><td><div>Le noyau</div></td></tr><tr><td><div>False</div></td></tr><tr><td><div>http://www.web2py.com/book/default/chapter/04</div></td></tr></table></div></td></tr><tr><td><div><table><tr><td><div>Les Vues</div></td></tr><tr><td><div>False</div></td></tr><tr><td><div>http://www.web2py.com/book/default/chapter/05</div></td></tr></table></div></td></tr><tr><td><div><table><tr><td><div>base de donn\xc3\xa9es</div></td></tr><tr><td><div>False</div></td></tr><tr><td><div>http://www.web2py.com/book/default/chapter/06</div></td></tr></table></div></td></tr><tr><td><div><table><tr><td><div>Formulaires et Validateurs</div></td></tr><tr><td><div>False</div></td></tr><tr><td><div>http://www.web2py.com/book/default/chapter/07</div></td></tr></table></div></td></tr><tr><td><div><table><tr><td><div>Courriel et texto</div></td></tr><tr><td><div>False</div></td></tr><tr><td><div>http://www.web2py.com/book/default/chapter/08</div></td></tr></table></div></td></tr><tr><td><div><table><tr><td><div>Contr\xc3\xb4le d\'acc\xc3\xa8s</div></td></tr><tr><td><div>False</div></td></tr><tr><td><div>http://www.web2py.com/book/default/chapter/09</div></td></tr></table></div></td></tr><tr><td><div><table><tr><td><div>Services</div></td></tr><tr><td><div>False</div></td></tr><tr><td><div>http://www.web2py.com/book/default/chapter/10</div></td></tr></table></div></td></tr><tr><td><div><table><tr><td><div>Recettes Ajax</div></td></tr><tr><td><div>False</div></td></tr><tr><td><div>http://www.web2py.com/book/default/chapter/11</div></td></tr></table></div></td></tr><tr><td><div><table><tr><td><div>Composants et Plugiciels</div></td></tr><tr><td><div>False</div></td></tr><tr><td><div>http://www.web2py.com/book/default/chapter/12</div></td></tr></table></div></td></tr><tr><td><div><table><tr><td><div>Recettes de d\xc3\xa9ploiement</div></td></tr><tr><td><div>False</div></td></tr><tr><td><div>http://www.web2py.com/book/default/chapter/13</div></td></tr></table></div></td></tr><tr><td><div><table><tr><td><div>Autres recettes</div></td></tr><tr><td><div>False</div></td></tr><tr><td><div>http://www.web2py.com/book/default/chapter/14</div></td></tr></table></div></td></tr><tr><td><div><table><tr><td><div>Aider web2py</div></td></tr><tr><td><div>False</div></td></tr><tr><td><div>http://www.web2py.com/book/default/chapter/15</div></td></tr></table></div></td></tr><tr><td><div><table><tr><td><div>Buy web2py\'s book</div></td></tr><tr><td><div>False</div></td></tr><tr><td><div>http://stores.lulu.com/web2py</div></td></tr></table></div></td></tr></table></div></td></tr></table></div></td></tr><tr><td><div><table><tr><td><div>Communaut\xc3\xa9</div></td></tr><tr><td><div>False</div></td></tr><tr><td><div>None</div></td></tr><tr><td><div><table><tr><td><div><table><tr><td><div>Groupes</div></td></tr><tr><td><div>False</div></td></tr><tr><td><div>http://www.web2py.com/examples/default/usergroups</div></td></tr></table></div></td></tr><tr><td><div><table><tr><td><div>Twitter</div></td></tr><tr><td><div>False</div></td></tr><tr><td><div>http://twitter.com/web2py</div></td></tr></table></div></td></tr><tr><td><div><table><tr><td><div>Clavardage en direct</div></td></tr><tr><td><div>False</div></td></tr><tr><td><div>http://webchat.freenode.net/?channels=web2py</div></td></tr></table></div></td></tr></table></div></td></tr></table></div></td></tr></table></div></td></tr><tr><td style="font-weight:bold;vertical-align:top;">meta</td><td style="vertical-align:top;">:</td><td><div><table><tr><td style="font-weight:bold;vertical-align:top;">author</td><td style="vertical-align:top;">:</td><td><div>Your Name &lt;you@example.com&gt;</div></td></tr><tr><td style="font-weight:bold;vertical-align:top;">description</td><td style="vertical-align:top;">:</td><td><div>a cool new app</div></td></tr><tr><td style="font-weight:bold;vertical-align:top;">generator</td><td style="vertical-align:top;">:</td><td><div>Web2py Web Framework</div></td></tr><tr><td style="font-weight:bold;vertical-align:top;">keywords</td><td style="vertical-align:top;">:</td><td><div><table><tr><td><div>web2py</div></td></tr><tr><td><div>python</div></td></tr><tr><td><div>framework</div></td></tr></table></div></td></tr></table></div></td></tr><tr><td style="font-weight:bold;vertical-align:top;">models_to_run</td><td style="vertical-align:top;">:</td><td><div><table><tr><td><div>^\\w+\\.py$</div></td></tr><tr><td><div>^deputes/\\w+\\.py$</div></td></tr><tr><td><div>^deputes/ajax_top/\\w+\\.py$</div></td></tr></table></div></td></tr><tr><td style="font-weight:bold;vertical-align:top;">postprocessing</td><td style="vertical-align:top;">:</td><td><div><table></table></div></td></tr><tr><td style="font-weight:bold;vertical-align:top;">session_client</td><td style="vertical-align:top;">:</td><td><div>81.248.7.56</div></td></tr><tr><td style="font-weight:bold;vertical-align:top;">session_cookie_compression_level</td><td style="vertical-align:top;">:</td><td><div>None</div></td></tr><tr><td style="font-weight:bold;vertical-align:top;">session_cookie_expires</td><td style="vertical-align:top;">:</td><td><div>None</div></td></tr><tr><td style="font-weight:bold;vertical-align:top;">session_data_name</td><td style="vertical-align:top;">:</td><td><div>session_data_oadev</div></td></tr><tr><td style="font-weight:bold;vertical-align:top;">session_file</td><td style="vertical-align:top;">:</td><td><div>None</div></td></tr><tr><td style="font-weight:bold;vertical-align:top;">session_filename</td><td style="vertical-align:top;">:</td><td><div>/home/www-data/web2py/applications/oadev/sessions/81.248.7.56-093f5485-1396-4d69-bea6-dc270ec5c416</div></td></tr><tr><td style="font-weight:bold;vertical-align:top;">session_hash</td><td style="vertical-align:top;">:</td><td><div>c0762cbf4baf7f9af97c051e7fcb8083</div></td></tr><tr><td style="font-weight:bold;vertical-align:top;">session_id</td><td style="vertical-align:top;">:</td><td><div>81.248.7.56-093f5485-1396-4d69-bea6-dc270ec5c416</div></td></tr><tr><td style="font-weight:bold;vertical-align:top;">session_id_name</td><td style="vertical-align:top;">:</td><td><div>session_id_oadev</div></td></tr><tr><td style="font-weight:bold;vertical-align:top;">session_masterapp</td><td style="vertical-align:top;">:</td><td><div>oadev</div></td></tr><tr><td style="font-weight:bold;vertical-align:top;">session_new</td><td style="vertical-align:top;">:</td><td><div>True</div></td></tr><tr><td style="font-weight:bold;vertical-align:top;">session_storage_type</td><td style="vertical-align:top;">:</td><td><div>file</div></td></tr><tr><td style="font-weight:bold;vertical-align:top;">status</td><td style="vertical-align:top;">:</td><td><div>200</div></td></tr><tr><td style="font-weight:bold;vertical-align:top;">subtitle</td><td style="vertical-align:top;">:</td><td><div></div></td></tr><tr><td style="font-weight:bold;vertical-align:top;">title</td><td style="vertical-align:top;">:</td><td><div>Oadev</div></td></tr><tr><td style="font-weight:bold;vertical-align:top;">view</td><td style="vertical-align:top;">:</td><td><div>deputes/ajax_top.html</div></td></tr></table></div>'
tRp104
sS'locals'
p105
(dp106
S'Service'
p107
S"<class 'gluon.tools.Service'>"
p108
sS'skip'
p109
S'0'
sS'PY2'
p110
S'True'
p111
sS'OBJECT'
p112
S"<class 'gluon.html.OBJECT'>"
p113
sS'SQLDB'
p114
S"<class 'pydal.base.DAL'>"
p115
sS'colors'
p116
S"{'FI': 'rgba(12,195,214,1)', 'GDR': 'rgba(192,0,0,1)', 'LC': 'rgba(112,48,160,1)', 'LR': 'rgba(47,85,151,1)', 'MODEM': 'rgba(237,125,49,1)', 'NG': 'rgba(234,52,208,1)', 'NI': 'rgba(191,191,191,1)', 'REM': 'rgba(255,192,0,1)'}"
p117
sg97
S'<Storage {}>'
p118
sS'LINK'
p119
S"<class 'gluon.html.LINK'>"
p120
sS'BR'
p121
S"<class 'gluon.html.BR'>"
p122
sS'local_import'
p123
S'<function <lambda>>'
p124
sS'OPTGROUP'
p125
S"<class 'gluon.html.OPTGROUP'>"
p126
sS'__package__'
p127
S'None'
p128
sS'PRE'
p129
S"<class 'gluon.html.PRE'>"
p130
sS'IS_INT_IN_RANGE'
p131
S"<class 'gluon.validators.IS_INT_IN_RANGE'>"
p132
sS'IS_NOT_EMPTY'
p133
S"<class 'gluon.validators.IS_NOT_EMPTY'>"
p134
sS'to_bytes'
p135
S'<function to_bytes>'
p136
sS'IS_LOWER'
p137
S"<class 'gluon.validators.IS_LOWER'>"
p138
sS'IS_STRONG'
p139
S"<class 'gluon.validators.IS_STRONG'>"
p140
sS'cache'
p141
S'<gluon.cache.Cache object>'
p142
sS'vide'
p143
S'<function vide>'
p144
sS'IS_IN_DB'
p145
S"<class 'gluon.validators.IS_IN_DB'>"
p146
sS'TAG'
p147
S'<gluon.html.__TAG__ object>'
p148
sS'CRYPT'
p149
S"<class 'gluon.validators.CRYPT'>"
p150
sS'SQLField'
p151
S"<class 'pydal.objects.Field'>"
p152
sS'mail'
p153
S'<gluon.tools.Mail object>'
p154
sS'BODY'
p155
S"<class 'gluon.html.BODY'>"
p156
sS'IS_DATE_IN_RANGE'
p157
S"<class 'gluon.validators.IS_DATE_IN_RANGE'>"
p158
sS'IFRAME'
p159
S"<class 'gluon.html.IFRAME'>"
p160
sS'URL'
p161
S'<function URL>'
p162
sS'__file__'
p163
S"'/home/www-data/web2py/applications/oadev/views/deputes/ajax_top.html'"
p164
sS'db'
p165
S'<DAL uri="sqlite://storage.sqlite">'
p166
sS'auth'
p167
S'<gluon.tools.Auth object>'
p168
sS'nuages_excl'
p169
S"('ministre', 'monsieur', u'coll\\xe8gue', 'madame', 'premier', 'cher', 'effet', 'commission', 'parlementaire', u'd\\xe9put\\xe9', 'deux', 'amendement', 'sujet', 'texte', 'an', 'fois', 'lieu', 'trois', 'mois', 'rapporteur', ...)"
p170
sS'P'
S"<class 'gluon.html.P'>"
p171
sS'TFOOT'
p172
S"<class 'gluon.html.TFOOT'>"
p173
sS'iteritems'
p174
S'<function <lambda>>'
p175
sS'XHTML'
p176
S"<class 'gluon.html.XHTML'>"
p177
sS'datetime'
p178
S"<module 'datetime' (built-in)>"
p179
sS'tri'
p180
S"'depute_nom_tri'"
p181
sS'ON'
p182
g111
sS'OL'
p183
S"<class 'gluon.html.OL'>"
p184
sS'd'
S"{u'_id': ObjectId('59af32496d8669a20452a287'), u'depute_actif': True, u'depute_age': 37, u'depute_autresmandats': [u'Membre du conseil d\\xe9partemental\\xa0(Ain)'], u'depute_bureau': None, u'depute_circo': u'5', u'depute_circo_id': u'001-05', u'depute_classeage': u'30-40 ans', u'depute_collaborateurs': [u'Mme M\\xe9lody Mock-Gruet', u'Mme Rebecca Fougnies', u'M. Antoine Vermorel'], u'depute_commissions': [{u'id': u'PO59046', u'lien': u'http://www2.assemblee-nationale.fr/instances/fiche/OMC_PO59046', u'nom': u'Commission de la d\\xe9fense nationale et des forces arm\\xe9es', u'qualite': u'Membre'}, {u'id': u'PO415287', u'lien': u'http://www2.assemblee-nationale.fr/instances/fiche/OMC_PO415287', u'nom': u'Commission des affaires europ\\xe9ennes', u'qualite': u'Membre'}], ...}"
p185
sS'TEXTAREA'
p186
S"<class 'gluon.html.TEXTAREA'>"
p187
sS'MENU'
p188
S"<class 'gluon.html.MENU'>"
p189
sS'AppCache'
p190
S'<class __restricted__.AppCache>'
p191
sS'IS_IMAGE'
p192
S"<class 'gluon.validators.IS_IMAGE'>"
p193
sS'EM'
p194
S"<class 'gluon.html.EM'>"
p195
sS'CODE'
p196
S"<class 'gluon.html.CODE'>"
p197
sS'HTTP'
p198
S"<class 'gluon.http.HTTP'>"
p199
sS'locale'
p200
S"<module 'locale' from '/home/www-data/web2py/app...tions/obsas_dev/.pyenv/lib/python2.7/locale.pyc'>"
p201
sS'IS_DATETIME'
p202
S"<class 'gluon.validators.IS_DATETIME'>"
p203
sS'reduce'
p204
S'<built-in function reduce>'
p205
sS'STYLE'
p206
S"<class 'gluon.html.STYLE'>"
p207
sS'LABEL'
p208
S"<class 'gluon.html.LABEL'>"
p209
sS'CLEANUP'
p210
S"<class 'gluon.validators.CLEANUP'>"
p211
sS'departements_ids'
p212
S"{u'Ain': '001', u'Aisne': '002', u'Allier': '003', u'Alpes-Maritimes': '006', u'Alpes-de-Haute-Provence': '004', u'Ardennes': '008', u'Ard\\xe8che': '007', u'Ari\\xe8ge': '009', u'Aube': '010', u'Aude': '011', ...}"
p213
sS'svgcirco'
p214
S'<function svgcirco>'
p215
sS'plugins'
p216
S'<gluon.tools.PluginManager object>'
p217
sS'SELECT'
p218
S"<class 'gluon.html.SELECT'>"
p219
sS'CENTER'
p220
S"<class 'gluon.html.CENTER'>"
p221
sS'axes'
p222
S'{\'ages\': {\'elements\': \'G\', \'libelle\': "Classes d\'age", \'source\': {\'filtre\': {}, \'key\': \'classeage\', \'label\': \'classeage\', \'nom\': \'acteurs\'}, \'titre\': "Votes par classe d\'age", \'tri_defaut\': (\'alpha\', False), \'votes\': {\'field\': \'classeage\'}}, \'assemblee\': {\'elements\': \'G\', \'hidechart\': False, \'libelle\': \'Assembl\\xc3\\xa9e\', \'source\': {\'filtre\': {\'actif\': True, \'codeType\': \'ASSEMBLEE\'}, \'key\': \'libelleAbrev\', \'label\': \'libelle\', \'nom\': \'organes\'}, \'titre\': "Votes de l\'Assembl\\xc3\\xa9e", \'tri_defaut\': (\'alpha\', False), \'votes\': {\'field\': \'organes\'}}, \'commissions\': {\'elements\': \'G\', \'libelle\': \'Commissions\', \'source\': {\'filtre\': {\'$and\': [{\'$or\': [...]}, {\'actif\': True}]}, \'key\': \'uid\', \'label\': \'libelle\', \'nom\': \'organes\'}, \'titre\': \'Votes par Commissions\', \'tri_defaut\': (\'alpha\', False), \'votes\': {\'field\': \'commissions\'}}, \'csp\': {\'elements\': \'G\', \'libelle\': \'Cat\\xc3\\xa9gorie Socio-professionnelle\', \'source\': {\'filtre\': {}, \'key\': \'csp\', \'label\': \'csp\', \'nom\': \'acteurs\'}, \'titre\': \'Votes par Cat\\xc3\\xa9gorie Socio-professionnelle\', \'tri_defaut\': (\'alpha\', False), \'votes\': {\'field\': \'csp\'}}, \'departements\': {\'elements\': \'G\', \'libelle\': \'D\\xc3\\xa9partements\', \'source\': {\'filtre\': {}, \'key\': \'departement\', \'label\': \'departement\', \'nom\': \'acteurs\'}, \'titre\': \'Votes par D\\xc3\\xa9partements\', \'tri_defaut\': (\'alpha\', False), \'votes\': {\'field\': \'departement\'}}, \'depute\': {\'elements\': \'P\', \'libelle\': \'D\\xc3\\xa9put\\xc3\\xa9s\', \'source\': {\'filtre\': {}, \'key\': \'uid\', \'label\': \'prenomnom\', \'nom\': \'acteurs\'}, \'titre\': \'Votes par d\\xc3\\xa9put\\xc3\\xa9\', \'tri_defaut\': (\'alphanom\', False), \'votes\': {\'field\': \'uid\'}}, \'dossierleg\': {\'elements\': \'G\', \'libelle\': \'Dossier l\\xc3\\xa9gislatif\', \'source\': {\'filtre\': {}, \'key\': \'scrutin_dossier\', \'label\': \'scrutin_dossierLibelle\', \'nom\': \'scrutins\'}, \'titre\': \'Votes par dossier l\\xc3\\xa9gislatif\', \'tri_defaut\': (\'alpha\', False), \'votes\': {\'field\': \'scrutin_dossier\'}}, \'groupes\': {\'elements\': \'G\', \'hidechart\': False, \'libelle\': \'Groupes\', \'source\': {\'filtre\': {\'actif\': True, \'codeType\': \'GP\'}, \'key\': \'uid\', \'label\': \'libelle\', \'nom\': \'organes\'}, \'titre\': \'Votes par Groupe parlementaire\', \'tri_defaut\': (\'alpha\', False), \'votes\': {\'field\': \'groupe\'}}, \'regions\': {\'elements\': \'G\', \'libelle\': \'R\\xc3\\xa9gions\', \'source\': {\'filtre\': {}, \'key\': \'region\', \'label\': \'region\', \'nom\': \'acteurs\'}, \'titre\': \'Votes par R\\xc3\\xa9gions\', \'tri_defaut\': (\'alpha\', False), \'votes\': {\'field\': \'region\'}}, \'scrutin\': {\'elements\': \'G\', \'libelle\': \'Scrutins\', \'source\': {\'filtre\': {}, \'key\': \'scrutin_id\', \'label\': \'scrutin_fulldesc\', \'nom\': \'scrutins\'}, \'titre\': \'Votes par scrutin\', \'tri_defaut\': (\'datescrutin\', True), \'tris\': [\'datescrutin\'], \'votes\': {\'field\': \'scrutin_id\'}}, ...}'
p223
sS'Auth'
p224
S"<class 'gluon.tools.Auth'>"
p225
sS'DEVELOPMENT_MENU'
p226
g111
sS'__builtins__'
p227
S"{'ArithmeticError': <type 'exceptions.ArithmeticError'>, 'AssertionError': <type 'exceptions.AssertionError'>, 'AttributeError': <type 'exceptions.AttributeError'>, 'BaseException': <type 'exceptions.BaseException'>, 'BufferError': <type 'exceptions.BufferError'>, 'BytesWarning': <type 'exceptions.BytesWarning'>, 'DeprecationWarning': <type 'exceptions.DeprecationWarning'>, 'EOFError': <type 'exceptions.EOFError'>, 'Ellipsis': Ellipsis, 'EnvironmentError': <type 'exceptions.EnvironmentError'>, ...}"
p228
sS'HTML'
p229
S"<class 'gluon.html.HTML'>"
p230
sS'filtresitm_order'
p231
S"['participation', 'ficompat', 'emcompat']"
p232
sS'SQLFORM'
p233
S"<class 'gluon.sqlhtml.SQLFORM'>"
p234
sS'LOAD'
p235
S'<function LOAD>'
p236
sS'redirect'
p237
S'<function redirect>'
p238
sS'FIELDSET'
p239
S"<class 'gluon.html.FIELDSET'>"
p240
sS'embed64'
p241
S'<function embed64>'
p242
sS'IS_EQUAL_TO'
p243
S"<class 'gluon.validators.IS_EQUAL_TO'>"
p244
sS'sortfcts_order'
p245
S"['participation', 'pctpour', 'pctcontre', 'pctabs', 'alpha', 'ficompat', 'emcompat']"
p246
sS'filtresitm'
p247
S"{'emcompat': {'fct': <function <lambda>>, 'libelle': 'Taux de EM-compatibilit\\xc3\\xa9', 'max': 100, 'min': 0}, 'ficompat': {'fct': <function <lambda>>, 'libelle': 'Taux de FI-compatibilit\\xc3\\xa9', 'max': 100, 'min': 0}, 'participation': {'fct': <function <lambda>>, 'libelle': 'Taux de participation', 'max': 100, 'min': 0}}"
p248
sS'TinyURL'
p249
S'<class __restricted__.TinyURL>'
p250
sS'IS_LIST_OF'
p251
S"<class 'gluon.validators.IS_LIST_OF'>"
p252
sS'__name__'
p253
S"'__restricted__'"
p254
sS'EMBED'
p255
S"<class 'gluon.html.EMBED'>"
p256
sS'_'
S'<function _>'
p257
sS'deputes'
p258
S'[{u\'_id\': ObjectId(\'59af32496d8669a20452a287\'), u\'depute_actif\': True, u\'depute_age\': 37, u\'depute_autresmandats\': [u\'Membre du conseil d\\xe9partemental\\xa0(Ain)\'], u\'depute_bureau\': None, u\'depute_circo\': u\'5\', u\'depute_circo_id\': u\'001-05\', u\'depute_classeage\': u\'30-40 ans\', u\'depute_collaborateurs\': [u\'Mme M\\xe9lody Mock-Gruet\', u\'Mme Rebecca Fougnies\', u\'M. Antoine Vermorel\'], u\'depute_commissions\': [{u\'id\': u\'PO59046\', u\'lien\': u\'http://www2.assemblee-nationale.fr/instances/fiche/OMC_PO59046\', u\'nom\': u\'Commission de la d\\xe9fense nationale et des forces arm\\xe9es\', u\'qualite\': u\'Membre\'}, {u\'id\': u\'PO415287\', u\'lien\': u\'http://www2.assemblee-nationale.fr/instances/fiche/OMC_PO415287\', u\'nom\': u\'Commission des affaires europ\\xe9ennes\', u\'qualite\': u\'Membre\'}], ...}, {u\'_id\': ObjectId(\'59af32496d8669a20452a27e\'), u\'depute_actif\': True, u\'depute_age\': 41, u\'depute_autresmandats\': [], u\'depute_bureau\': None, u\'depute_circo\': u\'8\', u\'depute_circo_id\': u\'038-08\', u\'depute_classeage\': u\'40-50 ans\', u\'depute_collaborateurs\': [u\'Mme Florence David\', u\'Mme Salma El Ayyadi\'], u\'depute_commissions\': [{u\'id\': u\'PO59051\', u\'lien\': u\'http://www2.assemblee-nationale.fr/instances/fiche/OMC_PO59051\', u\'nom\': u"Commission des lois constitutionnelles, de la ...dministration g\\xe9n\\xe9rale de la R\\xe9publique", u\'qualite\': u\'Membre\'}], ...}, {u\'_id\': ObjectId(\'59af32496d8669a20452a361\'), u\'depute_actif\': True, u\'depute_age\': 40, u\'depute_autresmandats\': [u\'Membre du Conseil municipal de Chaumont\'], u\'depute_bureau\': None, u\'depute_circo\': u\'1\', u\'depute_circo_id\': u\'052-01\', u\'depute_classeage\': u\'40-50 ans\', u\'depute_collaborateurs\': [u\'  \', u\'  \', u\'  \', u\'  \', u\'  \'], u\'depute_commissions\': [{u\'id\': u\'PO419865\', u\'lien\': u\'http://www2.assemblee-nationale.fr/instances/fiche/OMC_PO419865\', u\'nom\': u"Commission du d\\xe9veloppement durable et de l\'am\\xe9nagement du territoire", u\'qualite\': u\'Membre\'}], ...}, {u\'_id\': ObjectId(\'59af32496d8669a20452a271\'), u\'depute_actif\': True, u\'depute_age\': 44, u\'depute_autresmandats\': [u"Conseiller ex\\xe9cutif\\xa0du Conseil ex\\xe9cutif de l\'Assembl\\xe9e de Corse", u\'Maire\\xa0de Lozzi, Haute-Corse\'], u\'depute_bureau\': None, u\'depute_circo\': u\'2\', u\'depute_circo_id\': u\'02B-02\', u\'depute_classeage\': u\'40-50 ans\', u\'depute_collaborateurs\': [u\'  \', u\'  \', u\'  \', u\'  \', u\'  \'], u\'depute_commissions\': [{u\'id\': u\'PO419604\', u\'lien\': u\'http://www2.assemblee-nationale.fr/instances/fiche/OMC_PO419604\', u\'nom\': u"Commission des affaires culturelles et de l\'\\xe9ducation", u\'qualite\': u\'Membre\'}], ...}, {u\'_id\': ObjectId(\'59af32496d8669a20452a2d6\'), u\'depute_actif\': True, u\'depute_age\': 25, u\'depute_autresmandats\': [u"Membre du de l\'Assembl\\xe9e de Guyane"], u\'depute_bureau\': u"Secr\\xe9taire de l\'Assembl\\xe9e nationale depuis le :  28/06/2017", u\'depute_circo\': u\'2\', u\'depute_circo_id\': u\'973-02\', u\'depute_classeage\': u\'20-30 ans\', u\'depute_collaborateurs\': [u\'  \', u\'  \', u\'  \', u\'  \', u\'  \'], u\'depute_commissions\': [{u\'id\': u\'PO419604\', u\'lien\': u\'http://www2.assemblee-nationale.fr/instances/fiche/OMC_PO419604\', u\'nom\': u"Commission des affaires culturelles et de l\'\\xe9ducation", u\'qualite\': u\'Membre\'}], ...}, {u\'_id\': ObjectId(\'59af324a6d8669a20452a3ec\'), u\'depute_actif\': True, u\'depute_age\': 28, u\'depute_autresmandats\': [], u\'depute_bureau\': None, u\'depute_circo\': u\'1\', u\'depute_circo_id\': u\'076-01\', u\'depute_classeage\': u\'20-30 ans\', u\'depute_collaborateurs\': [u\'Mme Aline Boucault\', u\'M. Jean-Pierre Heranval\', u\'M. Basile Rey\'], u\'depute_commissions\': [{u\'id\': u\'PO419610\', u\'lien\': u\'http://www2.assemblee-nationale.fr/instances/fiche/OMC_PO419610\', u\'nom\': u\'Commission des affaires \\xe9conomiques\', u\'qualite\': u\'Membre\'}], ...}, {u\'_id\': ObjectId(\'59af324a6d8669a20452a427\'), u\'depute_actif\': True, u\'depute_age\': 44, u\'depute_autresmandats\': [u\'Membre du Conseil municipal de Marseille 8\\xe8me secteur\'], u\'depute_bureau\': None, u\'depute_circo\': u\'7\', u\'depute_circo_id\': u\'013-07\', u\'depute_classeage\': u\'40-50 ans\', u\'depute_collaborateurs\': [u\'Mme Rachida Tir\', u\'M. Guillaume Jesberger\', u\'M. Alexis Gibellini\', u\'M. Ali Saidi\'], u\'depute_commissions\': [{u\'id\': u\'PO59048\', u\'lien\': u\'http://www2.assemblee-nationale.fr/instances/fiche/OMC_PO59048\', u\'nom\': u"Commission des finances, de l\'\\xe9conomie g\\xe9n\\xe9rale et du contr\\xf4le budg\\xe9taire", u\'qualite\': u\'Membre\'}], ...}, {u\'_id\': ObjectId(\'59af32496d8669a20452a247\'), u\'depute_actif\': True, u\'depute_age\': 59, u\'depute_autresmandats\': [u\'Membre du Conseil municipal de Besan\\xe7on\'], u\'depute_bureau\': None, u\'depute_circo\': u\'2\', u\'depute_circo_id\': u\'025-02\', u\'depute_classeage\': u\'50-60 ans\', u\'depute_collaborateurs\': [u\'Mme Coraline Tiranzoni\', u\'M. Guillaume Travaglini\', u\'M. Paul Schreiber\', u\'M. Herv\\xe9 Groult\'], u\'depute_commissions\': [{u\'id\': u\'PO59048\', u\'lien\': u\'http://www2.assemblee-nationale.fr/instances/fiche/OMC_PO59048\', u\'nom\': u"Commission des finances, de l\'\\xe9conomie g\\xe9n\\xe9rale et du contr\\xf4le budg\\xe9taire", u\'qualite\': u\'Membre\'}], ...}, {u\'_id\': ObjectId(\'59af32496d8669a20452a37e\'), u\'depute_actif\': True, u\'depute_age\': 56, u\'depute_autresmandats\': [u\'Membre du Conseil municipal de Pamandzi\'], u\'depute_bureau\': u"Secr\\xe9taire de l\'Assembl\\xe9e nationale depuis le :  28/06/2017", u\'depute_circo\': u\'1\', u\'depute_circo_id\': u\'976-01\', u\'depute_classeage\': u\'50-60 ans\', u\'depute_collaborateurs\': [u\'M. Edwin Legris\', u\'Mme Mariame Ridjali\'], u\'depute_commissions\': [{u\'id\': u\'PO419604\', u\'lien\': u\'http://www2.assemblee-nationale.fr/instances/fiche/OMC_PO419604\', u\'nom\': u"Commission des affaires culturelles et de l\'\\xe9ducation", u\'qualite\': u\'Membre\'}], ...}, {u\'_id\': ObjectId(\'59af32496d8669a20452a26c\'), u\'depute_actif\': True, u\'depute_age\': 48, u\'depute_autresmandats\': [u\'Membre du Conseil municipal de Perpignan\', u\'Membre\\xa0de Perpignan M\\xe9diterran\\xe9e M\\xe9tropole\'], u\'depute_bureau\': None, u\'depute_circo\': u\'2\', u\'depute_circo_id\': u\'066-02\', u\'depute_classeage\': u\'40-50 ans\', u\'depute_collaborateurs\': [u\'M. Jean-Fran\\xe7ois Lopez\', u\'Mme Rania Messiha\', u\'M. Alexandre Bolo\'], u\'depute_commissions\': [{u\'id\': u\'PO59046\', u\'lien\': u\'http://www2.assemblee-nationale.fr/instances/fiche/OMC_PO59046\', u\'nom\': u\'Commission de la d\\xe9fense nationale et des forces arm\\xe9es\', u\'qualite\': u\'Membre\'}], ...}, {u\'_id\': ObjectId(\'59af32496d8669a20452a2ec\'), u\'depute_actif\': True, u\'depute_age\': 37, u\'depute_autresmandats\': [], u\'depute_bureau\': None, u\'depute_circo\': u\'4\', u\'depute_circo_id\': u\'044-04\', u\'depute_classeage\': u\'30-40 ans\', u\'depute_collaborateurs\': [u\'M. Sylvain Gatt\', u\'M. Antoine Brandalac\'], u\'depute_commissions\': [{u\'id\': u\'PO419604\', u\'lien\': u\'http://www2.assemblee-nationale.fr/instances/fiche/OMC_PO419604\', u\'nom\': u"Commission des affaires culturelles et de l\'\\xe9ducation", u\'qualite\': u\'Membre\'}], ...}, {u\'_id\': ObjectId(\'59af32496d8669a20452a211\'), u\'depute_actif\': True, u\'depute_age\': 41, u\'depute_autresmandats\': [], u\'depute_bureau\': None, u\'depute_circo\': u\'3\', u\'depute_circo_id\': u\'093-03\', u\'depute_classeage\': u\'40-50 ans\', u\'depute_collaborateurs\': [u\'Mme Jennifer Richard\', u\'Mme Aminata Sissoko\'], u\'depute_commissions\': [{u\'id\': u\'PO419610\', u\'lien\': u\'http://www2.assemblee-nationale.fr/instances/fiche/OMC_PO419610\', u\'nom\': u\'Commission des affaires \\xe9conomiques\', u\'qualite\': u\'Membre\'}, {u\'id\': u\'PO415287\', u\'lien\': u\'http://www2.assemblee-nationale.fr/instances/fiche/OMC_PO415287\', u\'nom\': u\'Commission des affaires europ\\xe9ennes\', u\'qualite\': u\'Membre\'}], ...}, {u\'_id\': ObjectId(\'59af324a6d8669a20452a3e1\'), u\'depute_actif\': True, u\'depute_age\': 50, u\'depute_autresmandats\': [u\'Membre du conseil d\\xe9partemental\\xa0(Ille-et-Vilaine)\'], u\'depute_bureau\': None, u\'depute_circo\': u\'3\', u\'depute_circo_id\': u\'035-03\', u\'depute_classeage\': u\'50-60 ans\', u\'depute_collaborateurs\': [u\'M. Julien Cahu\', u\'M. Amaury Dubot\', u\'Mme Delphine Rolland\'], u\'depute_commissions\': [{u\'id\': u\'PO59046\', u\'lien\': u\'http://www2.assemblee-nationale.fr/instances/fiche/OMC_PO59046\', u\'nom\': u\'Commission de la d\\xe9fense nationale et des forces arm\\xe9es\', u\'qualite\': u\'Membre\'}], ...}, {u\'_id\': ObjectId(\'59af324a6d8669a20452a41c\'), u\'depute_actif\': True, u\'depute_age\': 30, u\'depute_autresmandats\': [], u\'depute_bureau\': None, u\'depute_circo\': u\'4\', u\'depute_circo_id\': u\'999-04\', u\'depute_classeage\': u\'30-40 ans\', u\'depute_collaborateurs\': [u\'M. Rapha\\xebl Dorgans\', u\'Mme Laurie THERON\'], u\'depute_commissions\': [{u\'id\': u\'PO59046\', u\'lien\': u\'http://www2.assemblee-nationale.fr/instances/fiche/OMC_PO59046\', u\'nom\': u\'Commission de la d\\xe9fense nationale et des forces arm\\xe9es\', u\'qualite\': u\'Membre\'}, {u\'id\': u\'PO415287\', u\'lien\': u\'http://www2.assemblee-nationale.fr/instances/fiche/OMC_PO415287\', u\'nom\': u\'Commission des affaires europ\\xe9ennes\', u\'qualite\': u\'Vice-Pr\\xe9sident\'}], ...}, {u\'_id\': ObjectId(\'59af32496d8669a20452a2d3\'), u\'depute_actif\': True, u\'depute_age\': 53, u\'depute_autresmandats\': [u\'Membre du conseil d\\xe9partemental\\xa0(Dr\\xf4me)\'], u\'depute_bureau\': None, u\'depute_circo\': u\'4\', u\'depute_circo_id\': u\'026-04\', u\'depute_classeage\': u\'50-60 ans\', u\'depute_collaborateurs\': [u\'  \', u\'  \', u\'  \', u\'  \', u\'  \'], u\'depute_commissions\': [{u\'id\': u\'PO419604\', u\'lien\': u\'http://www2.assemblee-nationale.fr/instances/fiche/OMC_PO419604\', u\'nom\': u"Commission des affaires culturelles et de l\'\\xe9ducation", u\'qualite\': u\'Membre\'}, {u\'id\': u\'PO271850\', u\'lien\': u\'http://www2.assemblee-nationale.fr/instances/fiche/OMC_PO271850\', u\'nom\': u"Commission charg\\xe9e de l\'application de l\'article 26 de la Constitution", u\'qualite\': u\'Membre suppl\\xe9ante\'}], ...}, {u\'_id\': ObjectId(\'59af32496d8669a20452a337\'), u\'depute_actif\': True, u\'depute_age\': 53, u\'depute_autresmandats\': [], u\'depute_bureau\': None, u\'depute_circo\': u\'3\', u\'depute_circo_id\': u\'017-03\', u\'depute_classeage\': u\'50-60 ans\', u\'depute_collaborateurs\': [u\'M. S\\xe9bastien MOULINAT-KERGOAT\', u\'M. \\xc9mile Lusignan\'], u\'depute_commissions\': [{u\'id\': u\'PO59046\', u\'lien\': u\'http://www2.assemblee-nationale.fr/instances/fiche/OMC_PO59046\', u\'nom\': u\'Commission de la d\\xe9fense nationale et des forces arm\\xe9es\', u\'qualite\': u\'Membre\'}], ...}, {u\'_id\': ObjectId(\'59af32496d8669a20452a275\'), u\'depute_actif\': True, u\'depute_age\': 42, u\'depute_autresmandats\': [u\'Membre du Conseil municipal de Petite-Rosselle\'], u\'depute_bureau\': None, u\'depute_circo\': u\'6\', u\'depute_circo_id\': u\'057-06\', u\'depute_classeage\': u\'40-50 ans\', u\'depute_collaborateurs\': [u\'Mme A\\xefda Epelbaum\', u\'M. Thomas Patti\'], u\'depute_commissions\': [{u\'id\': u\'PO419865\', u\'lien\': u\'http://www2.assemblee-nationale.fr/instances/fiche/OMC_PO419865\', u\'nom\': u"Commission du d\\xe9veloppement durable et de l\'am\\xe9nagement du territoire", u\'qualite\': u\'Membre\'}], ...}, {u\'_id\': ObjectId(\'59af32496d8669a20452a244\'), u\'depute_actif\': True, u\'depute_age\': 28, u\'depute_autresmandats\': [u\'Membre du Conseil municipal de Vanves\'], u\'depute_bureau\': None, u\'depute_circo\': u\'10\', u\'depute_circo_id\': u\'092-10\', u\'depute_classeage\': u\'20-30 ans\', u\'depute_collaborateurs\': [u\'Mme Tess Indycki\', u\'M. David Daoulas\'], u\'depute_commissions\': [{u\'id\': u\'PO419604\', u\'lien\': u\'http://www2.assemblee-nationale.fr/instances/fiche/OMC_PO419604\', u\'nom\': u"Commission des affaires culturelles et de l\'\\xe9ducation", u\'qualite\': u\'Membre\'}], ...}, {u\'_id\': ObjectId(\'59af32496d8669a20452a383\'), u\'depute_actif\': True, u\'depute_age\': 39, u\'depute_autresmandats\': [u"Membre du conseil r\\xe9gional\\xa0(Provence-Alpes-C\\xf4te d\'Azur)"], u\'depute_bureau\': None, u\'depute_circo\': u\'5\', u\'depute_circo_id\': u\'084-05\', u\'depute_classeage\': u\'30-40 ans\', u\'depute_collaborateurs\': [u\'M. Albert Tranchand\', u\'Mme Mireille Richard\', u\'M. L\\xe9onard Zerbib\'], u\'depute_commissions\': [{u\'id\': u\'PO59048\', u\'lien\': u\'http://www2.assemblee-nationale.fr/instances/fiche/OMC_PO59048\', u\'nom\': u"Commission des finances, de l\'\\xe9conomie g\\xe9n\\xe9rale et du contr\\xf4le budg\\xe9taire", u\'qualite\': u\'Membre\'}], ...}, {u\'_id\': ObjectId(\'59af324a6d8669a20452a40a\'), u\'depute_actif\': True, u\'depute_age\': 54, u\'depute_autresmandats\': [u\'Membre du Conseil municipal de Tours\', u\'Membre\\xa0de Tours M\\xe9tropole Val de Loire\'], u\'depute_bureau\': None, u\'depute_circo\': u\'3\', u\'depute_circo_id\': u\'037-03\', u\'depute_classeage\': u\'50-60 ans\', u\'depute_collaborateurs\': [u\'M. Romain Brutinaud\', u\'Mme Chlo\\xe9 Bouley\'], u\'depute_commissions\': [{u\'id\': u\'PO419865\', u\'lien\': u\'http://www2.assemblee-nationale.fr/instances/fiche/OMC_PO419865\', u\'nom\': u"Commission du d\\xe9veloppement durable et de l\'am\\xe9nagement du territoire", u\'qualite\': u\'Membre\'}, {u\'id\': u\'PO415287\', u\'lien\': u\'http://www2.assemblee-nationale.fr/instances/fiche/OMC_PO415287\', u\'nom\': u\'Commission des affaires europ\\xe9ennes\', u\'qualite\': u\'Secr\\xe9taire\'}], ...}, ...]'
p259
sS'myconf'
p260
S"{'forms': {'formstyle': 'bootstrap3_inline', 'se...': {'names': 'localhost:*, 127.0.0.1:*, *:*, *'}}"
p261
sS'H2'
p262
S"<class 'gluon.html.H2'>"
p263
sS'H3'
p264
S"<class 'gluon.html.H3'>"
p265
sS'AppConfig'
p266
S'<function AppConfig>'
p267
sS'H1'
p268
S"<class 'gluon.html.H1'>"
p269
sS'H6'
p270
S"<class 'gluon.html.H6'>"
p271
sS'appcache'
p272
S'<__restricted__.AppCache instance>'
p273
sS'H4'
p274
S"<class 'gluon.html.H4'>"
p275
sS'H5'
p276
S"<class 'gluon.html.H5'>"
p277
sS'UL'
p278
S"<class 'gluon.html.UL'>"
p279
sS'IS_UPPER'
p280
S"<class 'gluon.validators.IS_UPPER'>"
p281
sS'xmlescape'
p282
S'<function xmlescape>'
p283
sS'IS_TIME'
p284
S"<class 'gluon.validators.IS_TIME'>"
p285
sS'svggauge'
p286
S'<function svggauge>'
p287
sS'OPTION'
p288
S"<class 'gluon.html.OPTION'>"
p289
sS'TITLE'
p290
S"<class 'gluon.html.TITLE'>"
p291
sS'short_url'
p292
S"<module 'short_url' from '/home/www-data/web2py/.../python2.7/site-packages/short_url/__init__.pyc'>"
p293
sS'IS_EMPTY_OR'
p294
S"<class 'gluon.validators.IS_EMPTY_OR'>"
p295
sS'MARKMIN'
p296
S"<class 'gluon.html.MARKMIN'>"
p297
sS'INPUT'
p298
S"<class 'gluon.html.INPUT'>"
p299
sS'STRONG'
p300
S"<class 'gluon.html.STRONG'>"
p301
sS'COL'
p302
S"<class 'gluon.html.COL'>"
p303
sS'service'
p304
S'<gluon.tools.Service object>'
p305
sS'SCRIPT'
p306
S"<class 'gluon.html.SCRIPT'>"
p307
sS'top'
p308
S"{'classe': '', 'label': 'Nom', 'rank': 'N/A', 'unit': ''}"
p309
sS'next'
p310
g111
sS'mdb'
p311
S"Database(MongoClient(host=['localhost:27017'], d...s=dict, tz_aware=False, connect=True), u'obsass')"
p312
sS'TABLE'
p313
S"<class 'gluon.html.TABLE'>"
p314
sS'IS_IPV4'
p315
S"<class 'gluon.validators.IS_IPV4'>"
p316
sS'IS_LENGTH'
p317
S"<class 'gluon.validators.IS_LENGTH'>"
p318
sS'IS_IPV6'
p319
S"<class 'gluon.validators.IS_IPV6'>"
p320
sS'XML'
p321
S"<class 'gluon.html.XML'>"
p322
sS'B'
S"<class 'gluon.html.B'>"
p323
sS'IMG'
p324
S"<class 'gluon.html.IMG'>"
p325
sS'SQLTABLE'
p326
S"<class 'gluon.sqlhtml.SQLTABLE'>"
p327
sS'IS_MATCH'
p328
S"<class 'gluon.validators.IS_MATCH'>"
p329
sS'pymongo'
p330
S"<module 'pymongo' from '/home/www-data/web2py/ap...ib/python2.7/site-packages/pymongo/__init__.pyc'>"
p331
sS'IS_ALPHANUMERIC'
p332
S"<class 'gluon.validators.IS_ALPHANUMERIC'>"
p333
sS'tf'
p334
S'None'
p335
sS'getVoteData_fct'
p336
S'<function getVoteData_fct>'
p337
sS'axes_order'
p338
S"['assemblee', 'groupes', 'commissions', 'typeregion', 'regions', 'departements', 'ages', 'csp', 'sexe', 'depute', 'scrutin', 'typescrutin', 'dossierleg']"
p339
sS'hashlib'
p340
S"<module 'hashlib' from '/usr/lib/python2.7/hashlib.pyc'>"
p341
sS'SPAN'
p342
S"<class 'gluon.html.SPAN'>"
p343
sS'IS_JSON'
p344
S"<class 'gluon.validators.IS_JSON'>"
p345
sS'IS_IPADDRESS'
p346
S"<class 'gluon.validators.IS_IPADDRESS'>"
p347
sS'IS_SLUG'
p348
S"<class 'gluon.validators.IS_SLUG'>"
p349
sS'BEAUTIFY'
p350
S"<class 'gluon.html.BEAUTIFY'>"
p351
sS'META'
p352
S"<class 'gluon.html.META'>"
p353
sS'pickle'
p354
S"<module 'pickle' from '/usr/lib/python2.7/pickle.pyc'>"
p355
sS'BUTTON'
p356
S"<class 'gluon.html.BUTTON'>"
p357
sS'IS_DATE'
p358
S"<class 'gluon.validators.IS_DATE'>"
p359
sS'IS_EMAIL'
p360
S"<class 'gluon.validators.IS_EMAIL'>"
p361
sS'HR'
p362
S"<class 'gluon.html.HR'>"
p363
sS'xrange'
p364
S"<type 'xrange'>"
p365
sS'TBODY'
p366
S"<class 'gluon.html.TBODY'>"
p367
sS'CAT'
p368
S"<class 'gluon.html.CAT'>"
p369
sS'Field'
p370
S"<class 'pydal.objects.Field'>"
p371
sS'tinyurl'
p372
S'<__restricted__.TinyURL instance>'
p373
sS'IS_LIST_OF_EMAILS'
p374
S"<class 'gluon.validators.IS_LIST_OF_EMAILS'>"
p375
sg58
S"<Storage {'_vars': <Storage {}>, 'function': 'aj...r': '/home/www-data/web2py/applications/oadev/'}>"
p376
sS'DIV'
p377
S"<class 'gluon.html.DIV'>"
p378
sS'LEGEND'
p379
S"<class 'gluon.html.LEGEND'>"
p380
sS'sortfcts'
p381
S"{'alpha': {'fct': <function <lambda>>, 'libelle': 'Ordre Alphab\\xc3\\xa9tique'}, 'alphanom': {'fct': <function <lambda>>, 'libelle': 'Ordre Alphab\\xc3\\xa9tique (nom prenom)'}, 'datescrutin': {'fct': <function <lambda>>, 'libelle': 'par N\\xc2\\xb0 de scrutin'}, 'emcompat': {'fct': <function <lambda>>, 'libelle': 'EM-Compatibilit\\xc3\\xa9'}, 'ficompat': {'fct': <function <lambda>>, 'libelle': 'FI-Compatibilit\\xc3\\xa9'}, 'participation': {'fct': <function <lambda>>, 'libelle': 'Participation'}, 'pctabs': {'fct': <function <lambda>>, 'libelle': '% Votes abstention'}, 'pctcontre': {'fct': <function <lambda>>, 'libelle': '% Votes contre'}, 'pctpour': {'fct': <function <lambda>>, 'libelle': '% Votes pour'}}"
p382
sS'svgtop'
p383
S'<function svgtop>'
p384
sS'to_native'
p385
S'<function to_native>'
p386
sS'COLGROUP'
p387
S"<class 'gluon.html.COLGROUP'>"
p388
sS'DAL'
p389
S"<class 'pydal.base.DAL'>"
p390
sS'ASSIGNJS'
p391
S'<function ASSIGNJS>'
p392
sS'TR'
p393
S"<class 'gluon.html.TR'>"
p394
sS'LI'
p395
S"<class 'gluon.html.LI'>"
p396
sS'emphasize'
p397
S'<function emphasize>'
p398
sS'TH'
p399
S"<class 'gluon.html.TH'>"
p400
sS'TD'
p401
S"<class 'gluon.html.TD'>"
p402
sS'PluginManager'
p403
S"<class 'gluon.tools.PluginManager'>"
p404
sS'IS_URL'
p405
S"<class 'gluon.validators.IS_URL'>"
p406
sS'A'
S"<class 'gluon.html.A'>"
p407
sS'HEAD'
p408
S"<class 'gluon.html.HEAD'>"
p409
sS'IS_DATETIME_IN_RANGE'
p410
S"<class 'gluon.validators.IS_DATETIME_IN_RANGE'>"
p411
sS'FORM'
p412
S"<class 'gluon.html.FORM'>"
p413
sS'I'
S"<class 'gluon.html.I'>"
p414
sS'IS_NOT_IN_DB'
p415
S"<class 'gluon.validators.IS_NOT_IN_DB'>"
p416
sg103
S"<Storage {'body': <cStringIO.StringO object at 0...x7f39a8541f50>, 'view': 'deputes/ajax_top.html'}>"
p417
sS'THEAD'
p418
S"<class 'gluon.html.THEAD'>"
p419
sS'ANY_OF'
p420
S"<class 'gluon.validators.ANY_OF'>"
p421
sS'IS_NULL_OR'
p422
S"<class 'gluon.validators.IS_EMPTY_OR'>"
p423
sS'i'
S'0'
sS'IS_FLOAT_IN_RANGE'
p424
S"<class 'gluon.validators.IS_FLOAT_IN_RANGE'>"
p425
sS'IS_EXPR'
p426
S"<class 'gluon.validators.IS_EXPR'>"
p427
sS'T'
S'<gluon.languages.translator object>'
p428
sS'IS_IN_SET'
p429
S"<class 'gluon.validators.IS_IN_SET'>"
p430
sS'client'
p431
S"MongoClient(host=['localhost:27017'], document_class=dict, tz_aware=False, connect=True)"
p432
sS'IS_UPLOAD_FILENAME'
p433
S"<class 'gluon.validators.IS_UPLOAD_FILENAME'>"
p434
sS'getdot'
p435
S'<function getdot>'
p436
sS'TT'
p437
S"<class 'gluon.html.TT'>"
p438
sS'IS_DECIMAL_IN_RANGE'
p439
S"<class 'gluon.validators.IS_DECIMAL_IN_RANGE'>"
p440
sssS'traceback'
p441
S'Traceback (most recent call last):\n  File "/home/www-data/web2py/gluon/restricted.py", line 219, in restricted\n    exec(ccode, environment)\n  File "<string>", line 27, in <module>\nKeyError: \'N/A\'\n'
p442
s.