(dp1
S'output'
p2
S"<type 'exceptions.UnicodeDecodeError'> 'ascii' codec can't decode byte 0xc2 in position 9: ordinal not in range(128)"
p3
sS'layer'
p4
S'/home/www-data/web2py/applications/oadev/views/depute/index.html'
p5
sS'code'
p6
S'response.write(\'<!DOCTYPE html>\\n<html lang="fr">\\n<head>\\n    <meta charset="utf-8">\\n    <meta http-equiv="x-ua-compatible" content="ie=edge">\\n    <title>ObsAss</title>\\n    <meta name="description" content="">\\n    <meta name="viewport" content="width=device-width, initial-scale=1">\\n\\n    <link href="https://fonts.googleapis.com/css?family=Montserrat:400,600,700" rel="stylesheet">\\n    <link href="https://maxcdn.bootstrapcdn.com/font-awesome/4.7.0/css/font-awesome.min.css" rel="stylesheet">\\n    <link rel="stylesheet" href="\', escape=False)\nresponse.write(URL(\'static\',\'css/main.css\'))\nresponse.write(\'" rel="stylesheet">\\n</head>\\n<body>\\n    <nav id="main-nav" class="flex">\\n        <img src="\', escape=False)\nresponse.write(URL(\'static\',\'assets/logo.png\'))\nresponse.write(\'" alt="Observatoire Insoumis">\\n        <ul>\\n            <li>Programme Pr\\xc3\\xa9sidentiel</li>\\n            <li>Gouvernement</li>\\n            <li>Assembl\\xc3\\xa9e Nationale</li>\\n        </ul>\\n    </nav>\\n    <header id="header">\\n        Header super chouette sisi !\\n    </header>\\n    <nav id="sub-nav">\\n        <ul>\\n            <li><i class="fa fa-users" aria-hidden="true"></i> Groupes</li>\\n            <li><i class="fa fa-user-circle-o" aria-hidden="true"></i> D\\xc3\\xa9put\\xc3\\xa9s</li>\\n            <li><i class="fa fa-thumbs-up" aria-hidden="true"></i> Suivi FI</li>\\n        </ul>\\n    </nav>\\n    \', escape=False)\nresponse.write(\'\\n    <div id="depute-template" class="container">\\n        <div class="depute-header">\\n            <div class="depute-photo">\\n                <img src="http://www2.assemblee-nationale.fr/static/tribun/15/photos/\', escape=False)\nresponse.write(depute_uid[2:])\nresponse.write(\'.jpg"/>\\n            </div>\\n            <div class="depute-identite">\\n                <header>\\n                    <h2><span>\', escape=False)\nresponse.write("%s / %s / %se circ" % (depute_region,depute_departement,depute_circo))\nresponse.write(\'</span></h2>\\n                    <h1>\', escape=False)\nresponse.write(depute_nom)\nresponse.write(\'</h1>\\n                </header>\\n\\n                <div class="depute-contacts">\\n                    \', escape=False)\nfor contact in depute_contacts:\n    if (contact[\'type\']==u\'mail\'):\n        response.write(\'<a class="depute-contact" href="mailto:\', escape=False)\n        response.write(contact[\'lien\'])\n        response.write(\'"><i class="fa fa-envelope-o"></i></a>\\n                    \', escape=False)\n    elif (contact[\'type\']==\'twitter\'):\n        response.write(\'<a class="depute-contact" href="https://twitter.com/\', escape=False)\n        response.write(contact[\'lien\'][2:])\n        response.write(\'"><i class="fa fa-twitter"></i></a>\\n                    \', escape=False)\n    elif (contact[\'type\']==\'facebook\'):\n        response.write(\'<a class="depute-contact" href="https://fr-fr.facebook.com/\', escape=False)\n        response.write(contact[\'lien\'])\n        response.write(\'"><i class="fa fa-facebook-square"></i></a>\\n                    \', escape=False)\n    elif (contact[\'type\']==\'site\'):\n        response.write(\'<a class="depute-contact" href="http://\', escape=False)\n        response.write(contact[\'lien\'])\n        response.write(\'"><i class="fa fa-globe"></i></a>\\n                    \', escape=False)\n        pass\n    response.write(\'\\n                    \', escape=False)\n    pass\nresponse.write(\'\\n                </div>\\n\\n                <div class="depute-groupe \', escape=False)\nresponse.write(groupe_abrev)\nresponse.write(\'"><i class="fa fa-group"></i> <a href="\', escape=False)\nresponse.write(URL(\'groupe\',\'index\',args=[groupe_abrev]))\nresponse.write(\'">\', escape=False)\nresponse.write(groupe_libelle)\nresponse.write(\'</a></div>\\n                <div class="depute-infos"><span>\', escape=False)\nresponse.write("%s, %s" % (depute_profession, depute_naissance))\nresponse.write(\'</span></div>\\n                <div class="depute-infos"><span>Participation : \', escape=False)\nresponse.write("%s/%s" % (stats[\'ranks\'][\'exprimes\'] or \'-\', 577))\nresponse.write(\'</span><br /><span>Dissidence : \', escape=False)\nresponse.write("%s/%s" % (stats[\'ranks\'][\'dissidence\'] or \'-\', 577))\nresponse.write(\'</span></div>\\n                <div class="depute-infos"><span>Suppl\\xc3\\xa9ant : \', escape=False)\nresponse.write(depute_suppleant)\nresponse.write(\'</span></div>\\n            </div>\\n        </div>\\n\\n        <div class="tab-container">\\n            <header>\\n                <input id="tab1" type="radio" name="tabs" value="presentation">\\n                <label for="tab1"><i class="fa fa-id-card-o"></i><span>Pr\\xc3\\xa9sentation</span></label>\\n\\n                <input id="tab2" type="radio" name="tabs" value="interventions">\\n                <label for="tab2"><i class="fa fa-comment-o"></i><span>Interventions</span></label>\\n\\n                <input id="tab3" type="radio" name="tabs" value="votes" checked>\\n                <label for="tab3"><i class="fa fa-hand-paper-o"></i><span>Votes</span></label>\\n            </header>\\n\\n            <section id="presentation" class="tab-content"> <!-- Pr\\xc3\\xa9sentation -->\\n                <div class="depute-hemicycle">\\n                    <object id="hemicycle" data="\', escape=False)\nresponse.write(URL(\'static\',\'images/hemicyclelight.svg\'))\nresponse.write(\'" type="image/svg+xml"></object>\\n                    \', escape=False)\nresponse.write(svgcirco(depute_circo_id))\nresponse.write(\'\\n                </div>\\n                <div class="depute-fonctions">\\n                    <h2>Fonctions / Mandats</h2>\\n                    <ul class="fa-ul">\\n                        <li><i class="fa fa-li fa-arrow-circle-o-right"></i> Membre de l\\\'Assembl\\xc3\\xa9e \', escape=False)\nif \'depute_actif\':\n    response.write(\'depuis le \', escape=False)\n    response.write(depute_mandat_debut)\nelse:\n    response.write(\'du %s au %s\' % (depute_mandat_debut,depute_mandat_fin))\n    pass\nresponse.write(\'</li>\\n                        \', escape=False)\nif depute_bureau:\n    response.write(\'<li><i class="fa fa-li fa-arrow-circle-o-right"></i> \', escape=False)\n    response.write(depute_bureau)\n    response.write(\'</li>\', escape=False)\n    pass\nresponse.write(\'\\n                        \', escape=False)\nfor typ,mandats in depute_mandats.iteritems():\n    for m in mandats:\n        response.write(\'\\n                        <li>\\n                            <i class="fa fa-li fa-arrow-circle-o-right"></i> <a href="\', escape=False)\n        response.write(m[\'lien\'])\n        response.write(\'">\', escape=False)\n        response.write(m[\'nom\'])\n        response.write(\'</a> (\', escape=False)\n        response.write(m[\'qualite\'])\n        response.write(\')\\n                        </li>\\n                        \', escape=False)\n        pass\n    pass\nresponse.write(\'\\n                    </ul>\\n                    \', escape=False)\nif depute_autresmandats:\n    response.write(\'\\n                    <h2>Autres Mandats</h2>\\n                    <ul class="fa-ul">\\n                        \', escape=False)\n    for am in depute_autresmandats:\n        response.write(\'\\n                        <li>\\n                            <i class="fa fa-li fa-arrow-circle-o-right"></i> \', escape=False)\n        response.write(am)\n        response.write(\'\\n                        </li>\', escape=False)\n        pass\n    response.write(\'\\n                    </ul>\\n                    \', escape=False)\n    pass\nresponse.write(\'\\n                    \', escape=False)\nif depute_collaborateurs:\n    response.write(\'\\n                    <h2>Collaborateurs</h2>\\n                    <ul class="fa-ul">\\n                        \', escape=False)\n    for co in depute_collaborateurs:\n        response.write(\'\\n                        <li>\\n                            <i class="fa fa-li fa-arrow-circle-o-right"></i> \', escape=False)\n        response.write(co)\n        response.write(\'\\n                        </li>\', escape=False)\n        pass\n    response.write(\'\\n                    </ul>\\n                    \', escape=False)\n    pass\nresponse.write(\'\\n                </div>\\n                \', escape=False)\nif depute_deputywatch:\n    response.write(\'\\n                <div class="depute-watch">\\n                    <h2>Deputy Watch</h2>\\n                    <div class="flex">\\n                        <img src="\', escape=False)\n    response.write(URL(\'static\',\'assets/deputywatch.png\'))\n    response.write(\'" alt="Deputy Watch">\\n                        <div>\\n                            Le site Deputy Watch tente de recenser les ant\\xc3\\xa9c\\xc3\\xa9dents judiciaires de notori\\xc3\\xa9t\\xc3\\xa9 publique des \\xc3\\xa9lus.\\n                            Nous y avons cherch\\xc3\\xa9 ce d\\xc3\\xa9put\\xc3\\xa9 et il semblerait qu\\\'il y soit list\\xc3\\xa9.<br />\\n                            <a href="\', escape=False)\n    response.write(depute_deputywatch[\'url\'])\n    response.write(\'" target="_blank">\\n                                <i class="fa fa-arrow-circle-o-right"></i> Voir le r\\xc3\\xa9sultat\\n                            </a>\\n                        </div>\\n                    </div>\\n                </div>\\n                \', escape=False)\n    pass\nresponse.write(\'\\n                \', escape=False)\nif len(depute_hatvp)>0:\n    response.write(\'\\n                <div>\\n                    <h2>D\\xc3\\xa9claration \\xc3\\xa0 la HATVP</h2>\\n                    <ul class="fa-ul">\\n                        \', escape=False)\n    for dec in depute_hatvp:\n        response.write(\'\\n                        <li>\\n                            <a href="\', escape=False)\n        response.write(dec[\'docurl\'])\n        response.write(\'" target="_blank">\\n                                <i class="fa fa-li fa-file-text-o"></i>\\n                                \', escape=False)\n        response.write("%s - %s" % (dec[\'typedoc\'], dec[\'qualite\']))\n        response.write(\'\\n                            </a>\\n                        </li>\\n                        \', escape=False)\n        pass\n    response.write(\'\\n                    </ul>\\n                </div>\\n                \', escape=False)\n    pass\nresponse.write(\'\\n            </section>\\n\\n\\t\\t\\t<section id="interventions" class="tab-content"> <!-- Interventions -->\\n                <div class="depute-interventions-recap">\\n                    Nombre d\\\'interventions : <span>\', escape=False)\nresponse.write(stats[\'nbitvs\'])\nresponse.write(\'</span>, nombre de mots : <span>\', escape=False)\nresponse.write(stats[\'nbmots\'])\nresponse.write(\'</span>\\n                </div>\\n                <div class="depute-interventions-cloud">\\n                    <div>\\n                        <h2>Ses mots</h2>\\n                        <div id="sourrounding_div_noms" class="cloud">\\n                            <canvas id="wordcanvas_noms"></canvas>\\n                        </div>\\n                    </div>\\n                    <div>\\n                        <h2>Ses verbes</h2>\\n                        <div id="sourrounding_div_verbes" class="cloud">\\n                            <canvas id="wordcanvas_verbes"></canvas>\\n                        </div>\\n                    </div>\\n                </div>\\n                <div id="itvlist">\\n                    <h2>Ses interventions</h2>\\n                    <div class="depute-interventions-search">\\n                        <label for="search"><i class="fa fa-search" aria-hidden="true"></i></label>\\n                        <input class="search" placeholder="Rechercher une intervention">\\n                    </div>\\n                    <ul class="fa-ul">\\n                        \', escape=False)\nfor iv in itvs:\n    response.write(\'\\n                        <li>\\n                            <i class="fa fa-list fa-comment"></i>\\n                            <a href="\', escape=False)\n    response.write(iv[\'itv_url\'])\n    response.write(\'" target="_blank">\\n                                <h3>\', escape=False)\n    response.write(\' / \'.join(iv[\'itv_ctx\']))\n    response.write(\'</h3>\\n                            </a>\\n                            <blockquote>\', escape=False)\n    response.write(XML(iv[\'itv_contenu\']))\n    response.write(\'</blockquote>\\n                        </li>\', escape=False)\n    pass\nresponse.write(\'\\n                    </ul>\\n                </div>\\n\\t\\t\\t</section>\\n\\n\\t\\t\\t<section id="votes" class="tab-content"> <!-- Votes -->\\n\\t\\t\\t\\t<div class="depute-votes-recap">\\n                    <div class="gauge">\\n                        <h2>Participation</h2>\\n                        \', escape=False)\nresponse.write(svggauge(\'vote\',stats[\'positions\'][\'exprimes\']))\nresponse.write(\'\\n                    </div>\\n                    <div class="gauge">\\n                        <h2>Contre son groupe</h2>\\n                        \', escape=False)\nresponse.write(svggauge(\'diss\',stats[\'positions\'][\'dissidence\']))\nresponse.write(\'\\n                    </div>\\n                    <div class="gauge">\\n                        <h2>FI-Compatibilit\\xc3\\xa9</h2>\\n                        \', escape=False)\nresponse.write(svggauge(\'compfi\',stats[\'compat\'][\'FI\']))\nresponse.write(\'\\n                    </div>\\n                    <div class="gauge">\\n                        <h2>EM-Compatibilit\\xc3\\xa9</h2>\\n                        \', escape=False)\nresponse.write(svggauge(\'compem\',stats[\'compat\'][\'REM\']))\nresponse.write(\'\\n                    </div>\\n                </div>\\n                <div class="depute-votes-calendar">\\n                    <h2>Calendrier des votes</h2>\\n                    <div id="calendar"></div>\\n                </div>\\n\\n                <div class="depute-votes-list">\\n                    <h2>Ses votes</h2>\\n                    <div class="depute-votes-search">\\n                        <label for="search"><i class="fa fa-search" aria-hidden="true"></i></label>\\n                        <input class="search" placeholder="Rechercher un vote">\\n                    </div>\\n                    <ul>\\n                        \', escape=False)\nfor v in votes:\n    response.write(\'\\n                        <li>\\n                            <div class="ico \', escape=False)\n    response.write(v[\'vote_position\'])\n    response.write(\'">\\n                                <i class="fa fa-book"></i>\\n                            </div>\\n                            <div>\\n                                <header>\\n                                    <div>\\n                                        <h3><span>\', escape=False)\n    response.write(v[\'scrutin_dossierLibelle\'])\n    response.write(\' - \', escape=False)\n    response.write(v[\'scrutin_typedetail\'])\n    response.write(\'</span></h3>\\n                                        <a href="\', escape=False)\n    response.write(URL(\'scrutin\',\'index\',args=[v[\'scrutin_id\']]))\n    response.write(\'">\', escape=False)\n    response.write("Scrutin n\xc2\xb0%d du %s (%s)" % (v[\'scrutin_num\'],v[\'scrutin_date\'],v[\'scrutin_sort\']))\n    response.write(\'</a>\\n                                    </div>\\n                                    <div class="vote \', escape=False)\n    response.write(v[\'vote_position\'])\n    response.write(\'"><i class="fa fa-microphone-slash"></i> \', escape=False)\n    response.write(v[\'vote_position\'][0].upper()+v[\'vote_position\'][1:])\n    response.write(\'</div>\\n                                </header>\\n                                <p><i class="fa fa-arrow-circle-o-right"></i> \', escape=False)\n    response.write(v[\'scrutin_desc\'])\n    response.write(\'</p>\\n                            </div>\\n                        </li>\\n                        \', escape=False)\n    pass\nresponse.write(\'\\n                        <li>\\n                            <div class="ico abstention">\\n                                <i class="fa fa-book"></i>\\n                            </div>\\n                            <div>\\n                                <header>\\n                                    <div>\\n                                        <h3><span>Pouvoirs publics : confiance dans l&#x27;action publique - Loi propos\\xc3\\xa9e par LREM</span></h3>\\n                                        <a href="/obsas_dev/fiches/scrutin?id=15_119">Scrutin n\\xc2\\xb0119 du 09/08/2017 (adopt\\xc3\\xa9)</a>\\n                                    </div>\\n                                    <div class="vote abstention"><i class="fa fa-microphone-slash"></i> Abstention</div>\\n                                </header>\\n                                <p><i class="fa fa-arrow-circle-o-right"></i> l&#x27;ensemble du projet de loi organique pour la confiance dans la vie politique (lecture d\\xc3\\xa9finitive).</p>\\n                            </div>\\n                        </li>\\n                        <li>\\n                            <div class="ico contre">\\n                                <i class="fa fa-pencil-square"></i>\\n                            </div>\\n                            <div>\\n                                <header>\\n                                    <div>\\n                                        <h3><span>Pouvoirs publics : confiance dans l&#x27;action publique - Amendement propos\\xc3\\xa9 par LFI</span></h3>\\n                                        <a href="/obsas_dev/fiches/scrutin?id=15_118">Scrutin n\\xc2\\xb0118 du 09/08/2017 (rejet\\xc3\\xa9)</a>\\n                                    </div>\\n                                    <div class="vote contre"><i class="fa fa-thumbs-down"></i> Contre</div>\\n                                </header>\\n                                <p><i class="fa fa-arrow-circle-o-right"></i> l&#x27;amendement n\\xc2\\xb0 1 de M. Saddier et les amendements identiques suivants au projet de loi organique pour la confiance dans la vie politique (lecture d\\xc3\\xa9finitive).</p>\\n                            </div>\\n                        </li>\\n                        <li>\\n                            <div class="ico pour">\\n                                <i class="fa fa-file"></i>\\n                            </div>\\n                            <div>\\n                                <header>\\n                                    <div>\\n                                        <h3><span>Pouvoirs publics : confiance dans l&#x27;action publique - Loi propos\\xc3\\xa9e par LR</span></h3>\\n                                        <a href="/obsas_dev/fiches/scrutin?id=15_117">Scrutin n\\xc2\\xb0117 du 03/08/2017 (adopt\\xc3\\xa9)</a>\\n                                    </div>\\n                                    <div class="vote pour"><i class="fa fa-thumbs-up"></i> Pour</div>\\n                                </header>\\n                                <p><i class="fa fa-arrow-circle-o-right"></i> l&#x27;ensemble du projet de loi organique pour la confiance dans la vie politique (nouvelle lecture).</p>\\n                            </div>\\n                        </li>\\n                        <li>\\n                            <div class="ico absent">\\n                                <i class="fa fa-undo"></i>\\n                            </div>\\n                            <div>\\n                                <header>\\n                                    <div>\\n                                        <h3><span>Pouvoirs publics : confiance dans l&#x27;action publique - Motion propos\\xc3\\xa9e par le PCF</span></h3>\\n                                        <a href="/obsas_dev/fiches/scrutin?id=15_116">Scrutin n\\xc2\\xb0116 du 03/08/2017 (rejet\\xc3\\xa9)</a>\\n                                    </div>\\n                                    <div class="vote absent"><i class="fa fa-question"></i> Absent</div>\\n                                </header>\\n                                <p><i class="fa fa-arrow-circle-o-right"></i> l&#x27;amendement n\\xc2\\xb0 59 de Mme Batho \\xc3\\xa0 l&#x27;article 12 du projet de loi organique pour la confiance dans la vie politique (nouvelle lecture).</p>\\n                            </div>\\n                        </li>\\n                        <li>\\n                            <div class="ico absent">\\n                                <i class="fa fa-microphone"></i>\\n                            </div>\\n                            <div>\\n                                <header>\\n                                    <div>\\n                                        <h3><span>Pouvoirs publics : confiance dans l&#x27;action publique - D\\xc3\\xa9claration</span></h3>\\n                                        <a href="/obsas_dev/fiches/scrutin?id=15_116">Scrutin n\\xc2\\xb0116 du 03/08/2017 (rejet\\xc3\\xa9)</a>\\n                                    </div>\\n                                    <div class="vote absent"><i class="fa fa-question"></i> Absent</div>\\n                                </header>\\n                                <p><i class="fa fa-arrow-circle-o-right"></i> l&#x27;amendement n\\xc2\\xb0 59 de Mme Batho \\xc3\\xa0 l&#x27;article 12 du projet de loi organique pour la confiance dans la vie politique (nouvelle lecture).</p>\\n                            </div>\\n                        </li>\\n                        <li>\\n                            <div class="ico absent">\\n                                <i class="fa fa-undo"></i>\\n                            </div>\\n                            <div>\\n                                <header>\\n                                    <div>\\n                                        <h3><span>Pouvoirs publics : confiance dans l&#x27;action publique - Motion propos\\xc3\\xa9e par le MODEM</span></h3>\\n                                        <a href="/obsas_dev/fiches/scrutin?id=15_116">Scrutin n\\xc2\\xb0116 du 03/08/2017 (rejet\\xc3\\xa9)</a>\\n                                    </div>\\n                                    <div class="vote absent"><i class="fa fa-question"></i> Absent</div>\\n                                </header>\\n                                <p><i class="fa fa-arrow-circle-o-right"></i> l&#x27;amendement n\\xc2\\xb0 59 de Mme Batho \\xc3\\xa0 l&#x27;article 12 du projet de loi organique pour la confiance dans la vie politique (nouvelle lecture).</p>\\n                            </div>\\n                        </li>\\n                        <li>\\n                            <div class="ico absent">\\n                                <i class="fa fa-undo"></i>\\n                            </div>\\n                            <div>\\n                                <header>\\n                                    <div>\\n                                        <h3><span>Pouvoirs publics : confiance dans l&#x27;action publique - Motion propos\\xc3\\xa9e par le PS</span></h3>\\n                                        <a href="/obsas_dev/fiches/scrutin?id=15_116">Scrutin n\\xc2\\xb0116 du 03/08/2017 (rejet\\xc3\\xa9)</a>\\n                                    </div>\\n                                    <div class="vote absent"><i class="fa fa-question"></i> Absent</div>\\n                                </header>\\n                                <p><i class="fa fa-arrow-circle-o-right"></i> l&#x27;amendement n\\xc2\\xb0 59 de Mme Batho \\xc3\\xa0 l&#x27;article 12 du projet de loi organique pour la confiance dans la vie politique (nouvelle lecture).</p>\\n                            </div>\\n                        </li>\\n                    </ul>\\n                </div>\\n            </section>\\n        </div>\\n    </div>\\n\', escape=False)\nresponse.write(\'\\n    \', escape=False)\nresponse.write(\'\\n  <script src="https://cdnjs.cloudflare.com/ajax/libs/jquery/3.2.1/jquery.min.js"></script>\\n  <script src="\', escape=False)\nresponse.write(URL(\'static\',\'js/wordcloud2.js\'))\nresponse.write(\'"></script>\\n  <script src="https://d3js.org/d3.v4.min.js"></script>\\n  <script>\\n    $(document).ready(function() {\\n        var visible = $(\\\'.tab-container input:checked\\\').val();\\n        $(\\\'#\\\' + visible).addClass(\\\'visible\\\');\\n\\n        $(\\\'.tab-container input\\\').change(function(e) {\\n            $(\\\'.tab-content\\\').removeClass(\\\'visible\\\');\\n            $(\\\'#\\\' + e.target.value).addClass(\\\'visible\\\');\\n        });\\n        /* position hemicycle */\\n        var svg = document.getElementById(\\\'hemicycle\\\');\\n        svg.addEventListener(\\\'load\\\', function () {\\n          //var svg = document.getElementById(\\\'hemicycle\\\');\\n          var svgDoc = svg.contentDocument;\\n          $.each(svgDoc.getElementsByTagName(\\\'a\\\'), function() {\\n              $(this).attr(\\\'href\\\',"depute/index/"+$(this).attr(\\\'href\\\'));\\n          });\\n          var styleElement = svgDoc.createElementNS("http://www.w3.org/2000/svg", "style");\\n          styleElement.textContent = "#p\', escape=False)\nresponse.write(depute_place)\nresponse.write(\' { fill:  black; stroke-width:5px; stroke: black;}"; // add whatever you need here\\n          svgDoc.getElementById(\\\'defs\\\').appendChild(styleElement);\\n\\n        });\\n        // Nuages\\n        \', escape=False)\nimport json\nresponse.write(\'\\n        var wordlist = {};\\n        \', escape=False)\nif depute_nuages:\n    response.write(\'\\n        \', escape=False)\n    for lex in depute_nuages.keys():\n        response.write("\\n           wordlist[\'", escape=False)\n        response.write(lex)\n        response.write("\'] = JSON.parse(\'", escape=False)\n        response.write(XML(json.dumps(depute_nuages[lex])))\n        response.write("\');\\n        ", escape=False)\n        pass\n    response.write(\'\\n        \', escape=False)\n    pass\nresponse.write(\'\\n        \\n\\n        function showNuage(lex) {\\n            if (lex==\\\'verbatim\\\') {\\n                return\\n            }\\n            var div = document.getElementById("sourrounding_div_"+lex);\\n            var canvas = document.getElementById("wordcanvas_"+lex);\\n\\n            canvas.height = div.offsetHeight;\\n            canvas.width  = div.offsetWidth;\\n\\n            WordCloud(document.getElementById(\\\'wordcanvas_\\\'+lex), {\\n                gridSize: Math.round(16 * document.getElementById(\\\'wordcanvas_\\\'+lex).offsetWidth / 1024),\\n                weightFactor: function (size) {\\n                    return 0.3*size;\\n                },\\n                list: wordlist[lex],\\n                color: function(word, weight) {\\n                    if (weight < 50) {\\n                        return \\\'#82cde2\\\';\\n                    } else if (weight < 130) {\\n                        return \\\'#213558\\\';\\n                    }\\n                    return \\\'#ff0052\\\';\\n                },\\n                backgroundColor: \\\'transparent\\\'\\n            });\\n        }\\n\\n        function drawNuages() {\\n            showNuage(\\\'noms\\\');\\n            showNuage(\\\'verbes\\\');\\n        }\\n\\n        // Calendrier\\n        function genCalendar() {\\n            var width = document.getElementById(\\\'calendar\\\').offsetWidth+20,\\n                yearHeight = width / 7,\\n                height = yearHeight,\\n                cellSize = yearHeight / 8;\\n\\n            var percent = d3.format(".1%"),\\n                format = d3.timeFormat("%Y-%m-%d");\\n\\n            var color = d3.scaleQuantize()\\n                .domain([.0, 1.0])\\n                .range(d3.range(5).map(function(d) { return "q" + d + "-5"; }));\\n\\n            var svgcal = d3.select("#calendar").selectAll("svg")\\n                .data(d3.range(2017, 2018))\\n              .enter().append("svg")\\n                .attr("width", width)\\n                .attr("height", height+20)\\n                .attr("class", "RdYlGn")\\n              .append("g")\\n                .attr("transform", "translate(" + ((width - cellSize * 53) / 2) + "," + (20+height - cellSize * 7 - 1) + ")");\\n\\n            svgcal.append("text")\\n                .attr("transform", "translate(-6," + cellSize * 3.5 + ")rotate(-90)")\\n                .style("text-anchor", "middle")\\n                .text(function(d) { return d; });\\n\\n            var rect = svgcal.selectAll(".day")\\n                .data(function(d) { return d3.timeDays(new Date(d, 0, 1), new Date(d + 1, 0, 1)); })\\n              .enter().append("rect")\\n                .attr("class", "day")\\n                .attr("width", cellSize)\\n                .attr("height", cellSize)\\n                .attr("x", function(d) { return d3.timeMonday.count(d3.timeYear(d), d) * cellSize; })\\n                .attr("y", function(d) { return ((d.getDay()+6)%7) * cellSize; })\\n                .datum(format);\\n\\n            rect.append("title")\\n                .text(function(d) { return d; });\\n\\n            svgcal.selectAll(".month")\\n                .data(function(d) { return d3.timeMonths(new Date(d, 0, 1), new Date(d + 1, 0, 1)); })\\n              .enter().append("text").text(monthLabel).style("font-size:10px;", "middle").attr("transform",monthLabelTransform);\\n            function monthLabel(t0) {\\n                return Array(\\\'JAN\\\',\\\'FEV\\\',\\\'MAR\\\',\\\'AVR\\\',\\\'MAI\\\',\\\'JUN\\\',\\\'JUI\\\',\\\'AOU\\\',\\\'SEP\\\',\\\'OCT\\\',\\\'NOV\\\',\\\'DEC\\\')[t0.getMonth()];\\n            }\\n            function monthLabelTransform(t0) {\\n              var t1 = new Date(t0.getFullYear(), t0.getMonth() + 1, 0),\\n                  d0 = ((t0.getDay()+6)%7), w0 = d3.timeMonday.count(d3.timeYear(t0), t0)\\n                  d1 = ((t1.getDay()+6)%7), w1 = d3.timeMonday.count(d3.timeYear(t1), t1);\\n              return "translate("+(2+w0)*cellSize+",-5)";\\n            }\\n\\n            svgcal.selectAll(".month")\\n                .data(function(d) { return d3.timeMonths(new Date(d, 0, 1), new Date(d + 1, 0, 1)); })\\n              .enter().append("path")\\n                .attr("class", "month")\\n                .attr("d", monthPath);\\n\\n\\n            var csv = JSON.parse(\\\'[{"date": "2017-07-04", "pct": 1.0}, {"date": "2017-07-06", "pct": 0.0}, {"date": "2017-07-10", "pct": 1.0}, {"date": "2017-07-11", "pct": 0.9411764705882353}, {"date": "2017-07-12", "pct": 0.6666666666666666}, {"date": "2017-07-13", "pct": 0.8333333333333334}, {"date": "2017-07-18", "pct": 0.5}, {"date": "2017-07-19", "pct": 0.0}, {"date": "2017-07-24", "pct": 1.0}, {"date": "2017-07-25", "pct": 0.23076923076923078}, {"date": "2017-07-26", "pct": 0.0}, {"date": "2017-07-27", "pct": 0.375}, {"date": "2017-07-28", "pct": 0.6}, {"date": "2017-08-01", "pct": 1.0}, {"date": "2017-08-03", "pct": 0.5454545454545454}, {"date": "2017-08-09", "pct": 1.0}]\\\');\\n            var data = d3.nest()\\n                .key(function(d) { return d.date; })\\n                .rollup(function(d) { return d[0].pct; })\\n                .map(csv);\\n\\n              rect.filter(function(d) { return data.has(d); })\\n                  .attr("class", function(d) { return "day " + color(data.get(d)); })\\n                .select("title")\\n                  .text(function(d) { return d + ": " + percent(data.get(d)); });\\n\\n            function monthPath(t0) {\\n              var t1 = new Date(t0.getFullYear(), t0.getMonth() + 1, 0),\\n                  d0 = ((t0.getDay()+6)%7), w0 = d3.timeMonday.count(d3.timeYear(t0), t0)\\n                  d1 = ((t1.getDay()+6)%7), w1 = d3.timeMonday.count(d3.timeYear(t1), t1);\\n              return "M" + (w0 + 1) * cellSize + "," + d0 * cellSize\\n                  + "H" + w0 * cellSize + "V" + 7 * cellSize\\n                  + "H" + w1 * cellSize + "V" + (d1 + 1) * cellSize\\n                  + "H" + (w1 + 1) * cellSize + "V" + 0\\n                  + "H" + (w0 + 1) * cellSize + "Z";\\n            }\\n        }\\n\\n        drawNuages();\\n        genCalendar();\\n        var resizeDebounce;\\n        $(window).resize(function() {\\n            clearTimeout(resizeDebounce);\\n            resizeDebounce = setTimeout(function() {\\n                window.requestAnimationFrame(function() {\\n                    drawNuages();\\n                    $(\\\'#calendar svg\\\').remove();\\n                    genCalendar();\\n                });\\n            }, 100);\\n        });\\n    });\\n    </script>\\n\', escape=False)\nresponse.write(\'\\n</body>\\n</html>\\n\', escape=False)'
p7
sS'snapshot'
p8
(dp9
S'exception'
p10
(dp11
S'__getslice__'
p12
S"<method-wrapper '__getslice__' of exceptions.UnicodeDecodeError object>"
p13
sS'encoding'
p14
S"'ascii'"
p15
sS'__str__'
p16
S"<method-wrapper '__str__' of exceptions.UnicodeDecodeError object>"
p17
sS'__reduce__'
p18
S'<built-in method __reduce__ of exceptions.UnicodeDecodeError object>'
p19
sS'__dict__'
p20
S'{}'
p21
sS'__sizeof__'
p22
S'<built-in method __sizeof__ of exceptions.UnicodeDecodeError object>'
p23
sS'message'
p24
S"''"
p25
sS'__init__'
p26
S"<method-wrapper '__init__' of exceptions.UnicodeDecodeError object>"
p27
sS'__setattr__'
p28
S"<method-wrapper '__setattr__' of exceptions.UnicodeDecodeError object>"
p29
sS'__reduce_ex__'
p30
S'<built-in method __reduce_ex__ of exceptions.UnicodeDecodeError object>'
p31
sS'end'
p32
S'10'
p33
sS'__new__'
p34
S'<built-in method __new__ of type object>'
p35
sS'__format__'
p36
S'<built-in method __format__ of exceptions.UnicodeDecodeError object>'
p37
sS'__class__'
p38
S"<type 'exceptions.UnicodeDecodeError'>"
p39
sS'start'
p40
S'9'
sS'__doc__'
p41
S"'Unicode decoding error.'"
p42
sS'object'
p43
S"'Scrutin n\\xc2\\xb037 du '"
p44
sS'__getitem__'
p45
S"<method-wrapper '__getitem__' of exceptions.UnicodeDecodeError object>"
p46
sS'__setstate__'
p47
S'<built-in method __setstate__ of exceptions.UnicodeDecodeError object>'
p48
sS'__getattribute__'
p49
S"<method-wrapper '__getattribute__' of exceptions.UnicodeDecodeError object>"
p50
sS'args'
p51
S"('ascii', 'Scrutin n\\xc2\\xb037 du ', 9, 10, 'ordinal not in range(128)')"
p52
sS'reason'
p53
S"'ordinal not in range(128)'"
p54
sS'__subclasshook__'
p55
S'<built-in method __subclasshook__ of type object>'
p56
sS'__unicode__'
p57
S'<built-in method __unicode__ of exceptions.UnicodeDecodeError object>'
p58
sS'__delattr__'
p59
S"<method-wrapper '__delattr__' of exceptions.UnicodeDecodeError object>"
p60
sS'__repr__'
p61
S"<method-wrapper '__repr__' of exceptions.UnicodeDecodeError object>"
p62
sS'__hash__'
p63
S"<method-wrapper '__hash__' of exceptions.UnicodeDecodeError object>"
p64
ssS'evalue'
p65
S"'ascii' codec can't decode byte 0xc2 in position 9: ordinal not in range(128)"
p66
sS'request'
p67
cgluon.html
XML_unpickle
p68
(S'sx{\x00\x00<div><table><tr><td style="font-weight:bold;vertical-align:top;">ajax</td><td style="vertical-align:top;">:</td><td><div>False</div></td></tr><tr><td style="font-weight:bold;vertical-align:top;">application</td><td style="vertical-align:top;">:</td><td><div>oadev</div></td></tr><tr><td style="font-weight:bold;vertical-align:top;">args</td><td style="vertical-align:top;">:</td><td><div><table><tr><td><div>jeanlucmelenchon</div></td></tr></table></div></td></tr><tr><td style="font-weight:bold;vertical-align:top;">cid</td><td style="vertical-align:top;">:</td><td><div>None</div></td></tr><tr><td style="font-weight:bold;vertical-align:top;">client</td><td style="vertical-align:top;">:</td><td><div>83.203.181.3</div></td></tr><tr><td style="font-weight:bold;vertical-align:top;">controller</td><td style="vertical-align:top;">:</td><td><div>depute</div></td></tr><tr><td style="font-weight:bold;vertical-align:top;">cookies</td><td style="vertical-align:top;">:</td><td><div><table><tr><td style="font-weight:bold;vertical-align:top;">session_id_admin</td><td style="vertical-align:top;">:</td><td><div>83.203.170.106-62f39627-f7d7-4927-a80b-f6a1100be47c<table><tr><td style="font-weight:bold;vertical-align:top;">comment</td><td style="vertical-align:top;">:</td><td><div></div></td></tr><tr><td style="font-weight:bold;vertical-align:top;">domain</td><td style="vertical-align:top;">:</td><td><div></div></td></tr><tr><td style="font-weight:bold;vertical-align:top;">expires</td><td style="vertical-align:top;">:</td><td><div></div></td></tr><tr><td style="font-weight:bold;vertical-align:top;">httponly</td><td style="vertical-align:top;">:</td><td><div></div></td></tr><tr><td style="font-weight:bold;vertical-align:top;">max-age</td><td style="vertical-align:top;">:</td><td><div></div></td></tr><tr><td style="font-weight:bold;vertical-align:top;">path</td><td style="vertical-align:top;">:</td><td><div></div></td></tr><tr><td style="font-weight:bold;vertical-align:top;">secure</td><td style="vertical-align:top;">:</td><td><div></div></td></tr><tr><td style="font-weight:bold;vertical-align:top;">version</td><td style="vertical-align:top;">:</td><td><div></div></td></tr></table></div></td></tr><tr><td style="font-weight:bold;vertical-align:top;">session_id_oadev</td><td style="vertical-align:top;">:</td><td><div>83.203.181.3-24ebb75c-a12c-4e5a-ae21-343bc5a26f54<table><tr><td style="font-weight:bold;vertical-align:top;">comment</td><td style="vertical-align:top;">:</td><td><div></div></td></tr><tr><td style="font-weight:bold;vertical-align:top;">domain</td><td style="vertical-align:top;">:</td><td><div></div></td></tr><tr><td style="font-weight:bold;vertical-align:top;">expires</td><td style="vertical-align:top;">:</td><td><div></div></td></tr><tr><td style="font-weight:bold;vertical-align:top;">httponly</td><td style="vertical-align:top;">:</td><td><div></div></td></tr><tr><td style="font-weight:bold;vertical-align:top;">max-age</td><td style="vertical-align:top;">:</td><td><div></div></td></tr><tr><td style="font-weight:bold;vertical-align:top;">path</td><td style="vertical-align:top;">:</td><td><div></div></td></tr><tr><td style="font-weight:bold;vertical-align:top;">secure</td><td style="vertical-align:top;">:</td><td><div></div></td></tr><tr><td style="font-weight:bold;vertical-align:top;">version</td><td style="vertical-align:top;">:</td><td><div></div></td></tr></table></div></td></tr><tr><td style="font-weight:bold;vertical-align:top;">session_id_obsas_dev</td><td style="vertical-align:top;">:</td><td><div>83.203.181.3-57a24510-38a1-4c30-964a-208f8cd44b77<table><tr><td style="font-weight:bold;vertical-align:top;">comment</td><td style="vertical-align:top;">:</td><td><div></div></td></tr><tr><td style="font-weight:bold;vertical-align:top;">domain</td><td style="vertical-align:top;">:</td><td><div></div></td></tr><tr><td style="font-weight:bold;vertical-align:top;">expires</td><td style="vertical-align:top;">:</td><td><div></div></td></tr><tr><td style="font-weight:bold;vertical-align:top;">httponly</td><td style="vertical-align:top;">:</td><td><div></div></td></tr><tr><td style="font-weight:bold;vertical-align:top;">max-age</td><td style="vertical-align:top;">:</td><td><div></div></td></tr><tr><td style="font-weight:bold;vertical-align:top;">path</td><td style="vertical-align:top;">:</td><td><div></div></td></tr><tr><td style="font-weight:bold;vertical-align:top;">secure</td><td style="vertical-align:top;">:</td><td><div></div></td></tr><tr><td style="font-weight:bold;vertical-align:top;">version</td><td style="vertical-align:top;">:</td><td><div></div></td></tr></table></div></td></tr><tr><td style="font-weight:bold;vertical-align:top;">session_id_observatoireassemblee</td><td style="vertical-align:top;">:</td><td><div>83.203.170.41-820d7db2-0294-4aae-b786-6391edb8bfee<table><tr><td style="font-weight:bold;vertical-align:top;">comment</td><td style="vertical-align:top;">:</td><td><div></div></td></tr><tr><td style="font-weight:bold;vertical-align:top;">domain</td><td style="vertical-align:top;">:</td><td><div></div></td></tr><tr><td style="font-weight:bold;vertical-align:top;">expires</td><td style="vertical-align:top;">:</td><td><div></div></td></tr><tr><td style="font-weight:bold;vertical-align:top;">httponly</td><td style="vertical-align:top;">:</td><td><div></div></td></tr><tr><td style="font-weight:bold;vertical-align:top;">max-age</td><td style="vertical-align:top;">:</td><td><div></div></td></tr><tr><td style="font-weight:bold;vertical-align:top;">path</td><td style="vertical-align:top;">:</td><td><div></div></td></tr><tr><td style="font-weight:bold;vertical-align:top;">secure</td><td style="vertical-align:top;">:</td><td><div></div></td></tr><tr><td style="font-weight:bold;vertical-align:top;">version</td><td style="vertical-align:top;">:</td><td><div></div></td></tr></table></div></td></tr></table></div></td></tr><tr><td style="font-weight:bold;vertical-align:top;">env</td><td style="vertical-align:top;">:</td><td><div><table><tr><td style="font-weight:bold;vertical-align:top;">CONTEXT_DOCUMENT_ROOT</td><td style="vertical-align:top;">:</td><td><div>/var/www/html</div></td></tr><tr><td style="font-weight:bold;vertical-align:top;">CONTEXT_PREFIX</td><td style="vertical-align:top;">:</td><td><div></div></td></tr><tr><td style="font-weight:bold;vertical-align:top;">DOCUMENT_ROOT</td><td style="vertical-align:top;">:</td><td><div>/var/www/html</div></td></tr><tr><td style="font-weight:bold;vertical-align:top;">GATEWAY_INTERFACE</td><td style="vertical-align:top;">:</td><td><div>CGI/1.1</div></td></tr><tr><td style="font-weight:bold;vertical-align:top;">HTTP_ACCEPT</td><td style="vertical-align:top;">:</td><td><div>text/html,application/xhtml+xml,application/xml;q=0.9,image/webp,image/apng,*/*;q=0.8</div></td></tr><tr><td style="font-weight:bold;vertical-align:top;">HTTP_ACCEPT_ENCODING</td><td style="vertical-align:top;">:</td><td><div>gzip, deflate, br</div></td></tr><tr><td style="font-weight:bold;vertical-align:top;">HTTP_ACCEPT_LANGUAGE</td><td style="vertical-align:top;">:</td><td><div>fr-FR,fr;q=0.8,en-US;q=0.6,en;q=0.4</div></td></tr><tr><td style="font-weight:bold;vertical-align:top;">HTTP_CACHE_CONTROL</td><td style="vertical-align:top;">:</td><td><div>max-age=0</div></td></tr><tr><td style="font-weight:bold;vertical-align:top;">HTTP_CONNECTION</td><td style="vertical-align:top;">:</td><td><div>keep-alive</div></td></tr><tr><td style="font-weight:bold;vertical-align:top;">HTTP_COOKIE</td><td style="vertical-align:top;">:</td><td><div>session_id_observatoireassemblee=83.203.170.41-820d7db2-0294-4aae-b786-6391edb8bfee; session_id_obsas_dev=83.203.181.3-57a24510-38a1-4c30-964a-208f8cd44b77; session_id_oadev=83.203.181.3-24ebb75c-a12c-4e5a-ae21-343bc5a26f54; session_id_admin=83.203.170.106-62f39627-f7d7-4927-a80b-f6a1100be47c</div></td></tr><tr><td style="font-weight:bold;vertical-align:top;">HTTP_HOST</td><td style="vertical-align:top;">:</td><td><div>admin.obsas.orvdev.fr</div></td></tr><tr><td style="font-weight:bold;vertical-align:top;">HTTP_UPGRADE_INSECURE_REQUESTS</td><td style="vertical-align:top;">:</td><td><div>1</div></td></tr><tr><td style="font-weight:bold;vertical-align:top;">HTTP_USER_AGENT</td><td style="vertical-align:top;">:</td><td><div>Mozilla/5.0 (X11; Linux x86_64) AppleWebKit/537.36 (KHTML, like Gecko) Chrome/60.0.3112.101 Safari/537.36</div></td></tr><tr><td style="font-weight:bold;vertical-align:top;">PATH_INFO</td><td style="vertical-align:top;">:</td><td><div>/oadev/depute/index/jeanlucmelenchon</div></td></tr><tr><td style="font-weight:bold;vertical-align:top;">PATH_TRANSLATED</td><td style="vertical-align:top;">:</td><td><div>/home/www-data/web2py/wsgihandler.py/oadev/depute/index/jeanlucmelenchon</div></td></tr><tr><td style="font-weight:bold;vertical-align:top;">QUERY_STRING</td><td style="vertical-align:top;">:</td><td><div></div></td></tr><tr><td style="font-weight:bold;vertical-align:top;">REMOTE_ADDR</td><td style="vertical-align:top;">:</td><td><div>83.203.181.3</div></td></tr><tr><td style="font-weight:bold;vertical-align:top;">REMOTE_PORT</td><td style="vertical-align:top;">:</td><td><div>55681</div></td></tr><tr><td style="font-weight:bold;vertical-align:top;">REQUEST_METHOD</td><td style="vertical-align:top;">:</td><td><div>GET</div></td></tr><tr><td style="font-weight:bold;vertical-align:top;">REQUEST_SCHEME</td><td style="vertical-align:top;">:</td><td><div>https</div></td></tr><tr><td style="font-weight:bold;vertical-align:top;">REQUEST_URI</td><td style="vertical-align:top;">:</td><td><div>/oadev/depute/index/jeanlucmelenchon</div></td></tr><tr><td style="font-weight:bold;vertical-align:top;">SCRIPT_FILENAME</td><td style="vertical-align:top;">:</td><td><div>/home/www-data/web2py/wsgihandler.py</div></td></tr><tr><td style="font-weight:bold;vertical-align:top;">SCRIPT_NAME</td><td style="vertical-align:top;">:</td><td><div></div></td></tr><tr><td style="font-weight:bold;vertical-align:top;">SERVER_ADDR</td><td style="vertical-align:top;">:</td><td><div>151.80.57.169</div></td></tr><tr><td style="font-weight:bold;vertical-align:top;">SERVER_ADMIN</td><td style="vertical-align:top;">:</td><td><div>[no address given]</div></td></tr><tr><td style="font-weight:bold;vertical-align:top;">SERVER_NAME</td><td style="vertical-align:top;">:</td><td><div>admin.obsas.orvdev.fr</div></td></tr><tr><td style="font-weight:bold;vertical-align:top;">SERVER_PORT</td><td style="vertical-align:top;">:</td><td><div>443</div></td></tr><tr><td style="font-weight:bold;vertical-align:top;">SERVER_PROTOCOL</td><td style="vertical-align:top;">:</td><td><div>HTTP/1.1</div></td></tr><tr><td style="font-weight:bold;vertical-align:top;">SERVER_SIGNATURE</td><td style="vertical-align:top;">:</td><td><div>&lt;address&gt;Apache/2.4.18 (Ubuntu) Server at admin.obsas.orvdev.fr Port 443&lt;/address&gt;\n</div></td></tr><tr><td style="font-weight:bold;vertical-align:top;">SERVER_SOFTWARE</td><td style="vertical-align:top;">:</td><td><div>Apache/2.4.18 (Ubuntu)</div></td></tr><tr><td style="font-weight:bold;vertical-align:top;">SSL_TLS_SNI</td><td style="vertical-align:top;">:</td><td><div>admin.obsas.orvdev.fr</div></td></tr><tr><td style="font-weight:bold;vertical-align:top;">apache.version</td><td style="vertical-align:top;">:</td><td><div><table><tr><td><div>2</div></td></tr><tr><td><div>4</div></td></tr><tr><td><div>18</div></td></tr></table></div></td></tr><tr><td style="font-weight:bold;vertical-align:top;">apache_version</td><td style="vertical-align:top;">:</td><td><div><table><tr><td><div>2</div></td></tr><tr><td><div>4</div></td></tr><tr><td><div>18</div></td></tr></table></div></td></tr><tr><td style="font-weight:bold;vertical-align:top;">app_folders</td><td style="vertical-align:top;">:</td><td><div>set([&#x27;/home/www-data/web2py/applications/observatoireassemblee/&#x27;, &#x27;/home/www-data/web2py/applications/obsas_dev/&#x27;, &#x27;/home/www-data/web2py/applications/admin/&#x27;, &#x27;/home/www-data/web2py/applications/oadev/&#x27;])</div></td></tr><tr><td style="font-weight:bold;vertical-align:top;">applications_parent</td><td style="vertical-align:top;">:</td><td><div>/home/www-data/web2py</div></td></tr><tr><td style="font-weight:bold;vertical-align:top;">context_document_root</td><td style="vertical-align:top;">:</td><td><div>/var/www/html</div></td></tr><tr><td style="font-weight:bold;vertical-align:top;">context_prefix</td><td style="vertical-align:top;">:</td><td><div></div></td></tr><tr><td style="font-weight:bold;vertical-align:top;">db_sessions</td><td style="vertical-align:top;">:</td><td><div>set([])</div></td></tr><tr><td style="font-weight:bold;vertical-align:top;">debugging</td><td style="vertical-align:top;">:</td><td><div>True</div></td></tr><tr><td style="font-weight:bold;vertical-align:top;">document_root</td><td style="vertical-align:top;">:</td><td><div>/var/www/html</div></td></tr><tr><td style="font-weight:bold;vertical-align:top;">gateway_interface</td><td style="vertical-align:top;">:</td><td><div>CGI/1.1</div></td></tr><tr><td style="font-weight:bold;vertical-align:top;">gluon_parent</td><td style="vertical-align:top;">:</td><td><div>/home/www-data/web2py</div></td></tr><tr><td style="font-weight:bold;vertical-align:top;">http_accept</td><td style="vertical-align:top;">:</td><td><div>text/html,application/xhtml+xml,application/xml;q=0.9,image/webp,image/apng,*/*;q=0.8</div></td></tr><tr><td style="font-weight:bold;vertical-align:top;">http_accept_encoding</td><td style="vertical-align:top;">:</td><td><div>gzip, deflate, br</div></td></tr><tr><td style="font-weight:bold;vertical-align:top;">http_accept_language</td><td style="vertical-align:top;">:</td><td><div>fr-FR,fr;q=0.8,en-US;q=0.6,en;q=0.4</div></td></tr><tr><td style="font-weight:bold;vertical-align:top;">http_cache_control</td><td style="vertical-align:top;">:</td><td><div>max-age=0</div></td></tr><tr><td style="font-weight:bold;vertical-align:top;">http_connection</td><td style="vertical-align:top;">:</td><td><div>keep-alive</div></td></tr><tr><td style="font-weight:bold;vertical-align:top;">http_cookie</td><td style="vertical-align:top;">:</td><td><div>session_id_observatoireassemblee=83.203.170.41-820d7db2-0294-4aae-b786-6391edb8bfee; session_id_obsas_dev=83.203.181.3-57a24510-38a1-4c30-964a-208f8cd44b77; session_id_oadev=83.203.181.3-24ebb75c-a12c-4e5a-ae21-343bc5a26f54; session_id_admin=83.203.170.106-62f39627-f7d7-4927-a80b-f6a1100be47c</div></td></tr><tr><td style="font-weight:bold;vertical-align:top;">http_host</td><td style="vertical-align:top;">:</td><td><div>admin.obsas.orvdev.fr</div></td></tr><tr><td style="font-weight:bold;vertical-align:top;">http_upgrade_insecure_requests</td><td style="vertical-align:top;">:</td><td><div>1</div></td></tr><tr><td style="font-weight:bold;vertical-align:top;">http_user_agent</td><td style="vertical-align:top;">:</td><td><div>Mozilla/5.0 (X11; Linux x86_64) AppleWebKit/537.36 (KHTML, like Gecko) Chrome/60.0.3112.101 Safari/537.36</div></td></tr><tr><td style="font-weight:bold;vertical-align:top;">is_jython</td><td style="vertical-align:top;">:</td><td><div>False</div></td></tr><tr><td style="font-weight:bold;vertical-align:top;">is_py2</td><td style="vertical-align:top;">:</td><td><div>True</div></td></tr><tr><td style="font-weight:bold;vertical-align:top;">is_pypy</td><td style="vertical-align:top;">:</td><td><div>False</div></td></tr><tr><td style="font-weight:bold;vertical-align:top;">is_source</td><td style="vertical-align:top;">:</td><td><div>True</div></td></tr><tr><td style="font-weight:bold;vertical-align:top;">local_hosts</td><td style="vertical-align:top;">:</td><td><div><table><tr><td><div>vps433020</div></td></tr><tr><td><div>::ffff:127.0.0.1</div></td></tr><tr><td><div>::1</div></td></tr><tr><td><div>151.80.57.169</div></td></tr><tr><td><div>vps433020.ovh.net</div></td></tr><tr><td><div>127.0.1.1</div></td></tr><tr><td><div>admin.obsas.orvdev.fr</div></td></tr><tr><td><div>127.0.0.1</div></td></tr></table></div></td></tr><tr><td style="font-weight:bold;vertical-align:top;">mod_wsgi.application_group</td><td style="vertical-align:top;">:</td><td><div></div></td></tr><tr><td style="font-weight:bold;vertical-align:top;">mod_wsgi.callable_object</td><td style="vertical-align:top;">:</td><td><div>application</div></td></tr><tr><td style="font-weight:bold;vertical-align:top;">mod_wsgi.daemon_connects</td><td style="vertical-align:top;">:</td><td><div>1</div></td></tr><tr><td style="font-weight:bold;vertical-align:top;">mod_wsgi.daemon_restarts</td><td style="vertical-align:top;">:</td><td><div>0</div></td></tr><tr><td style="font-weight:bold;vertical-align:top;">mod_wsgi.daemon_start</td><td style="vertical-align:top;">:</td><td><div>1505681586861327</div></td></tr><tr><td style="font-weight:bold;vertical-align:top;">mod_wsgi.enable_sendfile</td><td style="vertical-align:top;">:</td><td><div>0</div></td></tr><tr><td style="font-weight:bold;vertical-align:top;">mod_wsgi.handler_script</td><td style="vertical-align:top;">:</td><td><div></div></td></tr><tr><td style="font-weight:bold;vertical-align:top;">mod_wsgi.input_chunked</td><td style="vertical-align:top;">:</td><td><div>0</div></td></tr><tr><td style="font-weight:bold;vertical-align:top;">mod_wsgi.listener_host</td><td style="vertical-align:top;">:</td><td><div></div></td></tr><tr><td style="font-weight:bold;vertical-align:top;">mod_wsgi.listener_port</td><td style="vertical-align:top;">:</td><td><div>443</div></td></tr><tr><td style="font-weight:bold;vertical-align:top;">mod_wsgi.process_group</td><td style="vertical-align:top;">:</td><td><div>obsasadm</div></td></tr><tr><td style="font-weight:bold;vertical-align:top;">mod_wsgi.queue_start</td><td style="vertical-align:top;">:</td><td><div>1505681586861197</div></td></tr><tr><td style="font-weight:bold;vertical-align:top;">mod_wsgi.request_handler</td><td style="vertical-align:top;">:</td><td><div>wsgi-script</div></td></tr><tr><td style="font-weight:bold;vertical-align:top;">mod_wsgi.request_start</td><td style="vertical-align:top;">:</td><td><div>1505681586860918</div></td></tr><tr><td style="font-weight:bold;vertical-align:top;">mod_wsgi.script_reloading</td><td style="vertical-align:top;">:</td><td><div>1</div></td></tr><tr><td style="font-weight:bold;vertical-align:top;">mod_wsgi.script_start</td><td style="vertical-align:top;">:</td><td><div>1505681586861374</div></td></tr><tr><td style="font-weight:bold;vertical-align:top;">mod_wsgi.version</td><td style="vertical-align:top;">:</td><td><div><table><tr><td><div>4</div></td></tr><tr><td><div>3</div></td></tr><tr><td><div>0</div></td></tr></table></div></td></tr><tr><td style="font-weight:bold;vertical-align:top;">mod_wsgi_application_group</td><td style="vertical-align:top;">:</td><td><div></div></td></tr><tr><td style="font-weight:bold;vertical-align:top;">mod_wsgi_callable_object</td><td style="vertical-align:top;">:</td><td><div>application</div></td></tr><tr><td style="font-weight:bold;vertical-align:top;">mod_wsgi_daemon_connects</td><td style="vertical-align:top;">:</td><td><div>1</div></td></tr><tr><td style="font-weight:bold;vertical-align:top;">mod_wsgi_daemon_restarts</td><td style="vertical-align:top;">:</td><td><div>0</div></td></tr><tr><td style="font-weight:bold;vertical-align:top;">mod_wsgi_daemon_start</td><td style="vertical-align:top;">:</td><td><div>1505681586861327</div></td></tr><tr><td style="font-weight:bold;vertical-align:top;">mod_wsgi_enable_sendfile</td><td style="vertical-align:top;">:</td><td><div>0</div></td></tr><tr><td style="font-weight:bold;vertical-align:top;">mod_wsgi_handler_script</td><td style="vertical-align:top;">:</td><td><div></div></td></tr><tr><td style="font-weight:bold;vertical-align:top;">mod_wsgi_input_chunked</td><td style="vertical-align:top;">:</td><td><div>0</div></td></tr><tr><td style="font-weight:bold;vertical-align:top;">mod_wsgi_listener_host</td><td style="vertical-align:top;">:</td><td><div></div></td></tr><tr><td style="font-weight:bold;vertical-align:top;">mod_wsgi_listener_port</td><td style="vertical-align:top;">:</td><td><div>443</div></td></tr><tr><td style="font-weight:bold;vertical-align:top;">mod_wsgi_process_group</td><td style="vertical-align:top;">:</td><td><div>obsasadm</div></td></tr><tr><td style="font-weight:bold;vertical-align:top;">mod_wsgi_queue_start</td><td style="vertical-align:top;">:</td><td><div>1505681586861197</div></td></tr><tr><td style="font-weight:bold;vertical-align:top;">mod_wsgi_request_handler</td><td style="vertical-align:top;">:</td><td><div>wsgi-script</div></td></tr><tr><td style="font-weight:bold;vertical-align:top;">mod_wsgi_request_start</td><td style="vertical-align:top;">:</td><td><div>1505681586860918</div></td></tr><tr><td style="font-weight:bold;vertical-align:top;">mod_wsgi_script_reloading</td><td style="vertical-align:top;">:</td><td><div>1</div></td></tr><tr><td style="font-weight:bold;vertical-align:top;">mod_wsgi_script_start</td><td style="vertical-align:top;">:</td><td><div>1505681586861374</div></td></tr><tr><td style="font-weight:bold;vertical-align:top;">mod_wsgi_version</td><td style="vertical-align:top;">:</td><td><div><table><tr><td><div>4</div></td></tr><tr><td><div>3</div></td></tr><tr><td><div>0</div></td></tr></table></div></td></tr><tr><td style="font-weight:bold;vertical-align:top;">nokeepalive</td><td style="vertical-align:top;">:</td><td><div>ssl-unclean-shutdown</div></td></tr><tr><td style="font-weight:bold;vertical-align:top;">path_info</td><td style="vertical-align:top;">:</td><td><div>/oadev/depute/index/jeanlucmelenchon</div></td></tr><tr><td style="font-weight:bold;vertical-align:top;">path_translated</td><td style="vertical-align:top;">:</td><td><div>/home/www-data/web2py/wsgihandler.py/oadev/depute/index/jeanlucmelenchon</div></td></tr><tr><td style="font-weight:bold;vertical-align:top;">query_string</td><td style="vertical-align:top;">:</td><td><div></div></td></tr><tr><td style="font-weight:bold;vertical-align:top;">remote_addr</td><td style="vertical-align:top;">:</td><td><div>83.203.181.3</div></td></tr><tr><td style="font-weight:bold;vertical-align:top;">remote_port</td><td style="vertical-align:top;">:</td><td><div>55681</div></td></tr><tr><td style="font-weight:bold;vertical-align:top;">request_method</td><td style="vertical-align:top;">:</td><td><div>GET</div></td></tr><tr><td style="font-weight:bold;vertical-align:top;">request_scheme</td><td style="vertical-align:top;">:</td><td><div>https</div></td></tr><tr><td style="font-weight:bold;vertical-align:top;">request_uri</td><td style="vertical-align:top;">:</td><td><div>/oadev/depute/index/jeanlucmelenchon</div></td></tr><tr><td style="font-weight:bold;vertical-align:top;">script_filename</td><td style="vertical-align:top;">:</td><td><div>/home/www-data/web2py/wsgihandler.py</div></td></tr><tr><td style="font-weight:bold;vertical-align:top;">script_name</td><td style="vertical-align:top;">:</td><td><div></div></td></tr><tr><td style="font-weight:bold;vertical-align:top;">server_addr</td><td style="vertical-align:top;">:</td><td><div>151.80.57.169</div></td></tr><tr><td style="font-weight:bold;vertical-align:top;">server_admin</td><td style="vertical-align:top;">:</td><td><div>[no address given]</div></td></tr><tr><td style="font-weight:bold;vertical-align:top;">server_name</td><td style="vertical-align:top;">:</td><td><div>admin.obsas.orvdev.fr</div></td></tr><tr><td style="font-weight:bold;vertical-align:top;">server_port</td><td style="vertical-align:top;">:</td><td><div>443</div></td></tr><tr><td style="font-weight:bold;vertical-align:top;">server_protocol</td><td style="vertical-align:top;">:</td><td><div>HTTP/1.1</div></td></tr><tr><td style="font-weight:bold;vertical-align:top;">server_signature</td><td style="vertical-align:top;">:</td><td><div>&lt;address&gt;Apache/2.4.18 (Ubuntu) Server at admin.obsas.orvdev.fr Port 443&lt;/address&gt;\n</div></td></tr><tr><td style="font-weight:bold;vertical-align:top;">server_software</td><td style="vertical-align:top;">:</td><td><div>Apache/2.4.18 (Ubuntu)</div></td></tr><tr><td style="font-weight:bold;vertical-align:top;">ssl_tls_sni</td><td style="vertical-align:top;">:</td><td><div>admin.obsas.orvdev.fr</div></td></tr><tr><td style="font-weight:bold;vertical-align:top;">web2py_original_uri</td><td style="vertical-align:top;">:</td><td><div>/oadev/depute/index/jeanlucmelenchon</div></td></tr><tr><td style="font-weight:bold;vertical-align:top;">web2py_path</td><td style="vertical-align:top;">:</td><td><div>/home/www-data/web2py</div></td></tr><tr><td style="font-weight:bold;vertical-align:top;">web2py_version</td><td style="vertical-align:top;">:</td><td><div>2.15.1-stable+timestamp.2017.07.10.21.25.06</div></td></tr><tr><td style="font-weight:bold;vertical-align:top;">wsgi.errors</td><td style="vertical-align:top;">:</td><td><div>&lt;mod_wsgi.Log object at 0x7f0846ea78e8&gt;</div></td></tr><tr><td style="font-weight:bold;vertical-align:top;">wsgi.file_wrapper</td><td style="vertical-align:top;">:</td><td><div>&lt;type &#x27;mod_wsgi.FileWrapper&#x27;&gt;</div></td></tr><tr><td style="font-weight:bold;vertical-align:top;">wsgi.input</td><td style="vertical-align:top;">:</td><td><div>&lt;mod_wsgi.Input object at 0x7f086b4956b0&gt;</div></td></tr><tr><td style="font-weight:bold;vertical-align:top;">wsgi.multiprocess</td><td style="vertical-align:top;">:</td><td><div>False</div></td></tr><tr><td style="font-weight:bold;vertical-align:top;">wsgi.multithread</td><td style="vertical-align:top;">:</td><td><div>True</div></td></tr><tr><td style="font-weight:bold;vertical-align:top;">wsgi.run_once</td><td style="vertical-align:top;">:</td><td><div>False</div></td></tr><tr><td style="font-weight:bold;vertical-align:top;">wsgi.url_scheme</td><td style="vertical-align:top;">:</td><td><div>https</div></td></tr><tr><td style="font-weight:bold;vertical-align:top;">wsgi.version</td><td style="vertical-align:top;">:</td><td><div><table><tr><td><div>1</div></td></tr><tr><td><div>0</div></td></tr></table></div></td></tr><tr><td style="font-weight:bold;vertical-align:top;">wsgi_errors</td><td style="vertical-align:top;">:</td><td><div>&lt;mod_wsgi.Log object at 0x7f0846ea78e8&gt;</div></td></tr><tr><td style="font-weight:bold;vertical-align:top;">wsgi_file_wrapper</td><td style="vertical-align:top;">:</td><td><div>&lt;type &#x27;mod_wsgi.FileWrapper&#x27;&gt;</div></td></tr><tr><td style="font-weight:bold;vertical-align:top;">wsgi_input</td><td style="vertical-align:top;">:</td><td><div>&lt;mod_wsgi.Input object at 0x7f086b4956b0&gt;</div></td></tr><tr><td style="font-weight:bold;vertical-align:top;">wsgi_multiprocess</td><td style="vertical-align:top;">:</td><td><div>False</div></td></tr><tr><td style="font-weight:bold;vertical-align:top;">wsgi_multithread</td><td style="vertical-align:top;">:</td><td><div>True</div></td></tr><tr><td style="font-weight:bold;vertical-align:top;">wsgi_run_once</td><td style="vertical-align:top;">:</td><td><div>False</div></td></tr><tr><td style="font-weight:bold;vertical-align:top;">wsgi_url_scheme</td><td style="vertical-align:top;">:</td><td><div>https</div></td></tr><tr><td style="font-weight:bold;vertical-align:top;">wsgi_version</td><td style="vertical-align:top;">:</td><td><div><table><tr><td><div>1</div></td></tr><tr><td><div>0</div></td></tr></table></div></td></tr></table></div></td></tr><tr><td style="font-weight:bold;vertical-align:top;">extension</td><td style="vertical-align:top;">:</td><td><div>html</div></td></tr><tr><td style="font-weight:bold;vertical-align:top;">folder</td><td style="vertical-align:top;">:</td><td><div>/home/www-data/web2py/applications/oadev/</div></td></tr><tr><td style="font-weight:bold;vertical-align:top;">function</td><td style="vertical-align:top;">:</td><td><div>index</div></td></tr><tr><td style="font-weight:bold;vertical-align:top;">global_settings</td><td style="vertical-align:top;">:</td><td><div><table><tr><td style="font-weight:bold;vertical-align:top;">app_folders</td><td style="vertical-align:top;">:</td><td><div>set([&#x27;/home/www-data/web2py/applications/observatoireassemblee/&#x27;, &#x27;/home/www-data/web2py/applications/obsas_dev/&#x27;, &#x27;/home/www-data/web2py/applications/admin/&#x27;, &#x27;/home/www-data/web2py/applications/oadev/&#x27;])</div></td></tr><tr><td style="font-weight:bold;vertical-align:top;">applications_parent</td><td style="vertical-align:top;">:</td><td><div>/home/www-data/web2py</div></td></tr><tr><td style="font-weight:bold;vertical-align:top;">db_sessions</td><td style="vertical-align:top;">:</td><td><div>set([])</div></td></tr><tr><td style="font-weight:bold;vertical-align:top;">debugging</td><td style="vertical-align:top;">:</td><td><div>True</div></td></tr><tr><td style="font-weight:bold;vertical-align:top;">gluon_parent</td><td style="vertical-align:top;">:</td><td><div>/home/www-data/web2py</div></td></tr><tr><td style="font-weight:bold;vertical-align:top;">is_jython</td><td style="vertical-align:top;">:</td><td><div>False</div></td></tr><tr><td style="font-weight:bold;vertical-align:top;">is_py2</td><td style="vertical-align:top;">:</td><td><div>True</div></td></tr><tr><td style="font-weight:bold;vertical-align:top;">is_pypy</td><td style="vertical-align:top;">:</td><td><div>False</div></td></tr><tr><td style="font-weight:bold;vertical-align:top;">is_source</td><td style="vertical-align:top;">:</td><td><div>True</div></td></tr><tr><td style="font-weight:bold;vertical-align:top;">local_hosts</td><td style="vertical-align:top;">:</td><td><div><table><tr><td><div>vps433020</div></td></tr><tr><td><div>::ffff:127.0.0.1</div></td></tr><tr><td><div>::1</div></td></tr><tr><td><div>151.80.57.169</div></td></tr><tr><td><div>vps433020.ovh.net</div></td></tr><tr><td><div>127.0.1.1</div></td></tr><tr><td><div>admin.obsas.orvdev.fr</div></td></tr><tr><td><div>127.0.0.1</div></td></tr></table></div></td></tr><tr><td style="font-weight:bold;vertical-align:top;">web2py_version</td><td style="vertical-align:top;">:</td><td><div>2.15.1-stable+timestamp.2017.07.10.21.25.06</div></td></tr></table></div></td></tr><tr><td style="font-weight:bold;vertical-align:top;">is_https</td><td style="vertical-align:top;">:</td><td><div>True</div></td></tr><tr><td style="font-weight:bold;vertical-align:top;">is_local</td><td style="vertical-align:top;">:</td><td><div>False</div></td></tr><tr><td style="font-weight:bold;vertical-align:top;">is_restful</td><td style="vertical-align:top;">:</td><td><div>False</div></td></tr><tr><td style="font-weight:bold;vertical-align:top;">is_scheduler</td><td style="vertical-align:top;">:</td><td><div>False</div></td></tr><tr><td style="font-weight:bold;vertical-align:top;">is_shell</td><td style="vertical-align:top;">:</td><td><div>False</div></td></tr><tr><td style="font-weight:bold;vertical-align:top;">now</td><td style="vertical-align:top;">:</td><td><div>datetime.datetime(2017, 9, 17, 22, 53, 6, 862129)</div></td></tr><tr><td style="font-weight:bold;vertical-align:top;">url</td><td style="vertical-align:top;">:</td><td><div>/oadev/depute/index/jeanlucmelenchon</div></td></tr><tr><td style="font-weight:bold;vertical-align:top;">utcnow</td><td style="vertical-align:top;">:</td><td><div>datetime.datetime(2017, 9, 17, 20, 53, 6, 862182)</div></td></tr><tr><td style="font-weight:bold;vertical-align:top;">wsgi</td><td style="vertical-align:top;">:</td><td><div>&lt;gluon.main.LazyWSGI object at 0x7f086b205310&gt;</div></td></tr></table></div>'
tRp69
sS'frames'
p70
(lp71
(dp72
S'file'
p73
S'/home/www-data/web2py/gluon/restricted.py'
p74
sS'dump'
p75
(dp76
S'environment'
p77
S"{'A': <class 'gluon.html.A'>, 'ANY_OF': <class 'gluon.validators.ANY_OF'>, 'ASSIGNJS': <function ASSIGNJS>, 'AppCache': <class __restricted__.AppCache>, 'AppConfig': <function AppConfig>, 'Auth': <class 'gluon.tools.Auth'>, 'B': <class 'gluon.html.B'>, 'BEAUTIFY': <class 'gluon.html.BEAUTIFY'>, 'BODY': <class 'gluon.html.BODY'>, 'BR': <class 'gluon.html.BR'>, ...}"
p78
sS'ccode'
p79
S'\'response.write(\\\'<!DOCTYPE html>\\\\n<html lang="fr"...ponse.write(\\\'\\\\n</body>\\\\n</html>\\\\n\\\', escape=False)\''
p80
ssS'lnum'
p81
I219
sS'lines'
p82
(dp83
I214
S'    if environment is None:'
p84
sI215
S'        environment = {}'
p85
sI216
S"    environment['__file__'] = layer"
p86
sI217
S"    environment['__name__'] = '__restricted__'"
p87
sI218
S'    try:'
p88
sI219
S'        exec(ccode, environment)'
p89
sI220
S'    except HTTP:'
p90
sI221
S'        raise'
p91
sI222
S'    except RestrictedError:'
p92
sI223
S'        # do not encapsulate (obfuscate) the original RestrictedError'
p93
ssS'call'
p94
S'(ccode=\'response.write(\\\'<!DOCTYPE html>\\\\n<html lang="fr"...ponse.write(\\\'\\\\n</body>\\\\n</html>\\\\n\\\', escape=False)\', environment={\'A\': <class \'gluon.html.A\'>, \'ANY_OF\': <class \'gluon.validators.ANY_OF\'>, \'ASSIGNJS\': <function ASSIGNJS>, \'AppCache\': <class __restricted__.AppCache>, \'AppConfig\': <function AppConfig>, \'Auth\': <class \'gluon.tools.Auth\'>, \'B\': <class \'gluon.html.B\'>, \'BEAUTIFY\': <class \'gluon.html.BEAUTIFY\'>, \'BODY\': <class \'gluon.html.BODY\'>, \'BR\': <class \'gluon.html.BR\'>, ...}, layer=\'/home/www-data/web2py/applications/oadev/views/depute/index.html\')'
p95
sS'func'
p96
S'restricted'
p97
sa(dp98
g73
S'/home/www-data/web2py/<string>'
p99
sg75
(dp100
sg81
I149
sg82
(dp101
sg94
S'()'
p102
sg96
S'<module>'
p103
sasS'pyver'
p104
S'Python 2.7.12: /home/www-data/web2py/applications/obsas_dev/.pyenv/bin/python (prefix: /home/www-data/web2py/applications/obsas_dev/.pyenv)'
p105
sS'session'
p106
g68
(S's\x1a\x00\x00\x00<div><table></table></div>'
tRp107
sS'etype'
p108
S"<type 'exceptions.UnicodeDecodeError'>"
p109
sS'date'
p110
S'Sun Sep 17 22:53:07 2017'
p111
sS'response'
p112
g68
(S's\x12>\x00\x00<div><table><tr><td style="font-weight:bold;vertical-align:top;">body</td><td style="vertical-align:top;">:</td><td><div>&lt;cStringIO.StringO object at 0x7f084c7c18f0&gt;</div></td></tr><tr><td style="font-weight:bold;vertical-align:top;">cookies</td><td style="vertical-align:top;">:</td><td><div><table><tr><td style="font-weight:bold;vertical-align:top;">session_id_oadev</td><td style="vertical-align:top;">:</td><td><div>83.203.181.3-24f317e5-a3de-48a0-9cfc-a25878a26020<table><tr><td style="font-weight:bold;vertical-align:top;">comment</td><td style="vertical-align:top;">:</td><td><div></div></td></tr><tr><td style="font-weight:bold;vertical-align:top;">domain</td><td style="vertical-align:top;">:</td><td><div></div></td></tr><tr><td style="font-weight:bold;vertical-align:top;">expires</td><td style="vertical-align:top;">:</td><td><div></div></td></tr><tr><td style="font-weight:bold;vertical-align:top;">httponly</td><td style="vertical-align:top;">:</td><td><div></div></td></tr><tr><td style="font-weight:bold;vertical-align:top;">max-age</td><td style="vertical-align:top;">:</td><td><div></div></td></tr><tr><td style="font-weight:bold;vertical-align:top;">path</td><td style="vertical-align:top;">:</td><td><div>/</div></td></tr><tr><td style="font-weight:bold;vertical-align:top;">secure</td><td style="vertical-align:top;">:</td><td><div></div></td></tr><tr><td style="font-weight:bold;vertical-align:top;">version</td><td style="vertical-align:top;">:</td><td><div></div></td></tr></table></div></td></tr></table></div></td></tr><tr><td style="font-weight:bold;vertical-align:top;">delimiters</td><td style="vertical-align:top;">:</td><td><div><table><tr><td><div>{{</div></td></tr><tr><td><div>}}</div></td></tr></table></div></td></tr><tr><td style="font-weight:bold;vertical-align:top;">files</td><td style="vertical-align:top;">:</td><td><div><table></table></div></td></tr><tr><td style="font-weight:bold;vertical-align:top;">flash</td><td style="vertical-align:top;">:</td><td><div></div></td></tr><tr><td style="font-weight:bold;vertical-align:top;">form_label_separator</td><td style="vertical-align:top;">:</td><td><div></div></td></tr><tr><td style="font-weight:bold;vertical-align:top;">formstyle</td><td style="vertical-align:top;">:</td><td><div>bootstrap3_inline</div></td></tr><tr><td style="font-weight:bold;vertical-align:top;">generic_patterns</td><td style="vertical-align:top;">:</td><td><div><table><tr><td><div>*.json</div></td></tr></table></div></td></tr><tr><td style="font-weight:bold;vertical-align:top;">google_analytics_id</td><td style="vertical-align:top;">:</td><td><div>None</div></td></tr><tr><td style="font-weight:bold;vertical-align:top;">headers</td><td style="vertical-align:top;">:</td><td><div><table><tr><td style="font-weight:bold;vertical-align:top;">X-Powered-By</td><td style="vertical-align:top;">:</td><td><div>web2py</div></td></tr></table></div></td></tr><tr><td style="font-weight:bold;vertical-align:top;">logo</td><td style="vertical-align:top;">:</td><td><div><a class="navbar-brand" href="http://www.web2py.com/" id="web2py-logo"><b>web<span>2</span>py</b>&trade;&nbsp;</a></div></td></tr><tr><td style="font-weight:bold;vertical-align:top;">menu</td><td style="vertical-align:top;">:</td><td><div><table><tr><td><div><table><tr><td><div>Accueil</div></td></tr><tr><td><div>False</div></td></tr><tr><td><div>/oadev</div></td></tr><tr><td><div><table></table></div></td></tr></table></div></td></tr><tr><td><div><table><tr><td><div>Mes sites</div></td></tr><tr><td><div>False</div></td></tr><tr><td><div>/admin/site</div></td></tr></table></div></td></tr><tr><td><div><table><tr><td><div>Cette Appli</div></td></tr><tr><td><div>False</div></td></tr><tr><td><div>#</div></td></tr><tr><td><div><table><tr><td><div><table><tr><td><div>Design</div></td></tr><tr><td><div>False</div></td></tr><tr><td><div>/admin/design/oadev</div></td></tr></table></div></td></tr><tr><td><div><li class="divider"></li></div></td></tr><tr><td><div><table><tr><td><div>Contr\xc3\xb4leur</div></td></tr><tr><td><div>False</div></td></tr><tr><td><div>/admin/edit/oadev/controllers/depute.py</div></td></tr></table></div></td></tr><tr><td><div><table><tr><td><div>Pr\xc3\xa9sentation</div></td></tr><tr><td><div>False</div></td></tr><tr><td><div>/admin/edit/oadev/views/depute/index.html</div></td></tr></table></div></td></tr><tr><td><div><table><tr><td><div>Mod\xc3\xa8le BD</div></td></tr><tr><td><div>False</div></td></tr><tr><td><div>/admin/edit/oadev/models/db.py</div></td></tr></table></div></td></tr><tr><td><div><table><tr><td><div>Menu mod\xc3\xa8le</div></td></tr><tr><td><div>False</div></td></tr><tr><td><div>/admin/edit/oadev/models/menu.py</div></td></tr></table></div></td></tr><tr><td><div><table><tr><td><div>Config.ini</div></td></tr><tr><td><div>False</div></td></tr><tr><td><div>/admin/edit/oadev/private/appconfig.ini</div></td></tr></table></div></td></tr><tr><td><div><table><tr><td><div>Mise en page</div></td></tr><tr><td><div>False</div></td></tr><tr><td><div>/admin/edit/oadev/views/layout.html</div></td></tr></table></div></td></tr><tr><td><div><table><tr><td><div>Feuille de style</div></td></tr><tr><td><div>False</div></td></tr><tr><td><div>/admin/edit/oadev/static/css/web2py-bootstrap3.css</div></td></tr></table></div></td></tr><tr><td><div><table><tr><td><div>base de donn\xc3\xa9es</div></td></tr><tr><td><div>False</div></td></tr><tr><td><div>/oadev/appadmin</div></td></tr></table></div></td></tr><tr><td><div><table><tr><td><div>Erreurs</div></td></tr><tr><td><div>False</div></td></tr><tr><td><div>/admin/errors/oadev</div></td></tr></table></div></td></tr><tr><td><div><table><tr><td><div>\xc3\x80 propos</div></td></tr><tr><td><div>False</div></td></tr><tr><td><div>/admin/about/oadev</div></td></tr></table></div></td></tr></table></div></td></tr></table></div></td></tr><tr><td><div><table><tr><td><div>web2py.com</div></td></tr><tr><td><div>False</div></td></tr><tr><td><div>#</div></td></tr><tr><td><div><table><tr><td><div><table><tr><td><div>T\xc3\xa9l\xc3\xa9chargement</div></td></tr><tr><td><div>False</div></td></tr><tr><td><div>http://www.web2py.com/examples/default/download</div></td></tr></table></div></td></tr><tr><td><div><table><tr><td><div>Soutien</div></td></tr><tr><td><div>False</div></td></tr><tr><td><div>http://www.web2py.com/examples/default/support</div></td></tr></table></div></td></tr><tr><td><div><table><tr><td><div>D\xc3\xa9mo</div></td></tr><tr><td><div>False</div></td></tr><tr><td><div>http://web2py.com/demo_admin</div></td></tr></table></div></td></tr><tr><td><div><table><tr><td><div>Exemples Rapides</div></td></tr><tr><td><div>False</div></td></tr><tr><td><div>http://web2py.com/examples/default/examples</div></td></tr></table></div></td></tr><tr><td><div><table><tr><td><div>FAQ</div></td></tr><tr><td><div>False</div></td></tr><tr><td><div>http://web2py.com/AlterEgo</div></td></tr></table></div></td></tr><tr><td><div><table><tr><td><div>Vid\xc3\xa9os</div></td></tr><tr><td><div>False</div></td></tr><tr><td><div>http://www.web2py.com/examples/default/videos/</div></td></tr></table></div></td></tr><tr><td><div><table><tr><td><div>Applications gratuites</div></td></tr><tr><td><div>False</div></td></tr><tr><td><div>http://web2py.com/appliances</div></td></tr></table></div></td></tr><tr><td><div><table><tr><td><div>Plugiciels</div></td></tr><tr><td><div>False</div></td></tr><tr><td><div>http://web2py.com/plugins</div></td></tr></table></div></td></tr><tr><td><div><table><tr><td><div>Recettes</div></td></tr><tr><td><div>False</div></td></tr><tr><td><div>http://web2pyslices.com/</div></td></tr></table></div></td></tr></table></div></td></tr></table></div></td></tr><tr><td><div><table><tr><td><div>Documentation</div></td></tr><tr><td><div>False</div></td></tr><tr><td><div>#</div></td></tr><tr><td><div><table><tr><td><div><table><tr><td><div>Online book</div></td></tr><tr><td><div>False</div></td></tr><tr><td><div>http://www.web2py.com/book</div></td></tr></table></div></td></tr><tr><td><div><li class="divider"></li></div></td></tr><tr><td><div><table><tr><td><div>Pr\xc3\xa9face</div></td></tr><tr><td><div>False</div></td></tr><tr><td><div>http://www.web2py.com/book/default/chapter/00</div></td></tr></table></div></td></tr><tr><td><div><table><tr><td><div>Pr\xc3\xa9sentation</div></td></tr><tr><td><div>False</div></td></tr><tr><td><div>http://www.web2py.com/book/default/chapter/01</div></td></tr></table></div></td></tr><tr><td><div><table><tr><td><div>Python</div></td></tr><tr><td><div>False</div></td></tr><tr><td><div>http://www.web2py.com/book/default/chapter/02</div></td></tr></table></div></td></tr><tr><td><div><table><tr><td><div>Pr\xc3\xa9sentation</div></td></tr><tr><td><div>False</div></td></tr><tr><td><div>http://www.web2py.com/book/default/chapter/03</div></td></tr></table></div></td></tr><tr><td><div><table><tr><td><div>Le noyau</div></td></tr><tr><td><div>False</div></td></tr><tr><td><div>http://www.web2py.com/book/default/chapter/04</div></td></tr></table></div></td></tr><tr><td><div><table><tr><td><div>Les Vues</div></td></tr><tr><td><div>False</div></td></tr><tr><td><div>http://www.web2py.com/book/default/chapter/05</div></td></tr></table></div></td></tr><tr><td><div><table><tr><td><div>base de donn\xc3\xa9es</div></td></tr><tr><td><div>False</div></td></tr><tr><td><div>http://www.web2py.com/book/default/chapter/06</div></td></tr></table></div></td></tr><tr><td><div><table><tr><td><div>Formulaires et Validateurs</div></td></tr><tr><td><div>False</div></td></tr><tr><td><div>http://www.web2py.com/book/default/chapter/07</div></td></tr></table></div></td></tr><tr><td><div><table><tr><td><div>Courriel et texto</div></td></tr><tr><td><div>False</div></td></tr><tr><td><div>http://www.web2py.com/book/default/chapter/08</div></td></tr></table></div></td></tr><tr><td><div><table><tr><td><div>Contr\xc3\xb4le d\'acc\xc3\xa8s</div></td></tr><tr><td><div>False</div></td></tr><tr><td><div>http://www.web2py.com/book/default/chapter/09</div></td></tr></table></div></td></tr><tr><td><div><table><tr><td><div>Services</div></td></tr><tr><td><div>False</div></td></tr><tr><td><div>http://www.web2py.com/book/default/chapter/10</div></td></tr></table></div></td></tr><tr><td><div><table><tr><td><div>Recettes Ajax</div></td></tr><tr><td><div>False</div></td></tr><tr><td><div>http://www.web2py.com/book/default/chapter/11</div></td></tr></table></div></td></tr><tr><td><div><table><tr><td><div>Composants et Plugiciels</div></td></tr><tr><td><div>False</div></td></tr><tr><td><div>http://www.web2py.com/book/default/chapter/12</div></td></tr></table></div></td></tr><tr><td><div><table><tr><td><div>Recettes de d\xc3\xa9ploiement</div></td></tr><tr><td><div>False</div></td></tr><tr><td><div>http://www.web2py.com/book/default/chapter/13</div></td></tr></table></div></td></tr><tr><td><div><table><tr><td><div>Autres recettes</div></td></tr><tr><td><div>False</div></td></tr><tr><td><div>http://www.web2py.com/book/default/chapter/14</div></td></tr></table></div></td></tr><tr><td><div><table><tr><td><div>Aider web2py</div></td></tr><tr><td><div>False</div></td></tr><tr><td><div>http://www.web2py.com/book/default/chapter/15</div></td></tr></table></div></td></tr><tr><td><div><table><tr><td><div>Buy web2py\'s book</div></td></tr><tr><td><div>False</div></td></tr><tr><td><div>http://stores.lulu.com/web2py</div></td></tr></table></div></td></tr></table></div></td></tr></table></div></td></tr><tr><td><div><table><tr><td><div>Communaut\xc3\xa9</div></td></tr><tr><td><div>False</div></td></tr><tr><td><div>None</div></td></tr><tr><td><div><table><tr><td><div><table><tr><td><div>Groupes</div></td></tr><tr><td><div>False</div></td></tr><tr><td><div>http://www.web2py.com/examples/default/usergroups</div></td></tr></table></div></td></tr><tr><td><div><table><tr><td><div>Twitter</div></td></tr><tr><td><div>False</div></td></tr><tr><td><div>http://twitter.com/web2py</div></td></tr></table></div></td></tr><tr><td><div><table><tr><td><div>Clavardage en direct</div></td></tr><tr><td><div>False</div></td></tr><tr><td><div>http://webchat.freenode.net/?channels=web2py</div></td></tr></table></div></td></tr></table></div></td></tr></table></div></td></tr></table></div></td></tr><tr><td style="font-weight:bold;vertical-align:top;">meta</td><td style="vertical-align:top;">:</td><td><div><table><tr><td style="font-weight:bold;vertical-align:top;">author</td><td style="vertical-align:top;">:</td><td><div>Your Name &lt;you@example.com&gt;</div></td></tr><tr><td style="font-weight:bold;vertical-align:top;">description</td><td style="vertical-align:top;">:</td><td><div>a cool new app</div></td></tr><tr><td style="font-weight:bold;vertical-align:top;">generator</td><td style="vertical-align:top;">:</td><td><div>Web2py Web Framework</div></td></tr><tr><td style="font-weight:bold;vertical-align:top;">keywords</td><td style="vertical-align:top;">:</td><td><div><table><tr><td><div>web2py</div></td></tr><tr><td><div>python</div></td></tr><tr><td><div>framework</div></td></tr></table></div></td></tr></table></div></td></tr><tr><td style="font-weight:bold;vertical-align:top;">models_to_run</td><td style="vertical-align:top;">:</td><td><div><table><tr><td><div>^\\w+\\.py$</div></td></tr><tr><td><div>^depute/\\w+\\.py$</div></td></tr><tr><td><div>^depute/index/\\w+\\.py$</div></td></tr></table></div></td></tr><tr><td style="font-weight:bold;vertical-align:top;">postprocessing</td><td style="vertical-align:top;">:</td><td><div><table></table></div></td></tr><tr><td style="font-weight:bold;vertical-align:top;">session_client</td><td style="vertical-align:top;">:</td><td><div>83.203.181.3</div></td></tr><tr><td style="font-weight:bold;vertical-align:top;">session_cookie_compression_level</td><td style="vertical-align:top;">:</td><td><div>None</div></td></tr><tr><td style="font-weight:bold;vertical-align:top;">session_cookie_expires</td><td style="vertical-align:top;">:</td><td><div>None</div></td></tr><tr><td style="font-weight:bold;vertical-align:top;">session_data_name</td><td style="vertical-align:top;">:</td><td><div>session_data_oadev</div></td></tr><tr><td style="font-weight:bold;vertical-align:top;">session_file</td><td style="vertical-align:top;">:</td><td><div>None</div></td></tr><tr><td style="font-weight:bold;vertical-align:top;">session_filename</td><td style="vertical-align:top;">:</td><td><div>/home/www-data/web2py/applications/oadev/sessions/83.203.181.3-24f317e5-a3de-48a0-9cfc-a25878a26020</div></td></tr><tr><td style="font-weight:bold;vertical-align:top;">session_hash</td><td style="vertical-align:top;">:</td><td><div>c0762cbf4baf7f9af97c051e7fcb8083</div></td></tr><tr><td style="font-weight:bold;vertical-align:top;">session_id</td><td style="vertical-align:top;">:</td><td><div>83.203.181.3-24f317e5-a3de-48a0-9cfc-a25878a26020</div></td></tr><tr><td style="font-weight:bold;vertical-align:top;">session_id_name</td><td style="vertical-align:top;">:</td><td><div>session_id_oadev</div></td></tr><tr><td style="font-weight:bold;vertical-align:top;">session_masterapp</td><td style="vertical-align:top;">:</td><td><div>oadev</div></td></tr><tr><td style="font-weight:bold;vertical-align:top;">session_new</td><td style="vertical-align:top;">:</td><td><div>True</div></td></tr><tr><td style="font-weight:bold;vertical-align:top;">session_storage_type</td><td style="vertical-align:top;">:</td><td><div>file</div></td></tr><tr><td style="font-weight:bold;vertical-align:top;">status</td><td style="vertical-align:top;">:</td><td><div>200</div></td></tr><tr><td style="font-weight:bold;vertical-align:top;">subtitle</td><td style="vertical-align:top;">:</td><td><div></div></td></tr><tr><td style="font-weight:bold;vertical-align:top;">title</td><td style="vertical-align:top;">:</td><td><div>Oadev</div></td></tr><tr><td style="font-weight:bold;vertical-align:top;">view</td><td style="vertical-align:top;">:</td><td><div>depute/index.html</div></td></tr></table></div>'
tRp113
sS'locals'
p114
(dp115
S'Service'
p116
S"<class 'gluon.tools.Service'>"
p117
sS'PY2'
p118
S'True'
p119
sS'OBJECT'
p120
S"<class 'gluon.html.OBJECT'>"
p121
sS'IS_IPV6'
p122
S"<class 'gluon.validators.IS_IPV6'>"
p123
sS'SQLDB'
p124
S"<class 'pydal.base.DAL'>"
p125
sS'colors'
p126
S"{'FI': 'rgba(12,195,214,1)', 'GDR': 'rgba(192,0,0,1)', 'LC': 'rgba(112,48,160,1)', 'LR': 'rgba(47,85,151,1)', 'MODEM': 'rgba(237,125,49,1)', 'NG': 'rgba(234,52,208,1)', 'NI': 'rgba(191,191,191,1)', 'REM': 'rgba(255,192,0,1)'}"
p127
sg106
S'<Storage {}>'
p128
sS'LINK'
p129
S"<class 'gluon.html.LINK'>"
p130
sS'BR'
p131
S"<class 'gluon.html.BR'>"
p132
sS'local_import'
p133
S'<function <lambda>>'
p134
sVdepute_suppleant
p135
S"u'Mme Sophie Camard'"
p136
sVdepute_dateelec
p137
S"u'18/06/2017'"
p138
sS'__package__'
p139
S'None'
p140
sS'PRE'
p141
S"<class 'gluon.html.PRE'>"
p142
sS'IS_INT_IN_RANGE'
p143
S"<class 'gluon.validators.IS_INT_IN_RANGE'>"
p144
sS'votes'
p145
S'[{u\'_id\': ObjectId(\'59b046768e5c9b409a6afe86\'), u\'depute_age\': 66, u\'depute_classeage\': u\'60-70 ans\', u\'depute_csp\': u\'Cadres et professions intellectuelles sup\\xe9rieures\', u\'depute_departement\': u\'Bouches-du-Rh\\xf4ne\', u\'depute_nom\': u\'M. Jean-Luc M\\xe9lenchon\', u\'depute_region\': u"Provence-Alpes-C\\xf4te d\'Azur", u\'depute_sexe\': u\'Femme\', u\'depute_typeregion\': u\'M\\xe9tropolitain\', u\'depute_uid\': u\'PA2150\', ...}, {u\'_id\': ObjectId(\'59b046768e5c9b409a6afe87\'), u\'depute_age\': 66, u\'depute_classeage\': u\'60-70 ans\', u\'depute_csp\': u\'Cadres et professions intellectuelles sup\\xe9rieures\', u\'depute_departement\': u\'Bouches-du-Rh\\xf4ne\', u\'depute_nom\': u\'M. Jean-Luc M\\xe9lenchon\', u\'depute_region\': u"Provence-Alpes-C\\xf4te d\'Azur", u\'depute_sexe\': u\'Femme\', u\'depute_typeregion\': u\'M\\xe9tropolitain\', u\'depute_uid\': u\'PA2150\', ...}, {u\'_id\': ObjectId(\'59b046768e5c9b409a6afe88\'), u\'depute_age\': 66, u\'depute_classeage\': u\'60-70 ans\', u\'depute_csp\': u\'Cadres et professions intellectuelles sup\\xe9rieures\', u\'depute_departement\': u\'Bouches-du-Rh\\xf4ne\', u\'depute_nom\': u\'M. Jean-Luc M\\xe9lenchon\', u\'depute_region\': u"Provence-Alpes-C\\xf4te d\'Azur", u\'depute_sexe\': u\'Femme\', u\'depute_typeregion\': u\'M\\xe9tropolitain\', u\'depute_uid\': u\'PA2150\', ...}, {u\'_id\': ObjectId(\'59b046768e5c9b409a6afe89\'), u\'depute_age\': 66, u\'depute_classeage\': u\'60-70 ans\', u\'depute_csp\': u\'Cadres et professions intellectuelles sup\\xe9rieures\', u\'depute_departement\': u\'Bouches-du-Rh\\xf4ne\', u\'depute_nom\': u\'M. Jean-Luc M\\xe9lenchon\', u\'depute_region\': u"Provence-Alpes-C\\xf4te d\'Azur", u\'depute_sexe\': u\'Femme\', u\'depute_typeregion\': u\'M\\xe9tropolitain\', u\'depute_uid\': u\'PA2150\', ...}, {u\'_id\': ObjectId(\'59b046768e5c9b409a6afe8a\'), u\'depute_age\': 66, u\'depute_classeage\': u\'60-70 ans\', u\'depute_csp\': u\'Cadres et professions intellectuelles sup\\xe9rieures\', u\'depute_departement\': u\'Bouches-du-Rh\\xf4ne\', u\'depute_nom\': u\'M. Jean-Luc M\\xe9lenchon\', u\'depute_region\': u"Provence-Alpes-C\\xf4te d\'Azur", u\'depute_sexe\': u\'Femme\', u\'depute_typeregion\': u\'M\\xe9tropolitain\', u\'depute_uid\': u\'PA2150\', ...}, {u\'_id\': ObjectId(\'59b046768e5c9b409a6afe8b\'), u\'depute_age\': 66, u\'depute_classeage\': u\'60-70 ans\', u\'depute_csp\': u\'Cadres et professions intellectuelles sup\\xe9rieures\', u\'depute_departement\': u\'Bouches-du-Rh\\xf4ne\', u\'depute_nom\': u\'M. Jean-Luc M\\xe9lenchon\', u\'depute_region\': u"Provence-Alpes-C\\xf4te d\'Azur", u\'depute_sexe\': u\'Femme\', u\'depute_typeregion\': u\'M\\xe9tropolitain\', u\'depute_uid\': u\'PA2150\', ...}, {u\'_id\': ObjectId(\'59b046768e5c9b409a6afe7b\'), u\'depute_age\': 66, u\'depute_classeage\': u\'60-70 ans\', u\'depute_csp\': u\'Cadres et professions intellectuelles sup\\xe9rieures\', u\'depute_departement\': u\'Bouches-du-Rh\\xf4ne\', u\'depute_nom\': u\'M. Jean-Luc M\\xe9lenchon\', u\'depute_region\': u"Provence-Alpes-C\\xf4te d\'Azur", u\'depute_sexe\': u\'Femme\', u\'depute_typeregion\': u\'M\\xe9tropolitain\', u\'depute_uid\': u\'PA2150\', ...}, {u\'_id\': ObjectId(\'59b046768e5c9b409a6afe7c\'), u\'depute_age\': 66, u\'depute_classeage\': u\'60-70 ans\', u\'depute_csp\': u\'Cadres et professions intellectuelles sup\\xe9rieures\', u\'depute_departement\': u\'Bouches-du-Rh\\xf4ne\', u\'depute_nom\': u\'M. Jean-Luc M\\xe9lenchon\', u\'depute_region\': u"Provence-Alpes-C\\xf4te d\'Azur", u\'depute_sexe\': u\'Femme\', u\'depute_typeregion\': u\'M\\xe9tropolitain\', u\'depute_uid\': u\'PA2150\', ...}, {u\'_id\': ObjectId(\'59b046768e5c9b409a6afe7d\'), u\'depute_age\': 66, u\'depute_classeage\': u\'60-70 ans\', u\'depute_csp\': u\'Cadres et professions intellectuelles sup\\xe9rieures\', u\'depute_departement\': u\'Bouches-du-Rh\\xf4ne\', u\'depute_nom\': u\'M. Jean-Luc M\\xe9lenchon\', u\'depute_region\': u"Provence-Alpes-C\\xf4te d\'Azur", u\'depute_sexe\': u\'Femme\', u\'depute_typeregion\': u\'M\\xe9tropolitain\', u\'depute_uid\': u\'PA2150\', ...}, {u\'_id\': ObjectId(\'59b046768e5c9b409a6afe7e\'), u\'depute_age\': 66, u\'depute_classeage\': u\'60-70 ans\', u\'depute_csp\': u\'Cadres et professions intellectuelles sup\\xe9rieures\', u\'depute_departement\': u\'Bouches-du-Rh\\xf4ne\', u\'depute_nom\': u\'M. Jean-Luc M\\xe9lenchon\', u\'depute_region\': u"Provence-Alpes-C\\xf4te d\'Azur", u\'depute_sexe\': u\'Femme\', u\'depute_typeregion\': u\'M\\xe9tropolitain\', u\'depute_uid\': u\'PA2150\', ...}, {u\'_id\': ObjectId(\'59b046768e5c9b409a6afe7f\'), u\'depute_age\': 66, u\'depute_classeage\': u\'60-70 ans\', u\'depute_csp\': u\'Cadres et professions intellectuelles sup\\xe9rieures\', u\'depute_departement\': u\'Bouches-du-Rh\\xf4ne\', u\'depute_nom\': u\'M. Jean-Luc M\\xe9lenchon\', u\'depute_region\': u"Provence-Alpes-C\\xf4te d\'Azur", u\'depute_sexe\': u\'Femme\', u\'depute_typeregion\': u\'M\\xe9tropolitain\', u\'depute_uid\': u\'PA2150\', ...}, {u\'_id\': ObjectId(\'59b046768e5c9b409a6afe80\'), u\'depute_age\': 66, u\'depute_classeage\': u\'60-70 ans\', u\'depute_csp\': u\'Cadres et professions intellectuelles sup\\xe9rieures\', u\'depute_departement\': u\'Bouches-du-Rh\\xf4ne\', u\'depute_nom\': u\'M. Jean-Luc M\\xe9lenchon\', u\'depute_region\': u"Provence-Alpes-C\\xf4te d\'Azur", u\'depute_sexe\': u\'Femme\', u\'depute_typeregion\': u\'M\\xe9tropolitain\', u\'depute_uid\': u\'PA2150\', ...}, {u\'_id\': ObjectId(\'59b046768e5c9b409a6afe81\'), u\'depute_age\': 66, u\'depute_classeage\': u\'60-70 ans\', u\'depute_csp\': u\'Cadres et professions intellectuelles sup\\xe9rieures\', u\'depute_departement\': u\'Bouches-du-Rh\\xf4ne\', u\'depute_nom\': u\'M. Jean-Luc M\\xe9lenchon\', u\'depute_region\': u"Provence-Alpes-C\\xf4te d\'Azur", u\'depute_sexe\': u\'Femme\', u\'depute_typeregion\': u\'M\\xe9tropolitain\', u\'depute_uid\': u\'PA2150\', ...}, {u\'_id\': ObjectId(\'59b046768e5c9b409a6afe82\'), u\'depute_age\': 66, u\'depute_classeage\': u\'60-70 ans\', u\'depute_csp\': u\'Cadres et professions intellectuelles sup\\xe9rieures\', u\'depute_departement\': u\'Bouches-du-Rh\\xf4ne\', u\'depute_nom\': u\'M. Jean-Luc M\\xe9lenchon\', u\'depute_region\': u"Provence-Alpes-C\\xf4te d\'Azur", u\'depute_sexe\': u\'Femme\', u\'depute_typeregion\': u\'M\\xe9tropolitain\', u\'depute_uid\': u\'PA2150\', ...}, {u\'_id\': ObjectId(\'59b046768e5c9b409a6afe83\'), u\'depute_age\': 66, u\'depute_classeage\': u\'60-70 ans\', u\'depute_csp\': u\'Cadres et professions intellectuelles sup\\xe9rieures\', u\'depute_departement\': u\'Bouches-du-Rh\\xf4ne\', u\'depute_nom\': u\'M. Jean-Luc M\\xe9lenchon\', u\'depute_region\': u"Provence-Alpes-C\\xf4te d\'Azur", u\'depute_sexe\': u\'Femme\', u\'depute_typeregion\': u\'M\\xe9tropolitain\', u\'depute_uid\': u\'PA2150\', ...}, {u\'_id\': ObjectId(\'59b046768e5c9b409a6afe84\'), u\'depute_age\': 66, u\'depute_classeage\': u\'60-70 ans\', u\'depute_csp\': u\'Cadres et professions intellectuelles sup\\xe9rieures\', u\'depute_departement\': u\'Bouches-du-Rh\\xf4ne\', u\'depute_nom\': u\'M. Jean-Luc M\\xe9lenchon\', u\'depute_region\': u"Provence-Alpes-C\\xf4te d\'Azur", u\'depute_sexe\': u\'Femme\', u\'depute_typeregion\': u\'M\\xe9tropolitain\', u\'depute_uid\': u\'PA2150\', ...}, {u\'_id\': ObjectId(\'59b046768e5c9b409a6afe85\'), u\'depute_age\': 66, u\'depute_classeage\': u\'60-70 ans\', u\'depute_csp\': u\'Cadres et professions intellectuelles sup\\xe9rieures\', u\'depute_departement\': u\'Bouches-du-Rh\\xf4ne\', u\'depute_nom\': u\'M. Jean-Luc M\\xe9lenchon\', u\'depute_region\': u"Provence-Alpes-C\\xf4te d\'Azur", u\'depute_sexe\': u\'Femme\', u\'depute_typeregion\': u\'M\\xe9tropolitain\', u\'depute_uid\': u\'PA2150\', ...}, {u\'_id\': ObjectId(\'59b046768e5c9b409a6afe6f\'), u\'depute_age\': 66, u\'depute_classeage\': u\'60-70 ans\', u\'depute_csp\': u\'Cadres et professions intellectuelles sup\\xe9rieures\', u\'depute_departement\': u\'Bouches-du-Rh\\xf4ne\', u\'depute_nom\': u\'M. Jean-Luc M\\xe9lenchon\', u\'depute_region\': u"Provence-Alpes-C\\xf4te d\'Azur", u\'depute_sexe\': u\'Femme\', u\'depute_typeregion\': u\'M\\xe9tropolitain\', u\'depute_uid\': u\'PA2150\', ...}, {u\'_id\': ObjectId(\'59b046768e5c9b409a6afe70\'), u\'depute_age\': 66, u\'depute_classeage\': u\'60-70 ans\', u\'depute_csp\': u\'Cadres et professions intellectuelles sup\\xe9rieures\', u\'depute_departement\': u\'Bouches-du-Rh\\xf4ne\', u\'depute_nom\': u\'M. Jean-Luc M\\xe9lenchon\', u\'depute_region\': u"Provence-Alpes-C\\xf4te d\'Azur", u\'depute_sexe\': u\'Femme\', u\'depute_typeregion\': u\'M\\xe9tropolitain\', u\'depute_uid\': u\'PA2150\', ...}, {u\'_id\': ObjectId(\'59b046768e5c9b409a6afe71\'), u\'depute_age\': 66, u\'depute_classeage\': u\'60-70 ans\', u\'depute_csp\': u\'Cadres et professions intellectuelles sup\\xe9rieures\', u\'depute_departement\': u\'Bouches-du-Rh\\xf4ne\', u\'depute_nom\': u\'M. Jean-Luc M\\xe9lenchon\', u\'depute_region\': u"Provence-Alpes-C\\xf4te d\'Azur", u\'depute_sexe\': u\'Femme\', u\'depute_typeregion\': u\'M\\xe9tropolitain\', u\'depute_uid\': u\'PA2150\', ...}, ...]'
p146
sS'to_bytes'
p147
S'<function to_bytes>'
p148
sS'IS_LOWER'
p149
S"<class 'gluon.validators.IS_LOWER'>"
p150
sS'IS_STRONG'
p151
S"<class 'gluon.validators.IS_STRONG'>"
p152
sS'cache'
p153
S'<gluon.cache.Cache object>'
p154
sS'vide'
p155
S'<function vide>'
p156
sS'IS_IN_DB'
p157
S"<class 'gluon.validators.IS_IN_DB'>"
p158
sS'TAG'
p159
S'<gluon.html.__TAG__ object>'
p160
sVdeputes_nuages
p161
g21
sS'CRYPT'
p162
S"<class 'gluon.validators.CRYPT'>"
p163
sS'SQLField'
p164
S"<class 'pydal.objects.Field'>"
p165
sS'mail'
p166
S'<gluon.tools.Mail object>'
p167
sS'_c'
p168
S"{u'_id': ObjectId('59b9502d6d8669a20455645e'), u'carte': u'france', u'd': u'm 890.32479,972.23516 0.1504,-0.6554 -1.8929,-...0.7872,-0.1695 -0.6628,-0.3749 -0.3165,-0.2521 z', u'dep': u'013', u'desc': u'Partie du 14e arrondissement municipal non comprise dans la 3e circonscription', u'h': u'8.393310546875', u'id': u'013-07', u'paris': False, u'title': u'Septi\\xe8me circonscription des Bouches-du-Rh\\xf4ne', u'ville': True, ...}"
p169
sS'BODY'
p170
S"<class 'gluon.html.BODY'>"
p171
sS'IS_DATE_IN_RANGE'
p172
S"<class 'gluon.validators.IS_DATE_IN_RANGE'>"
p173
sVdepute_circo
p174
S"u'4'"
p175
sS'IFRAME'
p176
S"<class 'gluon.html.IFRAME'>"
p177
sS'URL'
p178
S'<function URL>'
p179
sS'__file__'
p180
S"'/home/www-data/web2py/applications/oadev/views/svg/gauge.svg'"
p181
sS'db'
p182
S'<DAL uri="sqlite://storage.sqlite">'
p183
sS'hashlib'
p184
S"<module 'hashlib' from '/usr/lib/python2.7/hashlib.pyc'>"
p185
sS'auth'
p186
S'<gluon.tools.Auth object>'
p187
sS'nuages_excl'
p188
S"('ministre', 'monsieur', u'coll\\xe8gue', 'madame', 'premier', 'cher', 'effet', 'commission', 'parlementaire', u'd\\xe9put\\xe9', 'deux', 'amendement', 'sujet', 'texte', 'an', 'fois', 'lieu', 'trois', 'mois', 'rapporteur', ...)"
p189
sVdepute_departement_id
p190
S"u'013'"
p191
sS'P'
S"<class 'gluon.html.P'>"
p192
sS'CAT'
p193
S"<class 'gluon.html.CAT'>"
p194
sS'TFOOT'
p195
S"<class 'gluon.html.TFOOT'>"
p196
sS'iteritems'
p197
S'<function <lambda>>'
p198
sVdepute_contacts
p199
S"[{u'lien': u'mailto:jean-luc.melenchon@assemblee-nationale.fr', u'type': u'mail'}, {u'lien': u'http://www.melenchon.fr', u'type': u'site'}, {u'lien': u'https://fr-fr.facebook.com/jlmelenchon/', u'type': u'facebook'}, {u'lien': u'https://twitter.com/@jlmelenchon/', u'type': u'twitter'}]"
p200
sS'XHTML'
p201
S"<class 'gluon.html.XHTML'>"
p202
sS'datetime'
p203
S"<module 'datetime' (built-in)>"
p204
sS'ON'
p205
g119
sS'THEAD'
p206
S"<class 'gluon.html.THEAD'>"
p207
sS'OL'
p208
S"<class 'gluon.html.OL'>"
p209
sVgroupe_qualite
p210
S"u'Pr\\xe9sident'"
p211
sS'TEXTAREA'
p212
S"<class 'gluon.html.TEXTAREA'>"
p213
sS'MENU'
p214
S"<class 'gluon.html.MENU'>"
p215
sS'AppCache'
p216
S'<class __restricted__.AppCache>'
p217
sS'IS_IPADDRESS'
p218
S"<class 'gluon.validators.IS_IPADDRESS'>"
p219
sS'IS_IMAGE'
p220
S"<class 'gluon.validators.IS_IMAGE'>"
p221
sS'EM'
p222
S"<class 'gluon.html.EM'>"
p223
sS'CODE'
p224
S"<class 'gluon.html.CODE'>"
p225
sS'HTTP'
p226
S"<class 'gluon.http.HTTP'>"
p227
sS'locale'
p228
S"<module 'locale' from '/home/www-data/web2py/app...tions/obsas_dev/.pyenv/lib/python2.7/locale.pyc'>"
p229
sS'IS_DATETIME'
p230
S"<class 'gluon.validators.IS_DATETIME'>"
p231
sS'reduce'
p232
S'<built-in function reduce>'
p233
sS'STYLE'
p234
S"<class 'gluon.html.STYLE'>"
p235
sS'tinyurl'
p236
S'<__restricted__.TinyURL instance>'
p237
sS'LABEL'
p238
S"<class 'gluon.html.LABEL'>"
p239
sS'OPTGROUP'
p240
S"<class 'gluon.html.OPTGROUP'>"
p241
sS'CLEANUP'
p242
S"<class 'gluon.validators.CLEANUP'>"
p243
sS'departements_ids'
p244
S"{u'Ain': '001', u'Aisne': '002', u'Allier': '003', u'Alpes-Maritimes': '006', u'Alpes-de-Haute-Provence': '004', u'Ardennes': '008', u'Ard\\xe8che': '007', u'Ari\\xe8ge': '009', u'Aube': '010', u'Aude': '011', ...}"
p245
sS'svgcirco'
p246
S'<function svgcirco>'
p247
sS'plugins'
p248
S'<gluon.tools.PluginManager object>'
p249
sS'SELECT'
p250
S"<class 'gluon.html.SELECT'>"
p251
sVstats
p252
S"{u'compat': {u'FI': 100.0, u'GDR': 92.105, u'LC': 14.474, u'LR': 15.789, u'MODEM': 7.895, u'NG': 71.053, u'NI': 50.0, u'REM': 2.632}, u'compat_sort': [{u'g': u'FI', u'p': 100.0}, {u'g': u'GDR', u'p': 92.105}, {u'g': u'NG', u'p': 71.053}, {u'g': u'NI', u'p': 50.0}, {u'g': u'LR', u'p': 15.789}, {u'g': u'LC', u'p': 14.474}, {u'g': u'MODEM', u'p': 7.895}, {u'g': u'REM', u'p': 2.632}], u'nbitvs': 312, u'nbmots': 23166, u'positions': {u'absent': 36.134, u'abstention': 6.723, u'contre': 10.084, u'dissidence': 0.0, u'exprimes': 63.866, u'pour': 47.059}, u'ranks': {u'absent': 518, u'abstention': 29, u'compatFI': None, u'compatGDR': None, u'compatLC': None, u'compatLR': None, u'compatMODEM': None, u'compatNG': None, u'compatNI': None, u'compatREM': None, ...}}"
p253
sS'CENTER'
p254
S"<class 'gluon.html.CENTER'>"
p255
sS'axes'
p256
S'{\'ages\': {\'elements\': \'G\', \'libelle\': "Classes d\'age", \'source\': {\'filtre\': {}, \'key\': \'classeage\', \'label\': \'classeage\', \'nom\': \'acteurs\'}, \'titre\': "Votes par classe d\'age", \'tri_defaut\': (\'alpha\', False), \'votes\': {\'field\': \'classeage\'}}, \'assemblee\': {\'elements\': \'G\', \'hidechart\': False, \'libelle\': \'Assembl\\xc3\\xa9e\', \'source\': {\'filtre\': {\'actif\': True, \'codeType\': \'ASSEMBLEE\'}, \'key\': \'libelleAbrev\', \'label\': \'libelle\', \'nom\': \'organes\'}, \'titre\': "Votes de l\'Assembl\\xc3\\xa9e", \'tri_defaut\': (\'alpha\', False), \'votes\': {\'field\': \'organes\'}}, \'commissions\': {\'elements\': \'G\', \'libelle\': \'Commissions\', \'source\': {\'filtre\': {\'$and\': [{\'$or\': [...]}, {\'actif\': True}]}, \'key\': \'uid\', \'label\': \'libelle\', \'nom\': \'organes\'}, \'titre\': \'Votes par Commissions\', \'tri_defaut\': (\'alpha\', False), \'votes\': {\'field\': \'commissions\'}}, \'csp\': {\'elements\': \'G\', \'libelle\': \'Cat\\xc3\\xa9gorie Socio-professionnelle\', \'source\': {\'filtre\': {}, \'key\': \'csp\', \'label\': \'csp\', \'nom\': \'acteurs\'}, \'titre\': \'Votes par Cat\\xc3\\xa9gorie Socio-professionnelle\', \'tri_defaut\': (\'alpha\', False), \'votes\': {\'field\': \'csp\'}}, \'departements\': {\'elements\': \'G\', \'libelle\': \'D\\xc3\\xa9partements\', \'source\': {\'filtre\': {}, \'key\': \'departement\', \'label\': \'departement\', \'nom\': \'acteurs\'}, \'titre\': \'Votes par D\\xc3\\xa9partements\', \'tri_defaut\': (\'alpha\', False), \'votes\': {\'field\': \'departement\'}}, \'depute\': {\'elements\': \'P\', \'libelle\': \'D\\xc3\\xa9put\\xc3\\xa9s\', \'source\': {\'filtre\': {}, \'key\': \'uid\', \'label\': \'prenomnom\', \'nom\': \'acteurs\'}, \'titre\': \'Votes par d\\xc3\\xa9put\\xc3\\xa9\', \'tri_defaut\': (\'alphanom\', False), \'votes\': {\'field\': \'uid\'}}, \'dossierleg\': {\'elements\': \'G\', \'libelle\': \'Dossier l\\xc3\\xa9gislatif\', \'source\': {\'filtre\': {}, \'key\': \'scrutin_dossier\', \'label\': \'scrutin_dossierLibelle\', \'nom\': \'scrutins\'}, \'titre\': \'Votes par dossier l\\xc3\\xa9gislatif\', \'tri_defaut\': (\'alpha\', False), \'votes\': {\'field\': \'scrutin_dossier\'}}, \'groupes\': {\'elements\': \'G\', \'hidechart\': False, \'libelle\': \'Groupes\', \'source\': {\'filtre\': {\'actif\': True, \'codeType\': \'GP\'}, \'key\': \'uid\', \'label\': \'libelle\', \'nom\': \'organes\'}, \'titre\': \'Votes par Groupe parlementaire\', \'tri_defaut\': (\'alpha\', False), \'votes\': {\'field\': \'groupe\'}}, \'regions\': {\'elements\': \'G\', \'libelle\': \'R\\xc3\\xa9gions\', \'source\': {\'filtre\': {}, \'key\': \'region\', \'label\': \'region\', \'nom\': \'acteurs\'}, \'titre\': \'Votes par R\\xc3\\xa9gions\', \'tri_defaut\': (\'alpha\', False), \'votes\': {\'field\': \'region\'}}, \'scrutin\': {\'elements\': \'G\', \'libelle\': \'Scrutins\', \'source\': {\'filtre\': {}, \'key\': \'scrutin_id\', \'label\': \'scrutin_fulldesc\', \'nom\': \'scrutins\'}, \'titre\': \'Votes par scrutin\', \'tri_defaut\': (\'datescrutin\', True), \'tris\': [\'datescrutin\'], \'votes\': {\'field\': \'scrutin_id\'}}, ...}'
p257
sS'Auth'
p258
S"<class 'gluon.tools.Auth'>"
p259
sS'DEVELOPMENT_MENU'
p260
g119
sS'__builtins__'
p261
S"{'ArithmeticError': <type 'exceptions.ArithmeticError'>, 'AssertionError': <type 'exceptions.AssertionError'>, 'AttributeError': <type 'exceptions.AttributeError'>, 'BaseException': <type 'exceptions.BaseException'>, 'BufferError': <type 'exceptions.BufferError'>, 'BytesWarning': <type 'exceptions.BytesWarning'>, 'DeprecationWarning': <type 'exceptions.DeprecationWarning'>, 'EOFError': <type 'exceptions.EOFError'>, 'Ellipsis': Ellipsis, 'EnvironmentError': <type 'exceptions.EnvironmentError'>, ...}"
p262
sS'HTML'
p263
S"<class 'gluon.html.HTML'>"
p264
sS'filtresitm_order'
p265
S"['participation', 'ficompat', 'emcompat']"
p266
sS'SQLFORM'
p267
S"<class 'gluon.sqlhtml.SQLFORM'>"
p268
sVdepute_id
p269
S"u'm.jeanlucmelenchon'"
p270
sS'LOAD'
p271
S'<function LOAD>'
p272
sS'redirect'
p273
S'<function redirect>'
p274
sS'FIELDSET'
p275
S"<class 'gluon.html.FIELDSET'>"
p276
sS'embed64'
p277
S'<function embed64>'
p278
sS'IS_EQUAL_TO'
p279
S"<class 'gluon.validators.IS_EQUAL_TO'>"
p280
sS'sortfcts_order'
p281
S"['participation', 'pctpour', 'pctcontre', 'pctabs', 'alpha', 'ficompat', 'emcompat']"
p282
sVdepute_age
p283
S'66'
p284
sS'filtresitm'
p285
S"{'emcompat': {'fct': <function <lambda>>, 'libelle': 'Taux de EM-compatibilit\\xc3\\xa9', 'max': 100, 'min': 0}, 'ficompat': {'fct': <function <lambda>>, 'libelle': 'Taux de FI-compatibilit\\xc3\\xa9', 'max': 100, 'min': 0}, 'participation': {'fct': <function <lambda>>, 'libelle': 'Taux de participation', 'max': 100, 'min': 0}}"
p286
sS'TinyURL'
p287
S'<class __restricted__.TinyURL>'
p288
sVdepute_compat
p289
S"{u'FI': 76, u'GDR': 70, u'LC': 11, u'LR': 12, u'MODEM': 6, u'NG': 54, u'NI': 38, u'REM': 2}"
p290
sS'IS_LIST_OF'
p291
S"<class 'gluon.validators.IS_LIST_OF'>"
p292
sS'__name__'
p293
S"'__restricted__'"
p294
sS'EMBED'
p295
S"<class 'gluon.html.EMBED'>"
p296
sS'_'
S'<function _>'
p297
sVdepute_circo_id
p298
S"u'013-04'"
p299
sS'c'
S"{u'_id': ObjectId('59b9502d6d8669a20455645e'), u'carte': u'france', u'd': u'm 890.32479,972.23516 0.1504,-0.6554 -1.8929,-...0.7872,-0.1695 -0.6628,-0.3749 -0.3165,-0.2521 z', u'dep': u'013', u'desc': u'Partie du 14e arrondissement municipal non comprise dans la 3e circonscription', u'h': u'8.393310546875', u'id': u'013-07', u'paris': False, u'title': u'Septi\\xe8me circonscription des Bouches-du-Rh\\xf4ne', u'ville': True, ...}"
p300
sVdepute_uid
p301
S"u'PA2150'"
p302
sS'myconf'
p303
S"{'forms': {'formstyle': 'bootstrap3_inline', 'se...': {'names': 'localhost:*, 127.0.0.1:*, *:*, *'}}"
p304
sS'IS_NOT_IN_DB'
p305
S"<class 'gluon.validators.IS_NOT_IN_DB'>"
p306
sS'H2'
p307
S"<class 'gluon.html.H2'>"
p308
sS'H3'
p309
S"<class 'gluon.html.H3'>"
p310
sS'AppConfig'
p311
S'<function AppConfig>'
p312
sS'H1'
p313
S"<class 'gluon.html.H1'>"
p314
sS'H6'
p315
S"<class 'gluon.html.H6'>"
p316
sVdepute_typeregion
p317
S"u'M\\xe9tropolitain'"
p318
sS'H4'
p319
S"<class 'gluon.html.H4'>"
p320
sS'H5'
p321
S"<class 'gluon.html.H5'>"
p322
sS'UL'
p323
S"<class 'gluon.html.UL'>"
p324
sS'IS_UPPER'
p325
S"<class 'gluon.validators.IS_UPPER'>"
p326
sVdepute_autresmandats
p327
S'[]'
p328
sS'xmlescape'
p329
S'<function xmlescape>'
p330
sS'IS_TIME'
p331
S"<class 'gluon.validators.IS_TIME'>"
p332
sS'svggauge'
p333
S'<function svggauge>'
p334
sS'co'
p335
S"u'M. Antoine Salles-Papou'"
p336
sS'OPTION'
p337
S"<class 'gluon.html.OPTION'>"
p338
sS'TITLE'
p339
S"<class 'gluon.html.TITLE'>"
p340
sS'color'
p341
S"'#82cde2'"
p342
sS'short_url'
p343
S"<module 'short_url' from '/home/www-data/web2py/.../python2.7/site-packages/short_url/__init__.pyc'>"
p344
sS'IS_EMPTY_OR'
p345
S"<class 'gluon.validators.IS_EMPTY_OR'>"
p346
sS'MARKMIN'
p347
S"<class 'gluon.html.MARKMIN'>"
p348
sVdepute_ddn
p349
S"u'19/08/1951'"
p350
sS'pct'
p351
S'2'
sS'INPUT'
p352
S"<class 'gluon.html.INPUT'>"
p353
sS'STRONG'
p354
S"<class 'gluon.html.STRONG'>"
p355
sS'COL'
p356
S"<class 'gluon.html.COL'>"
p357
sS'unit'
p358
S"'%'"
p359
sVdepute_votes
p360
S"{u'absent': 43, u'abstention': 8, u'compat': {u'FI': 87, u'GDR': 61, u'LC': 45, u'LR': 43, u'MODEM': 39, u'NG': 44, u'NI': 48, u'REM': 39, u'assemblee': 43}, u'contre': 12, u'exprimes': 76, u'pour': 56, u'total': 119, u'votants': 0}"
p361
sS'service'
p362
S'<gluon.tools.Service object>'
p363
sS'SCRIPT'
p364
S"<class 'gluon.html.SCRIPT'>"
p365
sVdepute_deputywatch
p366
S'None'
p367
sS'HR'
p368
S"<class 'gluon.html.HR'>"
p369
sVdepute_mandat_debut
p370
S"u'21/06/2017'"
p371
sVdepute_actif
p372
g119
sS'mdb'
p373
S"Database(MongoClient(host=['localhost:27017'], d...s=dict, tz_aware=False, connect=True), u'obsass')"
p374
sVgroupe_abrev
p375
S"u'FI'"
p376
sS'circo'
p377
S"{u'_id': ObjectId('59b9502c6d8669a20455645b'), u'carte': u'france', u'd': u'm 895.00659,977.05826 0.3374,-0.457 -0.2163,-0...05 0.322,-0.1174 0.8035,0.2981 -0.1718,-1.0916 z', u'dep': u'013', u'desc': u'1er arrondissement municipal', u'h': u'5.28790283203125', u'id': u'013-04', u'paris': False, u'title': u'Quatri\\xe8me circonscription des Bouches-du-Rh\\xf4ne', u'ville': True, ...}"
p378
sVdepute_classeage
p379
S"u'60-70 ans'"
p380
sS'TABLE'
p381
S"<class 'gluon.html.TABLE'>"
p382
sVdepute_naissance
p383
S"u'N\\xe9\\n\\t\\t\\t le 19 ao\\xfbt 1951 \\xe0 Tanger\\xa0(Maroc)'"
p384
sS'IS_IPV4'
p385
S"<class 'gluon.validators.IS_IPV4'>"
p386
sS'IS_LENGTH'
p387
S"<class 'gluon.validators.IS_LENGTH'>"
p388
sVdepute_hatvp
p389
S"[{u'civilite': u'M.', u'classement': u'melenchonaaajeanluc5962', u'date_depot': u'', u'date_publication': u'', u'departement': u'13', u'docurl': u'http://www.hatvp.fr/livraison/dossiers/', u'id_origine': u'2150', u'nom': u'M\\xc9LENCHON', u'nom_fichier': u'', u'open_data': u'', ...}]"
p390
sS'XML'
p391
S"<class 'gluon.html.XML'>"
p392
sVdepute_collaborateurs
p393
S"[u'Mme Lise Maillard', u'M. Antoine Salles-Papou']"
p394
sS'B'
S"<class 'gluon.html.B'>"
p395
sS'IMG'
p396
S"<class 'gluon.html.IMG'>"
p397
sS'SQLTABLE'
p398
S"<class 'gluon.sqlhtml.SQLTABLE'>"
p399
sVdepute_region
p400
S'u"Provence-Alpes-C\\xf4te d\'Azur"'
p401
sS'IS_MATCH'
p402
S"<class 'gluon.validators.IS_MATCH'>"
p403
sVdepute_bureau
p404
S'None'
p405
sS'IS_ALPHANUMERIC'
p406
S"<class 'gluon.validators.IS_ALPHANUMERIC'>"
p407
sVdepute_mandats
p408
S"{u'commissions': [{u'id': u'PO59047', u'lien': u'http://www2.assemblee-nationale.fr/instances/fiche/OMC_PO59047', u'nom': u'Commission des affaires \\xe9trang\\xe8res', u'qualite': u'Membre'}], u'delegations_bureau': [], u'delegations_office': []}"
p409
sVdeputes_mots
p410
S'None'
p411
sVdepute_sexe
p412
S"u'Femme'"
p413
sVdepute_mots
p414
S"{u'noms': {u'abandonn\\xe9': 1, u'aberrant': 1, u'abord': 9, u'abord\\xe9': 1, u'abouti': 1, u'aboutissement': 1, u'abrogation': 1, u'absent': 2, u'absolu': 2, u'abstention': 3, ...}, u'verbes': {u'abandonner': 1, u'aborder': 1, u'aboutir': 3, u'abroger': 1, u'abuser': 2, u'ab\\xeemer': 1, u'accabler': 2, u'accepter': 10, u'accompagner': 1, u'accomplir': 1, ...}}"
p415
sS'iv'
p416
S"{u'_id': ObjectId('59becc016d8669a20455d807'), u'depute_id': u'm.jeanlucmelenchon', u'depute_uid': u'PA2150', u'itv_contenu': u'<p>Monsieur le pr\\xe9sident, je me joins \\xe0 ...<i>quelques </i><i>bancs</i><i>.</i><i>)</i></p>', u'itv_contenu_texte': u'Monsieur le pr\\xe9sident, je me joins \\xe0 tou...nfiance qu\\u2019\\xe0 ceux qui votent pour nous. ', u'itv_ctx': [u'S\\xe9ance du mercredi 28 juin 2017', u'1. \\xc9lection des six vice-pr\\xe9sidents et d... secr\\xe9taires de l\\u2019Assembl\\xe9e nationale', u'Rappel au r\\xe8glement'], u'itv_ctx_n': 1, u'itv_date': u'2017-06-28', u'itv_id': u'20170125.asp450', u'itv_n': 45, ...}"
p417
sS'getVoteData_fct'
p418
S'<function getVoteData_fct>'
p419
sS'axes_order'
p420
S"['assemblee', 'groupes', 'commissions', 'typeregion', 'regions', 'departements', 'ages', 'csp', 'sexe', 'depute', 'scrutin', 'typescrutin', 'dossierleg']"
p421
sVdepute_nom_tri
p422
S"u'M\\xc9LENCHON'"
p423
sS'SPAN'
p424
S"<class 'gluon.html.SPAN'>"
p425
sS'IS_JSON'
p426
S"<class 'gluon.validators.IS_JSON'>"
p427
sS'dep'
p428
S"u'013'"
p429
sS'IS_SLUG'
p430
S"<class 'gluon.validators.IS_SLUG'>"
p431
sVdepute_departement
p432
S"u'Bouches-du-Rh\\xf4ne'"
p433
sVdepute_nuages
p434
S"{u'noms': [[u'entreprise', 174], [u'travail', 167], [u'politique', 167], [u'loi', 151], [u'\\xe9tat', 144], [u'droit', 121], [u'accord', 114], [u'social', 111], [u'va', 98], [u'compte', 91], [u'seul', 85], [u'raison', 78], [u'd\\xe9bat', 78], [u'doit', 72], [u'grand', 72], [u'r\\xe9publique', 68], [u'chose', 68], [u'temps', 65], [u'pays', 62], [u'monde', 62], ...], u'verbes': [[u'faire', 531], [u'pouvoir', 516], [u'vouloir', 293], [u'falloir', 268], [u'croire', 178], [u'venir', 168], [u'prendre', 129], [u'permettre', 124], [u'agir', 119], [u'aller', 119], [u'voir', 114], [u'parler', 114], [u'penser', 104], [u'trouver', 99], [u'mettre', 99], [u'voter', 94], [u'demander', 79], [u'devoir', 79], [u'comprendre', 74], [u'entendre', 74], ...]}"
p435
sVdepute_shortid
p436
S"u'jeanlucmelenchon'"
p437
sS'META'
p438
S"<class 'gluon.html.META'>"
p439
sS'client'
p440
S"MongoClient(host=['localhost:27017'], document_class=dict, tz_aware=False, connect=True)"
p441
sS'v'
S'{u\'_id\': ObjectId(\'59b046768e5c9b409a6afe86\'), u\'depute_age\': 66, u\'depute_classeage\': u\'60-70 ans\', u\'depute_csp\': u\'Cadres et professions intellectuelles sup\\xe9rieures\', u\'depute_departement\': u\'Bouches-du-Rh\\xf4ne\', u\'depute_nom\': u\'M. Jean-Luc M\\xe9lenchon\', u\'depute_region\': u"Provence-Alpes-C\\xf4te d\'Azur", u\'depute_sexe\': u\'Femme\', u\'depute_typeregion\': u\'M\\xe9tropolitain\', u\'depute_uid\': u\'PA2150\', ...}'
p442
sVdepute_commissions
p443
S"[{u'id': u'PO59047', u'lien': u'http://www2.assemblee-nationale.fr/instances/fiche/OMC_PO59047', u'nom': u'Commission des affaires \\xe9trang\\xe8res', u'qualite': u'Membre'}]"
p444
sS'dec'
p445
S"{u'civilite': u'M.', u'classement': u'melenchonaaajeanluc5962', u'date_depot': u'', u'date_publication': u'', u'departement': u'13', u'docurl': u'http://www.hatvp.fr/livraison/dossiers/', u'id_origine': u'2150', u'nom': u'M\\xc9LENCHON', u'nom_fichier': u'', u'open_data': u'', ...}"
p446
sS'pickle'
p447
S"<module 'pickle' from '/usr/lib/python2.7/pickle.pyc'>"
p448
sS'BUTTON'
p449
S"<class 'gluon.html.BUTTON'>"
p450
sVdepute_mandat_fin_cause
p451
S'None'
p452
sVdepute_nom
p453
S"u'M. Jean-Luc M\\xe9lenchon'"
p454
sS'IS_DATE'
p455
S"<class 'gluon.validators.IS_DATE'>"
p456
sS'IS_EMAIL'
p457
S"<class 'gluon.validators.IS_EMAIL'>"
p458
sS'mandats'
p459
S'[]'
p460
sS'IS_NOT_EMPTY'
p461
S"<class 'gluon.validators.IS_NOT_EMPTY'>"
p462
sS'xrange'
p463
S"<type 'xrange'>"
p464
sVgroupe_libelle
p465
S"u'La France insoumise'"
p466
sS'BEAUTIFY'
p467
S"<class 'gluon.html.BEAUTIFY'>"
p468
sS'transp'
p469
S"'0.33'"
p470
sS'TBODY'
p471
S"<class 'gluon.html.TBODY'>"
p472
sS'appcache'
p473
S'<__restricted__.AppCache instance>'
p474
sS'Field'
p475
S"<class 'pydal.objects.Field'>"
p476
sS'stroke'
p477
S"'light'"
p478
sVmots
p479
S'None'
p480
sS'itvs'
p481
S"[{u'_id': ObjectId('59becbe46d8669a20455c763'), u'depute_id': u'm.jeanlucmelenchon', u'depute_uid': u'PA2150', u'itv_contenu': u'<p>Pour notre malheur\\xa0!</p>', u'itv_contenu_texte': u'Pour notre malheur!', u'itv_ctx': [u'S\\xe9ance du mercredi 09 ao\\xfbt 2017', u'2. Questions au Gouvernement', u'Bilan de la session extraordinaire'], u'itv_ctx_n': 14, u'itv_date': u'2017-08-09', u'itv_id': u'20171033.asp730', u'itv_n': 73, ...}, {u'_id': ObjectId('59becbe46d8669a20455c771'), u'depute_id': u'm.jeanlucmelenchon', u'depute_uid': u'PA2150', u'itv_contenu': u'<p>Vos histoires de famille, on s\\u2019en fout\\xa0!</p>', u'itv_contenu_texte': u'Vos histoires de famille, on s\\u2019en fout!', u'itv_ctx': [u'S\\xe9ance du mercredi 09 ao\\xfbt 2017', u'2. Questions au Gouvernement', u'Bilan de la session extraordinaire'], u'itv_ctx_n': 28, u'itv_date': u'2017-08-09', u'itv_id': u'20171033.asp870', u'itv_n': 87, ...}, {u'_id': ObjectId('59becbe46d8669a20455c7a8'), u'depute_id': u'm.jeanlucmelenchon', u'depute_uid': u'PA2150', u'itv_contenu': u'<p>La faute \\xe0 qui\\xa0?</p>', u'itv_contenu_texte': u'La faute \\xe0 qui?', u'itv_ctx': [u'S\\xe9ance du mercredi 09 ao\\xfbt 2017', u'2. Questions au Gouvernement', u'Ma\\xeetrise des flux migratoires'], u'itv_ctx_n': 4, u'itv_date': u'2017-08-09', u'itv_id': u'20171033.asp1420', u'itv_n': 142, ...}, {u'_id': ObjectId('59becbe46d8669a20455c7b0'), u'depute_id': u'm.jeanlucmelenchon', u'depute_uid': u'PA2150', u'itv_contenu': u'<p>Et vous fermez des lyc\\xe9es\\xa0!</p>', u'itv_contenu_texte': u'Et vous fermez des lyc\\xe9es!', u'itv_ctx': [u'S\\xe9ance du mercredi 09 ao\\xfbt 2017', u'2. Questions au Gouvernement', u'Allocation de rentr\\xe9e scolaire'], u'itv_ctx_n': 4, u'itv_date': u'2017-08-09', u'itv_id': u'20171033.asp1500', u'itv_n': 150, ...}, {u'_id': ObjectId('59becbe46d8669a20455c7cf'), u'depute_id': u'm.jeanlucmelenchon', u'depute_uid': u'PA2150', u'itv_contenu': u'<p>Ah oui\\xa0! \\xc0 bas le capital\\xa0!</p>', u'itv_contenu_texte': u'Ah oui! \\xc0 bas le capital!', u'itv_ctx': [u'S\\xe9ance du mercredi 09 ao\\xfbt 2017', u'2. Questions au Gouvernement', u'Privatisation des a\\xe9roports'], u'itv_ctx_n': 2, u'itv_date': u'2017-08-09', u'itv_id': u'20171033.asp1810', u'itv_n': 181, ...}, {u'_id': ObjectId('59becbe46d8669a20455c7e4'), u'depute_id': u'm.jeanlucmelenchon', u'depute_uid': u'PA2150', u'itv_contenu': u'<p>Vous n\\u2019avez encore rien vu\\xa0! Attendez le CETA\\xa0!</p>', u'itv_contenu_texte': u'Vous n\\u2019avez encore rien vu! Attendez le CETA!', u'itv_ctx': [u'S\\xe9ance du mercredi 09 ao\\xfbt 2017', u'2. Questions au Gouvernement', u'\\xc9tiquetage des vins'], u'itv_ctx_n': 4, u'itv_date': u'2017-08-09', u'itv_id': u'20171033.asp2020', u'itv_n': 202, ...}, {u'_id': ObjectId('59becbe46d8669a20455c801'), u'depute_id': u'm.jeanlucmelenchon', u'depute_uid': u'PA2150', u'itv_contenu': u'<p>Tr\\xe8s bien\\xa0!</p>', u'itv_contenu_texte': u'Tr\\xe8s bien!', u'itv_ctx': [u'S\\xe9ance du mercredi 09 ao\\xfbt 2017', u'2. Questions au Gouvernement', u'Taxe de s\\xe9jour'], u'itv_ctx_n': 4, u'itv_date': u'2017-08-09', u'itv_id': u'20171033.asp2310', u'itv_n': 231, ...}, {u'_id': ObjectId('59becbe46d8669a20455c807'), u'depute_id': u'm.jeanlucmelenchon', u'depute_uid': u'PA2150', u'itv_contenu': u'<p>Tr\\xe8s bien\\xa0!</p>', u'itv_contenu_texte': u'Tr\\xe8s bien!', u'itv_ctx': [u'S\\xe9ance du mercredi 09 ao\\xfbt 2017', u'2. Questions au Gouvernement', u'Taxe de s\\xe9jour'], u'itv_ctx_n': 10, u'itv_date': u'2017-08-09', u'itv_id': u'20171033.asp2370', u'itv_n': 237, ...}, {u'_id': ObjectId('59becbe46d8669a20455c826'), u'depute_id': u'm.jeanlucmelenchon', u'depute_uid': u'PA2150', u'itv_contenu': u'<p>Et je suis l\\xe0\\xa0! <i>(Sourires.)</i></p>', u'itv_contenu_texte': u'Et je suis l\\xe0! ', u'itv_ctx': [u'S\\xe9ance du mercredi 09 ao\\xfbt 2017', u'3. Confiance dans la vie politique', u'Pr\\xe9sentation'], u'itv_ctx_n': 5, u'itv_date': u'2017-08-09', u'itv_id': u'20171033.asp2680', u'itv_n': 268, ...}, {u'_id': ObjectId('59becbe56d8669a20455c85c'), u'depute_id': u'm.jeanlucmelenchon', u'depute_uid': u'PA2150', u'itv_contenu': u'<p>Tr\\xe8s bien\\xa0!</p>', u'itv_contenu_texte': u'Tr\\xe8s bien!', u'itv_ctx': [u'S\\xe9ance du mercredi 09 ao\\xfbt 2017', u'3. Confiance dans la vie politique', u'Motion de renvoi en commission'], u'itv_ctx_n': 8, u'itv_date': u'2017-08-09', u'itv_id': u'20171033.asp3210', u'itv_n': 321, ...}, {u'_id': ObjectId('59becbe56d8669a20455c86e'), u'depute_id': u'm.jeanlucmelenchon', u'depute_uid': u'PA2150', u'itv_contenu': u'<p>Tr\\xe8s bien\\xa0!</p>', u'itv_contenu_texte': u'Tr\\xe8s bien!', u'itv_ctx': [u'S\\xe9ance du mercredi 09 ao\\xfbt 2017', u'3. Confiance dans la vie politique', u'Discussion g\\xe9n\\xe9rale'], u'itv_ctx_n': 3, u'itv_date': u'2017-08-09', u'itv_id': u'20171033.asp3390', u'itv_n': 339, ...}, {u'_id': ObjectId('59becbe56d8669a20455c872'), u'depute_id': u'm.jeanlucmelenchon', u'depute_uid': u'PA2150', u'itv_contenu': u'<p>Tr\\xe8s bien.</p>', u'itv_contenu_texte': u'Tr\\xe8s bien.', u'itv_ctx': [u'S\\xe9ance du mercredi 09 ao\\xfbt 2017', u'3. Confiance dans la vie politique', u'Discussion g\\xe9n\\xe9rale'], u'itv_ctx_n': 7, u'itv_date': u'2017-08-09', u'itv_id': u'20171033.asp3430', u'itv_n': 343, ...}, {u'_id': ObjectId('59becbe66d8669a20455c93f'), u'depute_id': u'm.jeanlucmelenchon', u'depute_uid': u'PA2150', u'itv_contenu': u'<p>Ah\\xa0! Le bon temps\\xa0!</p>', u'itv_contenu_texte': u'Ah! Le bon temps!', u'itv_ctx': [u'S\\xe9ance du mercredi 09 ao\\xfbt 2017', u'3. Confiance dans la vie politique', u'Explications de vote'], u'itv_ctx_n': 2, u'itv_date': u'2017-08-09', u'itv_id': u'20171033.asp5440', u'itv_n': 544, ...}, {u'_id': ObjectId('59becbe06d8669a20455c370'), u'depute_id': u'm.jeanlucmelenchon', u'depute_uid': u'PA2150', u'itv_contenu': u'<p>Tr\\xe8s bien\\xa0!</p>', u'itv_contenu_texte': u'Tr\\xe8s bien!', u'itv_ctx': [u'Deuxi\\xe8me s\\xe9ance du jeudi 03 ao\\xfbt 2017', u'1. Confiance dans la vie politique', u'Discussion g\\xe9n\\xe9rale '], u'itv_ctx_n': 6, u'itv_date': u'2017-08-03', u'itv_id': u'20171032.asp230', u'itv_n': 23, ...}, {u'_id': ObjectId('59becbe26d8669a20455c581'), u'depute_id': u'm.jeanlucmelenchon', u'depute_uid': u'PA2150', u'itv_contenu': u'<p>Voil\\xe0\\xa0!</p>', u'itv_contenu_texte': u'Voil\\xe0!', u'itv_ctx': [u'Premi\\xe8re s\\xe9ance du jeudi 03 ao\\xfbt 2017', u'1. Confiance dans la vie politique (projet de loi)', u'Discussion g\\xe9n\\xe9rale'], u'itv_ctx_n': 18, u'itv_date': u'2017-08-03', u'itv_id': u'20171031.asp410', u'itv_n': 41, ...}, {u'_id': ObjectId('59becbe36d8669a20455c626'), u'depute_id': u'm.jeanlucmelenchon', u'depute_uid': u'PA2150', u'itv_contenu': u'<p>Et des sans-culottes\\xa0!</p>', u'itv_contenu_texte': u'Et des sans-culottes!', u'itv_ctx': [u'Premi\\xe8re s\\xe9ance du jeudi 03 ao\\xfbt 2017', u'2. Confiance dans la vie politique (projet de loi organique)', u'Motion de rejet pr\\xe9alable'], u'itv_ctx_n': 12, u'itv_date': u'2017-08-03', u'itv_id': u'20171031.asp2060', u'itv_n': 206, ...}, {u'_id': ObjectId('59becbe36d8669a20455c62e'), u'depute_id': u'm.jeanlucmelenchon', u'depute_uid': u'PA2150', u'itv_contenu': u'<p>Vous semblez vous adresser \\xe0 nous, mais ...9est pas nous qui sommes pas au pouvoir\\xa0!</p>', u'itv_contenu_texte': u'Vous semblez vous adresser \\xe0 nous, mais ce n\\u2019est pas nous qui sommes pas au pouvoir!', u'itv_ctx': [u'Premi\\xe8re s\\xe9ance du jeudi 03 ao\\xfbt 2017', u'2. Confiance dans la vie politique (projet de loi organique)', u'Motion de rejet pr\\xe9alable'], u'itv_ctx_n': 20, u'itv_date': u'2017-08-03', u'itv_id': u'20171031.asp2140', u'itv_n': 214, ...}, {u'_id': ObjectId('59becbe36d8669a20455c657'), u'depute_id': u'm.jeanlucmelenchon', u'depute_uid': u'PA2150', u'itv_contenu': u'<p>Un brave homme\\xa0!</p>', u'itv_contenu_texte': u'Un brave homme!', u'itv_ctx': [u'Premi\\xe8re s\\xe9ance du jeudi 03 ao\\xfbt 2017', u'2. Confiance dans la vie politique (projet de loi organique)', u'Motion de rejet pr\\xe9alable'], u'itv_ctx_n': 61, u'itv_date': u'2017-08-03', u'itv_id': u'20171031.asp2550', u'itv_n': 255, ...}, {u'_id': ObjectId('59becbe36d8669a20455c65e'), u'depute_id': u'm.jeanlucmelenchon', u'depute_uid': u'PA2150', u'itv_contenu': u'<p>S\\u2019il vous pla\\xeet, ce n\\u2019est pas la campagne pour une \\xe9lection cantonale\\xa0!</p>', u'itv_contenu_texte': u'S\\u2019il vous pla\\xeet, ce n\\u2019est pas la campagne pour une \\xe9lection cantonale!', u'itv_ctx': [u'Premi\\xe8re s\\xe9ance du jeudi 03 ao\\xfbt 2017', u'2. Confiance dans la vie politique (projet de loi organique)', u'Motion de rejet pr\\xe9alable'], u'itv_ctx_n': 68, u'itv_date': u'2017-08-03', u'itv_id': u'20171031.asp2620', u'itv_n': 262, ...}, {u'_id': ObjectId('59becbdf6d8669a20455c2cb'), u'depute_id': u'm.jeanlucmelenchon', u'depute_uid': u'PA2150', u'itv_contenu': u'<p>Pas nous\\xa0!</p>', u'itv_contenu_texte': u'Pas nous!', u'itv_ctx': [u'S\\xe9ance du mercredi 02 ao\\xfbt 2017', u'1. Questions au Gouvernement', u'Jeux olympiques de 2024'], u'itv_ctx_n': 7, u'itv_date': u'2017-08-02', u'itv_id': u'20171030.asp750', u'itv_n': 75, ...}, ...]"
p482
sS'IS_LIST_OF_EMAILS'
p483
S"<class 'gluon.validators.IS_LIST_OF_EMAILS'>"
p484
sg67
S"<Storage {'_vars': None, 'function': 'index', 'c...r': '/home/www-data/web2py/applications/oadev/'}>"
p485
sS'DIV'
p486
S"<class 'gluon.html.DIV'>"
p487
sS'LEGEND'
p488
S"<class 'gluon.html.LEGEND'>"
p489
sS'sortfcts'
p490
S"{'alpha': {'fct': <function <lambda>>, 'libelle': 'Ordre Alphab\\xc3\\xa9tique'}, 'alphanom': {'fct': <function <lambda>>, 'libelle': 'Ordre Alphab\\xc3\\xa9tique (nom prenom)'}, 'datescrutin': {'fct': <function <lambda>>, 'libelle': 'par N\\xc2\\xb0 de scrutin'}, 'emcompat': {'fct': <function <lambda>>, 'libelle': 'EM-Compatibilit\\xc3\\xa9'}, 'ficompat': {'fct': <function <lambda>>, 'libelle': 'FI-Compatibilit\\xc3\\xa9'}, 'participation': {'fct': <function <lambda>>, 'libelle': 'Participation'}, 'pctabs': {'fct': <function <lambda>>, 'libelle': '% Votes abstention'}, 'pctcontre': {'fct': <function <lambda>>, 'libelle': '% Votes contre'}, 'pctpour': {'fct': <function <lambda>>, 'libelle': '% Votes pour'}}"
p491
sS'strokewidth'
p492
S'8.393310546875'
p493
sS'svgtop'
p494
S'<function svgtop>'
p495
sS'to_native'
p496
S'<function to_native>'
p497
sS'COLGROUP'
p498
S"<class 'gluon.html.COLGROUP'>"
p499
sS'DAL'
p500
S"<class 'pydal.base.DAL'>"
p501
sS'ASSIGNJS'
p502
S'<function ASSIGNJS>'
p503
sS'TR'
p504
S"<class 'gluon.html.TR'>"
p505
sS'LI'
p506
S"<class 'gluon.html.LI'>"
p507
sVgroupe_uid
p508
S"u'PO730958'"
p509
sS'TH'
p510
S"<class 'gluon.html.TH'>"
p511
sS'TD'
p512
S"<class 'gluon.html.TD'>"
p513
sS'PluginManager'
p514
S"<class 'gluon.tools.PluginManager'>"
p515
sS'IS_URL'
p516
S"<class 'gluon.validators.IS_URL'>"
p517
sVdepute_place
p518
S"u'601'"
p519
sS'A'
S"<class 'gluon.html.A'>"
p520
sS'HEAD'
p521
S"<class 'gluon.html.HEAD'>"
p522
sS'IS_DATETIME_IN_RANGE'
p523
S"<class 'gluon.validators.IS_DATETIME_IN_RANGE'>"
p524
sS'FORM'
p525
S"<class 'gluon.html.FORM'>"
p526
sS'I'
S"<class 'gluon.html.I'>"
p527
sS'symbol'
p528
S'<g\n     transform="translate(100,65),scale(0.14)...ill-opacity:1;stroke-width:0.97821659" />\n  </g>\n'
p529
sS'm'
S"{u'id': u'PO59047', u'lien': u'http://www2.assemblee-nationale.fr/instances/fiche/OMC_PO59047', u'nom': u'Commission des affaires \\xe9trang\\xe8res', u'qualite': u'Membre'}"
p530
sS'pymongo'
p531
S"<module 'pymongo' from '/home/www-data/web2py/ap...ib/python2.7/site-packages/pymongo/__init__.pyc'>"
p532
sVdepute_mandat_fin
p533
S'None'
p534
sVdepute_positions
p535
S"{u'absent': 43, u'abstention': 8, u'contre': 12, u'dissidence': 0, u'exprimes': 76, u'pour': 56, u'total': 119}"
p536
sS'typ'
p537
S"u'delegations_office'"
p538
sg112
S"<Storage {'body': <cStringIO.StringO object at 0...at 0x7f086a341de8>, 'view': 'depute/index.html'}>"
p539
sVdepute_profession
p540
S"u'Professeur'"
p541
sS'ANY_OF'
p542
S"<class 'gluon.validators.ANY_OF'>"
p543
sS'IS_NULL_OR'
p544
S"<class 'gluon.validators.IS_EMPTY_OR'>"
p545
sS'circos'
p546
S'[{u\'_id\': ObjectId(\'59b9502d6d8669a20455645c\'), u\'carte\': u\'france\', u\'d\': u\'m 895.00659,977.05826 0.3374,-0.457 -0.2163,-0...173 0.4455,0.1638 0.358,0.1343 -0.1718,-1.0917 z\', u\'dep\': u\'013\', u\'desc\': u\'4e arrondissement municipal\', u\'h\': u\'4.348388671875\', u\'id\': u\'013-05\', u\'paris\': False, u\'title\': u\'Cinqui\\xe8me circonscription des Bouches-du-Rh\\xf4ne\', u\'ville\': True, ...}, {u\'_id\': ObjectId(\'59b9502c6d8669a20455645b\'), u\'carte\': u\'france\', u\'d\': u\'m 895.00659,977.05826 0.3374,-0.457 -0.2163,-0...05 0.322,-0.1174 0.8035,0.2981 -0.1718,-1.0916 z\', u\'dep\': u\'013\', u\'desc\': u\'1er arrondissement municipal\', u\'h\': u\'5.28790283203125\', u\'id\': u\'013-04\', u\'paris\': False, u\'title\': u\'Quatri\\xe8me circonscription des Bouches-du-Rh\\xf4ne\', u\'ville\': True, ...}, {u\'_id\': ObjectId(\'59b9502c6d8669a2045562e5\'), u\'carte\': u\'france\', u\'d\': u\'m 875.95759,957.14846 -0.695,1.4155 -0.7564,0....-0.4237,-0.9641 -1.3294,-0.4476 -3.2419,2.4247 z\', u\'dep\': u\'013\', u\'desc\': u"Cantons de : Berre-l\'Etang, P\\xe9lissanne, Salon-de-Provence", u\'h\': u\'27.64947509765625\', u\'id\': u\'013-08\', u\'paris\': False, u\'title\': u\'Huiti\\xe8me circonscription des Bouches-du-Rh\\xf4ne\', u\'ville\': False, ...}, {u\'_id\': ObjectId(\'59b9502c6d8669a2045562e6\'), u\'carte\': u\'france\', u\'d\': u\'m 905.57199,981.35656 0.1184,-0.4963 -0.7062,-... 0.1603,-0.3666 -0.3787,-0.6622 -0.5603,-2.231 z\', u\'dep\': u\'013\', u\'desc\': u\'Cantons de : Aubagne Est, Aubagne Ouest, La Ciotat\', u\'h\': u\'20.24249267578125\', u\'id\': u\'013-09\', u\'paris\': False, u\'title\': u\'Neuvi\\xe8me circonscription des Bouches-du-Rh\\xf4ne\', u\'ville\': False, ...}, {u\'_id\': ObjectId(\'59b9502c6d8669a2045562e7\'), u\'carte\': u\'france\', u\'d\': u\'m 901.84019,954.97756 -0.9973,1.1836 -1.3285,0....9908 0.04,0.7407 0.4785,0.5962 -0.1476,0.3529 z\', u\'dep\': u\'013\', u\'desc\': u\'Cantons de : Allauch, Gardanne, Roquevaire, Commune de Meyreuil\', u\'h\': u\'23.14874267578125\', u\'id\': u\'013-10\', u\'paris\': False, u\'title\': u\'Dixi\\xe8me circonscription des Bouches-du-Rh\\xf4ne\', u\'ville\': False, ...}, {u\'_id\': ObjectId(\'59b9502c6d8669a2045562e8\'), u\'carte\': u\'france\', u\'d\': u\'m 883.34599,943.55546 0.3632,0.5861 0.7945,0.8...9 -2.3768,0.2128 -2.3713,-0.343 -0.2241,0.6643 z\', u\'dep\': u\'013\', u\'desc\': u"Cantons de : Aix-en-Provence Nord-Est (partie ...ins la commune de Meyreuil), Les Pennes-Mirabeau", u\'h\': u\'26.9259033203125\', u\'id\': u\'013-11\', u\'paris\': False, u\'title\': u\'Onzi\\xe8me circonscription des Bouches-du-Rh\\xf4ne\', u\'ville\': False, ...}, {u\'_id\': ObjectId(\'59b9502c6d8669a2045562e9\'), u\'carte\': u\'france\', u\'d\': u\'m 866.56509,959.47236 0.022,0.8775 0.5896,2.43...123,0 0.6874,0.4092 0.4599,0.6986 0.017,0.5835 z\', u\'dep\': u\'013\', u\'desc\': u\'Cantons de : Ch\\xe2teauneuf-C\\xf4te-Bleue, Marignane, Vitrolles\', u\'h\': u\'26.874755859375\', u\'id\': u\'013-12\', u\'paris\': False, u\'title\': u\'Douzi\\xe8me circonscription des Bouches-du-Rh\\xf4ne\', u\'ville\': False, ...}, {u\'_id\': ObjectId(\'59b9502c6d8669a2045562ea\'), u\'carte\': u\'france\', u\'d\': u\'m 866.60169,973.97256 -1.5362,-0.4837 -1.6974,...1 -0.5934,0.5699 -1.167,-0.3726 -1.1192,0.4882 z\', u\'dep\': u\'013\', u\'desc\': u\'Cantons de : Istres Sud, Martigues Est, Martigues Ouest, Port-Saint-Louis-du-Rh\\xf4ne\', u\'h\': u\'29.176025390625\', u\'id\': u\'013-13\', u\'paris\': False, u\'title\': u\'Treizi\\xe8me circonscription des Bouches-du-Rh\\xf4ne\', u\'ville\': False, ...}, {u\'_id\': ObjectId(\'59b9502c6d8669a2045562eb\'), u\'carte\': u\'france\', u\'d\': u\'m 900.01539,951.26566 -0.1626,-0.1953 -0.2871,...2 0.01,-0.1321 -0.4103,-0.6542 -0.2455,-0.5171 z\', u\'dep\': u\'013\', u\'desc\': u\'Cantons de : Aix-en-Provence Centre, Aix-en-Pr...e circonscription), Peyrolles-en-Provence, Trets\', u\'h\': u\'38.176025390625\', u\'id\': u\'013-14\', u\'paris\': False, u\'title\': u\'Quatorzi\\xe8me circonscription des Bouches-du-Rh\\xf4ne\', u\'ville\': False, ...}, {u\'_id\': ObjectId(\'59b9502c6d8669a2045562ec\'), u\'carte\': u\'france\', u\'d\': u\'m 838.89989,910.67706 0.01,-1.5782 -0.9676,-0....0.1378,-1.1702 -0.5997,-1.8677 -0.4907,-0.9701 z\', u\'dep\': u\'013\', u\'desc\': u\'Cantons de : Ch\\xe2teaurenard, Eygui\\xe8res, Lambesc, Orgon, Saint-R\\xe9my-de-Provence\', u\'h\': u\'39.4139404296875\', u\'id\': u\'013-15\', u\'paris\': False, u\'title\': u\'Quinzi\\xe8me circonscription des Bouches-du-Rh\\xf4ne\', u\'ville\': False, ...}, {u\'_id\': ObjectId(\'59b9502c6d8669a2045562ed\'), u\'carte\': u\'france\', u\'d\': u\'m 846.07949,972.51626 -3.5567,-1.1705 -3.7485,...62 1.007,1.8007 -0.8317,-0.053 -2.0701,-1.3815 z\', u\'dep\': u\'013\', u\'desc\': u\'Cantons de : Arles Est, Arles Ouest, Istres Nord, Saintes-Maries-de-la-Mer, Tarascon\', u\'h\': u\'67.0572509765625\', u\'id\': u\'013-16\', u\'paris\': False, u\'title\': u\'Seizi\\xe8me circonscription des Bouches-du-Rh\\xf4ne\', u\'ville\': False, ...}, {u\'_id\': ObjectId(\'59b9502c6d8669a204556459\'), u\'carte\': u\'france\', u\'d\': u\'m 891.50359,979.16906 0.7994,-1.3576 1.1677,0.... 0.032,-1.2193 -0.4866,-1.1217 -1.7103,-1.6213 z\', u\'dep\': u\'013\', u\'desc\': u\'7e arrondissement municipal\', u\'h\': u\'10.03204345703125\', u\'id\': u\'013-02\', u\'paris\': False, u\'title\': u\'Deuxi\\xe8me circonscription des Bouches-du-Rh\\xf4ne\', u\'ville\': True, ...}, {u\'_id\': ObjectId(\'59b9502c6d8669a204556458\'), u\'carte\': u\'france\', u\'d\': u\'m 900.37539,982.05586 1.5479,0.4324 1.16,-0.27...3924 0.041,0.6574 0.3039,0.4679 -0.4972,0.5416 z\', u\'dep\': u\'013\', u\'desc\': u"Partie du 10e arrondissement municipal situ\\xe... jusqu\'en limite du 11e arrondissement municipal", u\'h\': u\'8.07830810546875\', u\'id\': u\'013-01\', u\'paris\': False, u\'title\': u\'Premi\\xe8re circonscription des Bouches-du-Rh\\xf4ne\', u\'ville\': True, ...}, {u\'_id\': ObjectId(\'59b9502c6d8669a20455645a\'), u\'carte\': u\'france\', u\'d\': u\'m 894.50989,974.51656 -0.058,0.454 0.9041,0.20... -0.2701,0.5582 -0.4669,-0.1884 -0.2627,0.1759 z\', u\'dep\': u\'013\', u\'desc\': u\'Partie du 12e arrondissement municipal non comprise dans la 1re circonscription\', u\'h\': u\'9.1104736328125\', u\'id\': u\'013-03\', u\'paris\': False, u\'title\': u\'Troisi\\xe8me circonscription des Bouches-du-Rh\\xf4ne\', u\'ville\': True, ...}, {u\'_id\': ObjectId(\'59b9502d6d8669a20455645d\'), u\'carte\': u\'france\', u\'d\': u\'m 900.91369,987.56556 -0.7485,0.1968 -0.097,0....8 -0.099,-0.3942 -1.2086,0.033 -3.0783,-1.0696 z\', u\'dep\': u\'013\', u\'desc\': u\'9e arrondissement municipal\', u\'h\': u\'10.65667724609375\', u\'id\': u\'013-06\', u\'paris\': False, u\'title\': u\'Sixi\\xe8me circonscription des Bouches-du-Rh\\xf4ne\', u\'ville\': True, ...}, {u\'_id\': ObjectId(\'59b9502d6d8669a20455645e\'), u\'carte\': u\'france\', u\'d\': u\'m 890.32479,972.23516 0.1504,-0.6554 -1.8929,-...0.7872,-0.1695 -0.6628,-0.3749 -0.3165,-0.2521 z\', u\'dep\': u\'013\', u\'desc\': u\'Partie du 14e arrondissement municipal non comprise dans la 3e circonscription\', u\'h\': u\'8.393310546875\', u\'id\': u\'013-07\', u\'paris\': False, u\'title\': u\'Septi\\xe8me circonscription des Bouches-du-Rh\\xf4ne\', u\'ville\': True, ...}]'
p547
sS'IS_FLOAT_IN_RANGE'
p548
S"<class 'gluon.validators.IS_FLOAT_IN_RANGE'>"
p549
sS'IS_EXPR'
p550
S"<class 'gluon.validators.IS_EXPR'>"
p551
sS'T'
S'<gluon.languages.translator object>'
p552
sS'IS_IN_SET'
p553
S"<class 'gluon.validators.IS_IN_SET'>"
p554
sS'contact'
p555
S"{u'lien': u'https://twitter.com/@jlmelenchon/', u'type': u'twitter'}"
p556
sS'IS_UPLOAD_FILENAME'
p557
S"<class 'gluon.validators.IS_UPLOAD_FILENAME'>"
p558
sV_id
p559
S"ObjectId('59af32496d8669a20452a2a6')"
p560
sVdepute_csp
p561
S"u'Cadres et professions intellectuelles sup\\xe9rieures'"
p562
sS'TT'
p563
S"<class 'gluon.html.TT'>"
p564
sS'IS_DECIMAL_IN_RANGE'
p565
S"<class 'gluon.validators.IS_DECIMAL_IN_RANGE'>"
p566
sssS'traceback'
p567
S'Traceback (most recent call last):\n  File "/home/www-data/web2py/gluon/restricted.py", line 219, in restricted\n    exec(ccode, environment)\n  File "<string>", line 149, in <module>\nUnicodeDecodeError: \'ascii\' codec can\'t decode byte 0xc2 in position 9: ordinal not in range(128)\n'
p568
s.