(dp1
S'output'
p2
S'missing "pass" in view'
p3
sS'layer'
p4
S'ParserContainer'
p5
sS'code'
p6
S'response.write(\'<!DOCTYPE html>\\n<html lang="fr">\\n<head>\\n    <meta charset="utf-8">\\n    <meta http-equiv="x-ua-compatible" content="ie=edge">\\n    <title>ObsAss</title>\\n    <meta name="description" content="">\\n    <meta name="viewport" content="width=device-width, initial-scale=1">\\n\\n    <link href="https://fonts.googleapis.com/css?family=Montserrat:400,600,700" rel="stylesheet">\\n    <link href="https://maxcdn.bootstrapcdn.com/font-awesome/4.7.0/css/font-awesome.min.css" rel="stylesheet">\\n    <link rel="stylesheet" href="\', escape=False)\nresponse.write(URL(\'static\',\'css/main.css\'))\nresponse.write(\'" rel="stylesheet">\\n</head>\\n<body>\\n    <nav id="main-nav" class="flex">\\n        <img src="\', escape=False)\nresponse.write(URL(\'static\',\'assets/logo.png\'))\nresponse.write(\'" alt="Observatoire Insoumis">\\n        <ul>\\n            <li>Programme Pr\\xc3\\xa9sidentiel</li>\\n            <li>Gouvernement</li>\\n            <li>Assembl\\xc3\\xa9e Nationale</li>\\n        </ul>\\n    </nav>\\n    <header id="header">\\n        Header super chouette sisi !\\n    </header>\\n    <nav id="sub-nav">\\n        <ul>\\n            <li><i class="fa fa-users" aria-hidden="true"></i> Groupes</li>\\n            <li><i class="fa fa-user-circle-o" aria-hidden="true"></i> D\\xc3\\xa9put\\xc3\\xa9s</li>\\n            <li><i class="fa fa-thumbs-up" aria-hidden="true"></i> Suivi FI</li>\\n        </ul>\\n    </nav>\\n    \', escape=False)\nresponse.write(\'\\n    <div id="depute-template" class="container">\\n        <div class="depute-header">\\n            <div class="depute-photo">\\n                <img src="http://www2.assemblee-nationale.fr/static/tribun/15/photos/\', escape=False)\nresponse.write(depute_uid[2:])\nresponse.write(\'.jpg"/>\\n            </div>\\n            <div class="depute-identite">\\n                <header>\\n                    <h2><span>\', escape=False)\nresponse.write("%s / %s / %se circ" % (depute_region,depute_departement,depute_circo))\nresponse.write(\'</span></h2>\\n                    <h1>\', escape=False)\nresponse.write(depute_nom)\nresponse.write(\'</h1>\\n                </header>\\n\\n                <div class="depute-contacts">\\n                    \', escape=False)\nfor contact in depute_contacts:\n    if (contact[\'type\']==u\'mail\'):\n        response.write(\'<a class="depute-contact" href="mailto:\', escape=False)\n        response.write(contact[\'lien\'])\n        response.write(\'"><i class="fa fa-envelope-o"></i></a>\\n                    \', escape=False)\n    elif (contact[\'type\']==\'twitter\'):\n        response.write(\'<a class="depute-contact" href="https://twitter.com/\', escape=False)\n        response.write(contact[\'lien\'][2:])\n        response.write(\'"><i class="fa fa-twitter"></i></a>\\n                    \', escape=False)\n    elif (contact[\'type\']==\'facebook\'):\n        response.write(\'<a class="depute-contact" href="https://fr-fr.facebook.com/\', escape=False)\n        response.write(contact[\'lien\'])\n        response.write(\'"><i class="fa fa-facebook-square"></i></a>\\n                    \', escape=False)\n    elif (contact[\'type\']==\'site\'):\n        response.write(\'<a class="depute-contact" href="http://\', escape=False)\n        response.write(contact[\'lien\'])\n        response.write(\'"><i class="fa fa-globe"></i></a>\\n                    \', escape=False)\n        pass\n    response.write(\'\\n                    \', escape=False)\n    pass\nresponse.write(\'\\n                </div>\\n\\n                <div class="depute-groupe \', escape=False)\nresponse.write(groupe_abrev)\nresponse.write(\'"><i class="fa fa-group"></i> <a href="\', escape=False)\nresponse.write(URL(\'groupe\',\'index\',args=[groupe_abrev]))\nresponse.write(\'">\', escape=False)\nresponse.write(groupe_libelle)\nresponse.write(\'</a></div>\\n                <div class="depute-infos"><span>\', escape=False)\nresponse.write("%s, %s" % (depute_profession, depute_naissance))\nresponse.write(\'</span></div>\\n                <div class="depute-infos"><span>Participation : \', escape=False)\nresponse.write("%s/%s" % (stats[\'ranks\'][\'exprimes\'] or \'-\', 577))\nresponse.write(\'</span><br /><span>Dissidence : \', escape=False)\nresponse.write("%s/%s" % (stats[\'ranks\'][\'dissidence\'] or \'-\', 577))\nresponse.write(\'</span></div>\\n                <div class="depute-infos"><span>Suppl\\xc3\\xa9ant : \', escape=False)\nresponse.write(depute_suppleant)\nresponse.write(\'</span></div>\\n            </div>\\n        </div>\\n\\n        <div class="tab-container">\\n            <header>\\n                <input id="tab1" type="radio" name="tabs" value="presentation">\\n                <label for="tab1"><i class="fa fa-id-card-o"></i><span>Pr\\xc3\\xa9sentation</span></label>\\n\\n                <input id="tab2" type="radio" name="tabs" value="interventions">\\n                <label for="tab2"><i class="fa fa-comment-o"></i><span>Interventions</span></label>\\n\\n                <input id="tab3" type="radio" name="tabs" value="votes" checked>\\n                <label for="tab3"><i class="fa fa-hand-paper-o"></i><span>Votes</span></label>\\n            </header>\\n\\n            <section id="presentation" class="tab-content"> <!-- Pr\\xc3\\xa9sentation -->\\n                <div class="depute-hemicycle">\\n                    <object id="hemicycle" data="\', escape=False)\nresponse.write(URL(\'static\',\'images/hemicyclelight.svg\'))\nresponse.write(\'" type="image/svg+xml"></object>\\n                    \', escape=False)\nresponse.write(svgcirco(depute_circo_id))\nresponse.write(\'\\n                </div>\\n                <div class="depute-fonctions">\\n                    <h2>Fonctions / Mandats</h2>\\n                    <ul class="fa-ul">\\n                        <li><i class="fa fa-li fa-arrow-circle-o-right"></i> Membre de l\\\'Assembl\\xc3\\xa9e \', escape=False)\nif \'depute_actif\':\n    response.write(\'depuis le \', escape=False)\n    response.write(depute_mandat_debut)\nelse:\n    response.write(\'du %s au %s\' % (depute_mandat_debut,depute_mandat_fin))\n    pass\nresponse.write(\'</li>\\n                        \', escape=False)\nif depute_bureau:\n    response.write(\'<li><i class="fa fa-li fa-arrow-circle-o-right"></i> \', escape=False)\n    response.write(depute_bureau)\n    response.write(\'</li>\', escape=False)\n    pass\nresponse.write(\'\\n                        \', escape=False)\nfor typ,mandats in depute_mandats.iteritems():\n    for m in mandats:\n        response.write(\'\\n                        <li>\\n                            <i class="fa fa-li fa-arrow-circle-o-right"></i> <a href="\', escape=False)\n        response.write(m[\'lien\'])\n        response.write(\'">\', escape=False)\n        response.write(m[\'nom\'])\n        response.write(\'</a> (\', escape=False)\n        response.write(m[\'qualite\'])\n        response.write(\')\\n                        </li>\\n                        \', escape=False)\n        pass\n    pass\nresponse.write(\'\\n                    </ul>\\n                    \', escape=False)\nif depute_autresmandats:\n    response.write(\'\\n                    <h2>Autres Mandats</h2>\\n                    <ul class="fa-ul">\\n                        \', escape=False)\n    for am in depute_autresmandats:\n        response.write(\'\\n                        <li>\\n                            <i class="fa fa-li fa-arrow-circle-o-right"></i> \', escape=False)\n        response.write(am)\n        response.write(\'\\n                        </li>\', escape=False)\n        pass\n    response.write(\'\\n                    </ul>\\n                    \', escape=False)\n    pass\nresponse.write(\'\\n                    \', escape=False)\nif depute_collaborateurs:\n    response.write(\'\\n                    <h2>Collaborateurs</h2>\\n                    <ul class="fa-ul">\\n                        \', escape=False)\n    for co in depute_collaborateurs:\n        response.write(\'\\n                        <li>\\n                            <i class="fa fa-li fa-arrow-circle-o-right"></i> \', escape=False)\n        response.write(co)\n        response.write(\'\\n                        </li>\', escape=False)\n        pass\n    response.write(\'\\n                    </ul>\\n                    \', escape=False)\n    pass\nresponse.write(\'\\n                </div>\\n                \', escape=False)\nif depute_deputywatch:\n    response.write(\'\\n                <div class="depute-watch">\\n                    <h2>Deputy Watch</h2>\\n                    <div class="flex">\\n                        <img src="\', escape=False)\n    response.write(URL(\'static\',\'assets/deputywatch.png\'))\n    response.write(\'" alt="Deputy Watch">\\n                        <div>\\n                            Le site Deputy Watch tente de recenser les ant\\xc3\\xa9c\\xc3\\xa9dents judiciaires de notori\\xc3\\xa9t\\xc3\\xa9 publique des \\xc3\\xa9lus.\\n                            Nous y avons cherch\\xc3\\xa9 ce d\\xc3\\xa9put\\xc3\\xa9 et il semblerait qu\\\'il y soit list\\xc3\\xa9.<br />\\n                            <a href="\', escape=False)\n    response.write(depute_deputywatch[\'url\'])\n    response.write(\'" target="_blank">\\n                                <i class="fa fa-arrow-circle-o-right"></i> Voir le r\\xc3\\xa9sultat\\n                            </a>\\n                        </div>\\n                    </div>\\n                </div>\\n                \', escape=False)\n    pass\nresponse.write(\'\\n                \', escape=False)\nif len(depute_hatvp)>0:\n    response.write(\'\\n                <div>\\n                    <h2>D\\xc3\\xa9claration \\xc3\\xa0 la HATVP</h2>\\n                    <ul class="fa-ul">\\n                        \', escape=False)\n    for dec in depute_hatvp:\n        response.write(\'\\n                        <li>\\n                            <a href="\', escape=False)\n        response.write(dec[\'docurl\'])\n        response.write(\'" target="_blank">\\n                                <i class="fa fa-li fa-file-text-o"></i>\\n                                \', escape=False)\n        response.write("%s - %s" % (dec[\'typedoc\'], dec[\'qualite\']))\n        response.write(\'\\n                            </a>\\n                        </li>\\n                        \', escape=False)\n        pass\n    response.write(\'\\n                    </ul>\\n                </div>\\n                \', escape=False)\n    pass\nresponse.write(\'\\n            </section>\\n\\n\\t\\t\\t<section id="interventions" class="tab-content"> <!-- Interventions -->\\n                <div class="depute-interventions-recap">\\n                    Nombre d\\\'interventions : <span>\', escape=False)\nresponse.write(stats[\'nbitvs\'])\nresponse.write(\'</span>, nombre de mots : <span>\', escape=False)\nresponse.write(stats[\'nbmots\'])\nresponse.write(\'</span>\\n                </div>\\n                <div class="depute-interventions-cloud">\\n                    <div>\\n                        <h2>Ses mots</h2>\\n                        <div id="sourrounding_div_noms" class="cloud">\\n                            <canvas id="wordcanvas_noms"></canvas>\\n                        </div>\\n                    </div>\\n                    <div>\\n                        <h2>Ses verbes</h2>\\n                        <div id="sourrounding_div_verbes" class="cloud">\\n                            <canvas id="wordcanvas_verbes"></canvas>\\n                        </div>\\n                    </div>\\n                </div>\\n                <div id="itvlist">\\n                    <h2>Ses interventions</h2>\\n                    <div class="depute-interventions-search">\\n                        <label for="search"><i class="fa fa-search" aria-hidden="true"></i></label>\\n                        <input class="search" placeholder="Rechercher une intervention">\\n                    </div>\\n                    <ul class="fa-ul">\\n                        \', escape=False)\nfor iv in itvs:\n    response.write(\'\\n                        <li>\\n                            <i class="fa fa-list fa-comment"></i>\\n                            <a href="\', escape=False)\n    response.write(iv[\'itv_url\'])\n    response.write(\'" target="_blank">\\n                                <h3>\', escape=False)\n    response.write(\' / \'.join(iv[\'itv_ctx\']))\n    response.write(\'</h3>\\n                            </a>\\n                            <blockquote>\', escape=False)\n    response.write(XML(iv[\'itv_contenu\']))\n    response.write(\'</blockquote>\\n                        </li>\', escape=False)\n    pass\nresponse.write(\'\\n                    </ul>\\n                </div>\\n\\t\\t\\t</section>\\n\\n\\t\\t\\t<section id="votes" class="tab-content"> <!-- Votes -->\\n\\t\\t\\t\\t<div class="depute-votes-recap">\\n                    <div class="gauge">\\n                        <h2>Participation</h2>\\n                        \', escape=False)\nresponse.write(svggauge(\'vote\',stats[\'positions\'][\'exprimes\']))\nresponse.write(\'\\n                    </div>\\n                    <div class="gauge">\\n                        <h2>Contre son groupe</h2>\\n                        \', escape=False)\nresponse.write(svggauge(\'diss\',stats[\'positions\'][\'dissidence\']))\nresponse.write(\'\\n                    </div>\\n                    <div class="gauge">\\n                        <h2>FI-Compatibilit\\xc3\\xa9</h2>\\n                        \', escape=False)\nresponse.write(svggauge(\'compfi\',stats[\'compat\'][\'FI\']))\nresponse.write(\'\\n                    </div>\\n                    <div class="gauge">\\n                        <h2>EM-Compatibilit\\xc3\\xa9</h2>\\n                        \', escape=False)\nresponse.write(svggauge(\'compem\',stats[\'compat\'][\'REM\']))\nresponse.write(\'\\n                    </div>\\n                </div>\\n                <div class="depute-votes-calendar">\\n                    <h2>Calendrier des votes</h2>\\n                    <div id="calendar"></div>\\n                </div>\\n\\n                <div class="depute-votes-list">\\n                    <h2>Ses votes</h2>\\n                    <div class="depute-votes-search">\\n                        <label for="search"><i class="fa fa-search" aria-hidden="true"></i></label>\\n                        <input class="search" placeholder="Rechercher un vote">\\n                    </div>\\n                    <ul>\\n                        \', escape=False)\ngenres = {\'loi\':\'e\',\'motion\':e\'}\nresponse.write(\'\\n                        \', escape=False)\nfor v in votes:\n    response.write(\'\\n                        <li>\\n                            <div class="ico \', escape=False)\n    response.write(v[\'vote_position\'])\n    response.write(\'">\\n                                <i class="fa fa-book"></i>\\n                            </div>\\n                            <div>\\n                                <header>\\n                                    <div>\\n                                        <h3><span>\', escape=False)\n    response.write(v[\'scrutin_dossierLibelle\'])\n    response.write(\' - \', escape=False)\n    response.write(v[\'scrutin_typedetail\'][0].upper()+v[\'scrutin_typedetail\'][1:])\n    if v[\'scrutin_groupe\']:\n        response.write(\'propos\\xc3\\xa9\', escape=False)\n        response.write(genres[v[\'scrutin_typedetail\']])\n        response.write(\' par le groupe \', escape=False)\n        response.write(v[\'scrutin_groupe\'])\n        response.write(\'</span></h3>\\n                                        <a href="\', escape=False)\n        response.write(URL(\'scrutin\',\'index\',args=[v[\'scrutin_id\']]))\n        response.write(\'">Scrutin n\\xc2\\xb0\', escape=False)\n        response.write("%d du %s (%s)" % (v[\'scrutin_num\'],v[\'scrutin_date\'],v[\'scrutin_sort\']))\n        response.write(\'</a>\\n                                    </div>\\n                                    <div class="vote \', escape=False)\n        response.write(v[\'vote_position\'])\n        response.write(\'"><i class="fa fa-microphone-slash"></i> \', escape=False)\n        response.write(v[\'vote_position\'][0].upper()+v[\'vote_position\'][1:])\n        response.write(\'</div>\\n                                </header>\\n                                <p><i class="fa fa-arrow-circle-o-right"></i> \', escape=False)\n        response.write(v[\'scrutin_desc\'])\n        response.write(\'</p>\\n                            </div>\\n                        </li>\\n                        \', escape=False)\n        pass\n    response.write(\'\\n                        <li>\\n                            <div class="ico abstention">\\n                                <i class="fa fa-book"></i>\\n                            </div>\\n                            <div>\\n                                <header>\\n                                    <div>\\n                                        <h3><span>Pouvoirs publics : confiance dans l&#x27;action publique - Loi propos\\xc3\\xa9e par LREM</span></h3>\\n                                        <a href="/obsas_dev/fiches/scrutin?id=15_119">Scrutin n\\xc2\\xb0119 du 09/08/2017 (adopt\\xc3\\xa9)</a>\\n                                    </div>\\n                                    <div class="vote abstention"><i class="fa fa-microphone-slash"></i> Abstention</div>\\n                                </header>\\n                                <p><i class="fa fa-arrow-circle-o-right"></i> l&#x27;ensemble du projet de loi organique pour la confiance dans la vie politique (lecture d\\xc3\\xa9finitive).</p>\\n                            </div>\\n                        </li>\\n                        <li>\\n                            <div class="ico contre">\\n                                <i class="fa fa-pencil-square"></i>\\n                            </div>\\n                            <div>\\n                                <header>\\n                                    <div>\\n                                        <h3><span>Pouvoirs publics : confiance dans l&#x27;action publique - Amendement propos\\xc3\\xa9 par LFI</span></h3>\\n                                        <a href="/obsas_dev/fiches/scrutin?id=15_118">Scrutin n\\xc2\\xb0118 du 09/08/2017 (rejet\\xc3\\xa9)</a>\\n                                    </div>\\n                                    <div class="vote contre"><i class="fa fa-thumbs-down"></i> Contre</div>\\n                                </header>\\n                                <p><i class="fa fa-arrow-circle-o-right"></i> l&#x27;amendement n\\xc2\\xb0 1 de M. Saddier et les amendements identiques suivants au projet de loi organique pour la confiance dans la vie politique (lecture d\\xc3\\xa9finitive).</p>\\n                            </div>\\n                        </li>\\n                        <li>\\n                            <div class="ico pour">\\n                                <i class="fa fa-file"></i>\\n                            </div>\\n                            <div>\\n                                <header>\\n                                    <div>\\n                                        <h3><span>Pouvoirs publics : confiance dans l&#x27;action publique - Loi propos\\xc3\\xa9e par LR</span></h3>\\n                                        <a href="/obsas_dev/fiches/scrutin?id=15_117">Scrutin n\\xc2\\xb0117 du 03/08/2017 (adopt\\xc3\\xa9)</a>\\n                                    </div>\\n                                    <div class="vote pour"><i class="fa fa-thumbs-up"></i> Pour</div>\\n                                </header>\\n                                <p><i class="fa fa-arrow-circle-o-right"></i> l&#x27;ensemble du projet de loi organique pour la confiance dans la vie politique (nouvelle lecture).</p>\\n                            </div>\\n                        </li>\\n                        <li>\\n                            <div class="ico absent">\\n                                <i class="fa fa-undo"></i>\\n                            </div>\\n                            <div>\\n                                <header>\\n                                    <div>\\n                                        <h3><span>Pouvoirs publics : confiance dans l&#x27;action publique - Motion propos\\xc3\\xa9e par le PCF</span></h3>\\n                                        <a href="/obsas_dev/fiches/scrutin?id=15_116">Scrutin n\\xc2\\xb0116 du 03/08/2017 (rejet\\xc3\\xa9)</a>\\n                                    </div>\\n                                    <div class="vote absent"><i class="fa fa-question"></i> Absent</div>\\n                                </header>\\n                                <p><i class="fa fa-arrow-circle-o-right"></i> l&#x27;amendement n\\xc2\\xb0 59 de Mme Batho \\xc3\\xa0 l&#x27;article 12 du projet de loi organique pour la confiance dans la vie politique (nouvelle lecture).</p>\\n                            </div>\\n                        </li>\\n                        <li>\\n                            <div class="ico absent">\\n                                <i class="fa fa-microphone"></i>\\n                            </div>\\n                            <div>\\n                                <header>\\n                                    <div>\\n                                        <h3><span>Pouvoirs publics : confiance dans l&#x27;action publique - D\\xc3\\xa9claration</span></h3>\\n                                        <a href="/obsas_dev/fiches/scrutin?id=15_116">Scrutin n\\xc2\\xb0116 du 03/08/2017 (rejet\\xc3\\xa9)</a>\\n                                    </div>\\n                                    <div class="vote absent"><i class="fa fa-question"></i> Absent</div>\\n                                </header>\\n                                <p><i class="fa fa-arrow-circle-o-right"></i> l&#x27;amendement n\\xc2\\xb0 59 de Mme Batho \\xc3\\xa0 l&#x27;article 12 du projet de loi organique pour la confiance dans la vie politique (nouvelle lecture).</p>\\n                            </div>\\n                        </li>\\n                        <li>\\n                            <div class="ico absent">\\n                                <i class="fa fa-undo"></i>\\n                            </div>\\n                            <div>\\n                                <header>\\n                                    <div>\\n                                        <h3><span>Pouvoirs publics : confiance dans l&#x27;action publique - Motion propos\\xc3\\xa9e par le MODEM</span></h3>\\n                                        <a href="/obsas_dev/fiches/scrutin?id=15_116">Scrutin n\\xc2\\xb0116 du 03/08/2017 (rejet\\xc3\\xa9)</a>\\n                                    </div>\\n                                    <div class="vote absent"><i class="fa fa-question"></i> Absent</div>\\n                                </header>\\n                                <p><i class="fa fa-arrow-circle-o-right"></i> l&#x27;amendement n\\xc2\\xb0 59 de Mme Batho \\xc3\\xa0 l&#x27;article 12 du projet de loi organique pour la confiance dans la vie politique (nouvelle lecture).</p>\\n                            </div>\\n                        </li>\\n                        <li>\\n                            <div class="ico absent">\\n                                <i class="fa fa-undo"></i>\\n                            </div>\\n                            <div>\\n                                <header>\\n                                    <div>\\n                                        <h3><span>Pouvoirs publics : confiance dans l&#x27;action publique - Motion propos\\xc3\\xa9e par le PS</span></h3>\\n                                        <a href="/obsas_dev/fiches/scrutin?id=15_116">Scrutin n\\xc2\\xb0116 du 03/08/2017 (rejet\\xc3\\xa9)</a>\\n                                    </div>\\n                                    <div class="vote absent"><i class="fa fa-question"></i> Absent</div>\\n                                </header>\\n                                <p><i class="fa fa-arrow-circle-o-right"></i> l&#x27;amendement n\\xc2\\xb0 59 de Mme Batho \\xc3\\xa0 l&#x27;article 12 du projet de loi organique pour la confiance dans la vie politique (nouvelle lecture).</p>\\n                            </div>\\n                        </li>\\n                    </ul>\\n                </div>\\n            </section>\\n        </div>\\n    </div>\\n\', escape=False)\n    response.write(\'\\n    \', escape=False)\n    response.write(\'\\n  <script src="https://cdnjs.cloudflare.com/ajax/libs/jquery/3.2.1/jquery.min.js"></script>\\n  <script src="\', escape=False)\n    response.write(URL(\'static\',\'js/wordcloud2.js\'))\n    response.write(\'"></script>\\n  <script src="https://d3js.org/d3.v4.min.js"></script>\\n  <script>\\n    $(document).ready(function() {\\n        var visible = $(\\\'.tab-container input:checked\\\').val();\\n        $(\\\'#\\\' + visible).addClass(\\\'visible\\\');\\n\\n        $(\\\'.tab-container input\\\').change(function(e) {\\n            $(\\\'.tab-content\\\').removeClass(\\\'visible\\\');\\n            $(\\\'#\\\' + e.target.value).addClass(\\\'visible\\\');\\n        });\\n        /* position hemicycle */\\n        var svg = document.getElementById(\\\'hemicycle\\\');\\n        svg.addEventListener(\\\'load\\\', function () {\\n          //var svg = document.getElementById(\\\'hemicycle\\\');\\n          var svgDoc = svg.contentDocument;\\n          $.each(svgDoc.getElementsByTagName(\\\'a\\\'), function() {\\n              $(this).attr(\\\'href\\\',"depute/index/"+$(this).attr(\\\'href\\\'));\\n          });\\n          var styleElement = svgDoc.createElementNS("http://www.w3.org/2000/svg", "style");\\n          styleElement.textContent = "#p\', escape=False)\n    response.write(depute_place)\n    response.write(\' { fill:  black; stroke-width:5px; stroke: black;}"; // add whatever you need here\\n          svgDoc.getElementById(\\\'defs\\\').appendChild(styleElement);\\n\\n        });\\n        // Nuages\\n        \', escape=False)\n    import json\n    response.write(\'\\n        var wordlist = {};\\n        \', escape=False)\n    if depute_nuages:\n        response.write(\'\\n        \', escape=False)\n        for lex in depute_nuages.keys():\n            response.write("\\n           wordlist[\'", escape=False)\n            response.write(lex)\n            response.write("\'] = JSON.parse(\'", escape=False)\n            response.write(XML(json.dumps(depute_nuages[lex])))\n            response.write("\');\\n        ", escape=False)\n            pass\n        response.write(\'\\n        \', escape=False)\n        pass\n    response.write(\'\\n        \\n\\n        function showNuage(lex) {\\n            if (lex==\\\'verbatim\\\') {\\n                return\\n            }\\n            var div = document.getElementById("sourrounding_div_"+lex);\\n            var canvas = document.getElementById("wordcanvas_"+lex);\\n\\n            canvas.height = div.offsetHeight;\\n            canvas.width  = div.offsetWidth;\\n\\n            WordCloud(document.getElementById(\\\'wordcanvas_\\\'+lex), {\\n                gridSize: Math.round(16 * document.getElementById(\\\'wordcanvas_\\\'+lex).offsetWidth / 1024),\\n                weightFactor: function (size) {\\n                    return 0.3*size;\\n                },\\n                list: wordlist[lex],\\n                color: function(word, weight) {\\n                    if (weight < 50) {\\n                        return \\\'#82cde2\\\';\\n                    } else if (weight < 130) {\\n                        return \\\'#213558\\\';\\n                    }\\n                    return \\\'#ff0052\\\';\\n                },\\n                backgroundColor: \\\'transparent\\\'\\n            });\\n        }\\n\\n        function drawNuages() {\\n            showNuage(\\\'noms\\\');\\n            showNuage(\\\'verbes\\\');\\n        }\\n\\n        // Calendrier\\n        function genCalendar() {\\n            var width = document.getElementById(\\\'calendar\\\').offsetWidth+20,\\n                yearHeight = width / 7,\\n                height = yearHeight,\\n                cellSize = yearHeight / 8;\\n\\n            var percent = d3.format(".1%"),\\n                format = d3.timeFormat("%Y-%m-%d");\\n\\n            var color = d3.scaleQuantize()\\n                .domain([.0, 1.0])\\n                .range(d3.range(5).map(function(d) { return "q" + d + "-5"; }));\\n\\n            var svgcal = d3.select("#calendar").selectAll("svg")\\n                .data(d3.range(2017, 2018))\\n              .enter().append("svg")\\n                .attr("width", width)\\n                .attr("height", height+20)\\n                .attr("class", "RdYlGn")\\n              .append("g")\\n                .attr("transform", "translate(" + ((width - cellSize * 53) / 2) + "," + (20+height - cellSize * 7 - 1) + ")");\\n\\n            svgcal.append("text")\\n                .attr("transform", "translate(-6," + cellSize * 3.5 + ")rotate(-90)")\\n                .style("text-anchor", "middle")\\n                .text(function(d) { return d; });\\n\\n            var rect = svgcal.selectAll(".day")\\n                .data(function(d) { return d3.timeDays(new Date(d, 0, 1), new Date(d + 1, 0, 1)); })\\n              .enter().append("rect")\\n                .attr("class", "day")\\n                .attr("width", cellSize)\\n                .attr("height", cellSize)\\n                .attr("x", function(d) { return d3.timeMonday.count(d3.timeYear(d), d) * cellSize; })\\n                .attr("y", function(d) { return ((d.getDay()+6)%7) * cellSize; })\\n                .datum(format);\\n\\n            rect.append("title")\\n                .text(function(d) { return d; });\\n\\n            svgcal.selectAll(".month")\\n                .data(function(d) { return d3.timeMonths(new Date(d, 0, 1), new Date(d + 1, 0, 1)); })\\n              .enter().append("text").text(monthLabel).style("font-size:10px;", "middle").attr("transform",monthLabelTransform);\\n            function monthLabel(t0) {\\n                return Array(\\\'JAN\\\',\\\'FEV\\\',\\\'MAR\\\',\\\'AVR\\\',\\\'MAI\\\',\\\'JUN\\\',\\\'JUI\\\',\\\'AOU\\\',\\\'SEP\\\',\\\'OCT\\\',\\\'NOV\\\',\\\'DEC\\\')[t0.getMonth()];\\n            }\\n            function monthLabelTransform(t0) {\\n              var t1 = new Date(t0.getFullYear(), t0.getMonth() + 1, 0),\\n                  d0 = ((t0.getDay()+6)%7), w0 = d3.timeMonday.count(d3.timeYear(t0), t0)\\n                  d1 = ((t1.getDay()+6)%7), w1 = d3.timeMonday.count(d3.timeYear(t1), t1);\\n              return "translate("+(2+w0)*cellSize+",-5)";\\n            }\\n\\n            svgcal.selectAll(".month")\\n                .data(function(d) { return d3.timeMonths(new Date(d, 0, 1), new Date(d + 1, 0, 1)); })\\n              .enter().append("path")\\n                .attr("class", "month")\\n                .attr("d", monthPath);\\n\\n\\n            var csv = JSON.parse(\\\'[{"date": "2017-07-04", "pct": 1.0}, {"date": "2017-07-06", "pct": 0.0}, {"date": "2017-07-10", "pct": 1.0}, {"date": "2017-07-11", "pct": 0.9411764705882353}, {"date": "2017-07-12", "pct": 0.6666666666666666}, {"date": "2017-07-13", "pct": 0.8333333333333334}, {"date": "2017-07-18", "pct": 0.5}, {"date": "2017-07-19", "pct": 0.0}, {"date": "2017-07-24", "pct": 1.0}, {"date": "2017-07-25", "pct": 0.23076923076923078}, {"date": "2017-07-26", "pct": 0.0}, {"date": "2017-07-27", "pct": 0.375}, {"date": "2017-07-28", "pct": 0.6}, {"date": "2017-08-01", "pct": 1.0}, {"date": "2017-08-03", "pct": 0.5454545454545454}, {"date": "2017-08-09", "pct": 1.0}]\\\');\\n            var data = d3.nest()\\n                .key(function(d) { return d.date; })\\n                .rollup(function(d) { return d[0].pct; })\\n                .map(csv);\\n\\n              rect.filter(function(d) { return data.has(d); })\\n                  .attr("class", function(d) { return "day " + color(data.get(d)); })\\n                .select("title")\\n                  .text(function(d) { return d + ": " + percent(data.get(d)); });\\n\\n            function monthPath(t0) {\\n              var t1 = new Date(t0.getFullYear(), t0.getMonth() + 1, 0),\\n                  d0 = ((t0.getDay()+6)%7), w0 = d3.timeMonday.count(d3.timeYear(t0), t0)\\n                  d1 = ((t1.getDay()+6)%7), w1 = d3.timeMonday.count(d3.timeYear(t1), t1);\\n              return "M" + (w0 + 1) * cellSize + "," + d0 * cellSize\\n                  + "H" + w0 * cellSize + "V" + 7 * cellSize\\n                  + "H" + w1 * cellSize + "V" + (d1 + 1) * cellSize\\n                  + "H" + (w1 + 1) * cellSize + "V" + 0\\n                  + "H" + (w0 + 1) * cellSize + "Z";\\n            }\\n        }\\n\\n        drawNuages();\\n        genCalendar();\\n        var resizeDebounce;\\n        $(window).resize(function() {\\n            clearTimeout(resizeDebounce);\\n            resizeDebounce = setTimeout(function() {\\n                window.requestAnimationFrame(function() {\\n                    drawNuages();\\n                    $(\\\'#calendar svg\\\').remove();\\n                    genCalendar();\\n                });\\n            }, 100);\\n        });\\n    });\\n    </script>\\n\', escape=False)\n    response.write(\'\\n</body>\\n</html>\\n\', escape=False)'
p7
sS'snapshot'
p8
(dp9
sS'traceback'
p10
S'None\n'
p11
s.