(dp1
S'output'
p2
S"<type 'exceptions.KeyError'> u'15_107'"
p3
sS'layer'
p4
S'/home/www-data/web2py/applications/oadev/controllers/depute.py'
p5
sS'code'
p6
S'<code object <module> at 0x7fcd5448f930, file "/home/www-data/web2py/applications/oadev/controllers/depute.py", line 2>'
p7
sS'snapshot'
p8
(dp9
S'exception'
p10
(dp11
S'__getslice__'
p12
S"<method-wrapper '__getslice__' of exceptions.KeyError object>"
p13
sS'__str__'
p14
S"<method-wrapper '__str__' of exceptions.KeyError object>"
p15
sS'__reduce__'
p16
S'<built-in method __reduce__ of exceptions.KeyError object>'
p17
sS'__dict__'
p18
S'{}'
p19
sS'message'
p20
S"u'15_107'"
p21
sS'__sizeof__'
p22
S'<built-in method __sizeof__ of exceptions.KeyError object>'
p23
sS'__init__'
p24
S"<method-wrapper '__init__' of exceptions.KeyError object>"
p25
sS'__setattr__'
p26
S"<method-wrapper '__setattr__' of exceptions.KeyError object>"
p27
sS'__reduce_ex__'
p28
S'<built-in method __reduce_ex__ of exceptions.KeyError object>'
p29
sS'__new__'
p30
S'<built-in method __new__ of type object>'
p31
sS'__format__'
p32
S'<built-in method __format__ of exceptions.KeyError object>'
p33
sS'__class__'
p34
S"<type 'exceptions.KeyError'>"
p35
sS'__doc__'
p36
S"'Mapping key not found.'"
p37
sS'__getitem__'
p38
S"<method-wrapper '__getitem__' of exceptions.KeyError object>"
p39
sS'__setstate__'
p40
S'<built-in method __setstate__ of exceptions.KeyError object>'
p41
sS'__getattribute__'
p42
S"<method-wrapper '__getattribute__' of exceptions.KeyError object>"
p43
sS'args'
p44
S"(u'15_107',)"
p45
sS'__subclasshook__'
p46
S'<built-in method __subclasshook__ of type object>'
p47
sS'__unicode__'
p48
S'<built-in method __unicode__ of exceptions.KeyError object>'
p49
sS'__delattr__'
p50
S"<method-wrapper '__delattr__' of exceptions.KeyError object>"
p51
sS'__repr__'
p52
S"<method-wrapper '__repr__' of exceptions.KeyError object>"
p53
sS'__hash__'
p54
S"<method-wrapper '__hash__' of exceptions.KeyError object>"
p55
ssS'evalue'
p56
S"u'15_107'"
p57
sS'request'
p58
cgluon.html
XML_unpickle
p59
(S's2y\x00\x00<div><table><tr><td style="font-weight:bold;vertical-align:top;">ajax</td><td style="vertical-align:top;">:</td><td><div>False</div></td></tr><tr><td style="font-weight:bold;vertical-align:top;">application</td><td style="vertical-align:top;">:</td><td><div>oadev</div></td></tr><tr><td style="font-weight:bold;vertical-align:top;">args</td><td style="vertical-align:top;">:</td><td><div><table><tr><td><div>loicprudhomme</div></td></tr></table></div></td></tr><tr><td style="font-weight:bold;vertical-align:top;">cid</td><td style="vertical-align:top;">:</td><td><div>None</div></td></tr><tr><td style="font-weight:bold;vertical-align:top;">client</td><td style="vertical-align:top;">:</td><td><div>83.203.181.3</div></td></tr><tr><td style="font-weight:bold;vertical-align:top;">controller</td><td style="vertical-align:top;">:</td><td><div>depute</div></td></tr><tr><td style="font-weight:bold;vertical-align:top;">cookies</td><td style="vertical-align:top;">:</td><td><div><table><tr><td style="font-weight:bold;vertical-align:top;">session_id_admin</td><td style="vertical-align:top;">:</td><td><div>83.203.170.106-62f39627-f7d7-4927-a80b-f6a1100be47c<table><tr><td style="font-weight:bold;vertical-align:top;">comment</td><td style="vertical-align:top;">:</td><td><div></div></td></tr><tr><td style="font-weight:bold;vertical-align:top;">domain</td><td style="vertical-align:top;">:</td><td><div></div></td></tr><tr><td style="font-weight:bold;vertical-align:top;">expires</td><td style="vertical-align:top;">:</td><td><div></div></td></tr><tr><td style="font-weight:bold;vertical-align:top;">httponly</td><td style="vertical-align:top;">:</td><td><div></div></td></tr><tr><td style="font-weight:bold;vertical-align:top;">max-age</td><td style="vertical-align:top;">:</td><td><div></div></td></tr><tr><td style="font-weight:bold;vertical-align:top;">path</td><td style="vertical-align:top;">:</td><td><div></div></td></tr><tr><td style="font-weight:bold;vertical-align:top;">secure</td><td style="vertical-align:top;">:</td><td><div></div></td></tr><tr><td style="font-weight:bold;vertical-align:top;">version</td><td style="vertical-align:top;">:</td><td><div></div></td></tr></table></div></td></tr><tr><td style="font-weight:bold;vertical-align:top;">session_id_oadev</td><td style="vertical-align:top;">:</td><td><div>83.203.181.3-42b4ae1d-9d02-4dcb-9c54-91968847678d<table><tr><td style="font-weight:bold;vertical-align:top;">comment</td><td style="vertical-align:top;">:</td><td><div></div></td></tr><tr><td style="font-weight:bold;vertical-align:top;">domain</td><td style="vertical-align:top;">:</td><td><div></div></td></tr><tr><td style="font-weight:bold;vertical-align:top;">expires</td><td style="vertical-align:top;">:</td><td><div></div></td></tr><tr><td style="font-weight:bold;vertical-align:top;">httponly</td><td style="vertical-align:top;">:</td><td><div></div></td></tr><tr><td style="font-weight:bold;vertical-align:top;">max-age</td><td style="vertical-align:top;">:</td><td><div></div></td></tr><tr><td style="font-weight:bold;vertical-align:top;">path</td><td style="vertical-align:top;">:</td><td><div></div></td></tr><tr><td style="font-weight:bold;vertical-align:top;">secure</td><td style="vertical-align:top;">:</td><td><div></div></td></tr><tr><td style="font-weight:bold;vertical-align:top;">version</td><td style="vertical-align:top;">:</td><td><div></div></td></tr></table></div></td></tr><tr><td style="font-weight:bold;vertical-align:top;">session_id_obsas_dev</td><td style="vertical-align:top;">:</td><td><div>83.203.181.3-57a24510-38a1-4c30-964a-208f8cd44b77<table><tr><td style="font-weight:bold;vertical-align:top;">comment</td><td style="vertical-align:top;">:</td><td><div></div></td></tr><tr><td style="font-weight:bold;vertical-align:top;">domain</td><td style="vertical-align:top;">:</td><td><div></div></td></tr><tr><td style="font-weight:bold;vertical-align:top;">expires</td><td style="vertical-align:top;">:</td><td><div></div></td></tr><tr><td style="font-weight:bold;vertical-align:top;">httponly</td><td style="vertical-align:top;">:</td><td><div></div></td></tr><tr><td style="font-weight:bold;vertical-align:top;">max-age</td><td style="vertical-align:top;">:</td><td><div></div></td></tr><tr><td style="font-weight:bold;vertical-align:top;">path</td><td style="vertical-align:top;">:</td><td><div></div></td></tr><tr><td style="font-weight:bold;vertical-align:top;">secure</td><td style="vertical-align:top;">:</td><td><div></div></td></tr><tr><td style="font-weight:bold;vertical-align:top;">version</td><td style="vertical-align:top;">:</td><td><div></div></td></tr></table></div></td></tr><tr><td style="font-weight:bold;vertical-align:top;">session_id_observatoireassemblee</td><td style="vertical-align:top;">:</td><td><div>83.203.170.41-820d7db2-0294-4aae-b786-6391edb8bfee<table><tr><td style="font-weight:bold;vertical-align:top;">comment</td><td style="vertical-align:top;">:</td><td><div></div></td></tr><tr><td style="font-weight:bold;vertical-align:top;">domain</td><td style="vertical-align:top;">:</td><td><div></div></td></tr><tr><td style="font-weight:bold;vertical-align:top;">expires</td><td style="vertical-align:top;">:</td><td><div></div></td></tr><tr><td style="font-weight:bold;vertical-align:top;">httponly</td><td style="vertical-align:top;">:</td><td><div></div></td></tr><tr><td style="font-weight:bold;vertical-align:top;">max-age</td><td style="vertical-align:top;">:</td><td><div></div></td></tr><tr><td style="font-weight:bold;vertical-align:top;">path</td><td style="vertical-align:top;">:</td><td><div></div></td></tr><tr><td style="font-weight:bold;vertical-align:top;">secure</td><td style="vertical-align:top;">:</td><td><div></div></td></tr><tr><td style="font-weight:bold;vertical-align:top;">version</td><td style="vertical-align:top;">:</td><td><div></div></td></tr></table></div></td></tr></table></div></td></tr><tr><td style="font-weight:bold;vertical-align:top;">env</td><td style="vertical-align:top;">:</td><td><div><table><tr><td style="font-weight:bold;vertical-align:top;">CONTEXT_DOCUMENT_ROOT</td><td style="vertical-align:top;">:</td><td><div>/var/www/html</div></td></tr><tr><td style="font-weight:bold;vertical-align:top;">CONTEXT_PREFIX</td><td style="vertical-align:top;">:</td><td><div></div></td></tr><tr><td style="font-weight:bold;vertical-align:top;">DOCUMENT_ROOT</td><td style="vertical-align:top;">:</td><td><div>/var/www/html</div></td></tr><tr><td style="font-weight:bold;vertical-align:top;">GATEWAY_INTERFACE</td><td style="vertical-align:top;">:</td><td><div>CGI/1.1</div></td></tr><tr><td style="font-weight:bold;vertical-align:top;">HTTP_ACCEPT</td><td style="vertical-align:top;">:</td><td><div>text/html,application/xhtml+xml,application/xml;q=0.9,image/webp,image/apng,*/*;q=0.8</div></td></tr><tr><td style="font-weight:bold;vertical-align:top;">HTTP_ACCEPT_ENCODING</td><td style="vertical-align:top;">:</td><td><div>gzip, deflate, br</div></td></tr><tr><td style="font-weight:bold;vertical-align:top;">HTTP_ACCEPT_LANGUAGE</td><td style="vertical-align:top;">:</td><td><div>fr-FR,fr;q=0.8,en-US;q=0.6,en;q=0.4</div></td></tr><tr><td style="font-weight:bold;vertical-align:top;">HTTP_CONNECTION</td><td style="vertical-align:top;">:</td><td><div>keep-alive</div></td></tr><tr><td style="font-weight:bold;vertical-align:top;">HTTP_COOKIE</td><td style="vertical-align:top;">:</td><td><div>session_id_observatoireassemblee=83.203.170.41-820d7db2-0294-4aae-b786-6391edb8bfee; session_id_obsas_dev=83.203.181.3-57a24510-38a1-4c30-964a-208f8cd44b77; session_id_admin=83.203.170.106-62f39627-f7d7-4927-a80b-f6a1100be47c; session_id_oadev=83.203.181.3-42b4ae1d-9d02-4dcb-9c54-91968847678d</div></td></tr><tr><td style="font-weight:bold;vertical-align:top;">HTTP_HOST</td><td style="vertical-align:top;">:</td><td><div>admin.obsas.orvdev.fr</div></td></tr><tr><td style="font-weight:bold;vertical-align:top;">HTTP_UPGRADE_INSECURE_REQUESTS</td><td style="vertical-align:top;">:</td><td><div>1</div></td></tr><tr><td style="font-weight:bold;vertical-align:top;">HTTP_USER_AGENT</td><td style="vertical-align:top;">:</td><td><div>Mozilla/5.0 (X11; Linux x86_64) AppleWebKit/537.36 (KHTML, like Gecko) Chrome/60.0.3112.101 Safari/537.36</div></td></tr><tr><td style="font-weight:bold;vertical-align:top;">PATH_INFO</td><td style="vertical-align:top;">:</td><td><div>/oadev/depute/index/loicprudhomme</div></td></tr><tr><td style="font-weight:bold;vertical-align:top;">PATH_TRANSLATED</td><td style="vertical-align:top;">:</td><td><div>/home/www-data/web2py/wsgihandler.py/oadev/depute/index/loicprudhomme</div></td></tr><tr><td style="font-weight:bold;vertical-align:top;">QUERY_STRING</td><td style="vertical-align:top;">:</td><td><div></div></td></tr><tr><td style="font-weight:bold;vertical-align:top;">REMOTE_ADDR</td><td style="vertical-align:top;">:</td><td><div>83.203.181.3</div></td></tr><tr><td style="font-weight:bold;vertical-align:top;">REMOTE_PORT</td><td style="vertical-align:top;">:</td><td><div>55235</div></td></tr><tr><td style="font-weight:bold;vertical-align:top;">REQUEST_METHOD</td><td style="vertical-align:top;">:</td><td><div>GET</div></td></tr><tr><td style="font-weight:bold;vertical-align:top;">REQUEST_SCHEME</td><td style="vertical-align:top;">:</td><td><div>https</div></td></tr><tr><td style="font-weight:bold;vertical-align:top;">REQUEST_URI</td><td style="vertical-align:top;">:</td><td><div>/oadev/depute/index/loicprudhomme</div></td></tr><tr><td style="font-weight:bold;vertical-align:top;">SCRIPT_FILENAME</td><td style="vertical-align:top;">:</td><td><div>/home/www-data/web2py/wsgihandler.py</div></td></tr><tr><td style="font-weight:bold;vertical-align:top;">SCRIPT_NAME</td><td style="vertical-align:top;">:</td><td><div></div></td></tr><tr><td style="font-weight:bold;vertical-align:top;">SERVER_ADDR</td><td style="vertical-align:top;">:</td><td><div>151.80.57.169</div></td></tr><tr><td style="font-weight:bold;vertical-align:top;">SERVER_ADMIN</td><td style="vertical-align:top;">:</td><td><div>[no address given]</div></td></tr><tr><td style="font-weight:bold;vertical-align:top;">SERVER_NAME</td><td style="vertical-align:top;">:</td><td><div>admin.obsas.orvdev.fr</div></td></tr><tr><td style="font-weight:bold;vertical-align:top;">SERVER_PORT</td><td style="vertical-align:top;">:</td><td><div>443</div></td></tr><tr><td style="font-weight:bold;vertical-align:top;">SERVER_PROTOCOL</td><td style="vertical-align:top;">:</td><td><div>HTTP/1.1</div></td></tr><tr><td style="font-weight:bold;vertical-align:top;">SERVER_SIGNATURE</td><td style="vertical-align:top;">:</td><td><div>&lt;address&gt;Apache/2.4.18 (Ubuntu) Server at admin.obsas.orvdev.fr Port 443&lt;/address&gt;\n</div></td></tr><tr><td style="font-weight:bold;vertical-align:top;">SERVER_SOFTWARE</td><td style="vertical-align:top;">:</td><td><div>Apache/2.4.18 (Ubuntu)</div></td></tr><tr><td style="font-weight:bold;vertical-align:top;">SSL_TLS_SNI</td><td style="vertical-align:top;">:</td><td><div>admin.obsas.orvdev.fr</div></td></tr><tr><td style="font-weight:bold;vertical-align:top;">apache.version</td><td style="vertical-align:top;">:</td><td><div><table><tr><td><div>2</div></td></tr><tr><td><div>4</div></td></tr><tr><td><div>18</div></td></tr></table></div></td></tr><tr><td style="font-weight:bold;vertical-align:top;">apache_version</td><td style="vertical-align:top;">:</td><td><div><table><tr><td><div>2</div></td></tr><tr><td><div>4</div></td></tr><tr><td><div>18</div></td></tr></table></div></td></tr><tr><td style="font-weight:bold;vertical-align:top;">app_folders</td><td style="vertical-align:top;">:</td><td><div>set([&#x27;/home/www-data/web2py/applications/admin/&#x27;, &#x27;/home/www-data/web2py/applications/oadev/&#x27;])</div></td></tr><tr><td style="font-weight:bold;vertical-align:top;">applications_parent</td><td style="vertical-align:top;">:</td><td><div>/home/www-data/web2py</div></td></tr><tr><td style="font-weight:bold;vertical-align:top;">context_document_root</td><td style="vertical-align:top;">:</td><td><div>/var/www/html</div></td></tr><tr><td style="font-weight:bold;vertical-align:top;">context_prefix</td><td style="vertical-align:top;">:</td><td><div></div></td></tr><tr><td style="font-weight:bold;vertical-align:top;">db_sessions</td><td style="vertical-align:top;">:</td><td><div>set([])</div></td></tr><tr><td style="font-weight:bold;vertical-align:top;">debugging</td><td style="vertical-align:top;">:</td><td><div>False</div></td></tr><tr><td style="font-weight:bold;vertical-align:top;">document_root</td><td style="vertical-align:top;">:</td><td><div>/var/www/html</div></td></tr><tr><td style="font-weight:bold;vertical-align:top;">gateway_interface</td><td style="vertical-align:top;">:</td><td><div>CGI/1.1</div></td></tr><tr><td style="font-weight:bold;vertical-align:top;">gluon_parent</td><td style="vertical-align:top;">:</td><td><div>/home/www-data/web2py</div></td></tr><tr><td style="font-weight:bold;vertical-align:top;">http_accept</td><td style="vertical-align:top;">:</td><td><div>text/html,application/xhtml+xml,application/xml;q=0.9,image/webp,image/apng,*/*;q=0.8</div></td></tr><tr><td style="font-weight:bold;vertical-align:top;">http_accept_encoding</td><td style="vertical-align:top;">:</td><td><div>gzip, deflate, br</div></td></tr><tr><td style="font-weight:bold;vertical-align:top;">http_accept_language</td><td style="vertical-align:top;">:</td><td><div>fr-FR,fr;q=0.8,en-US;q=0.6,en;q=0.4</div></td></tr><tr><td style="font-weight:bold;vertical-align:top;">http_connection</td><td style="vertical-align:top;">:</td><td><div>keep-alive</div></td></tr><tr><td style="font-weight:bold;vertical-align:top;">http_cookie</td><td style="vertical-align:top;">:</td><td><div>session_id_observatoireassemblee=83.203.170.41-820d7db2-0294-4aae-b786-6391edb8bfee; session_id_obsas_dev=83.203.181.3-57a24510-38a1-4c30-964a-208f8cd44b77; session_id_admin=83.203.170.106-62f39627-f7d7-4927-a80b-f6a1100be47c; session_id_oadev=83.203.181.3-42b4ae1d-9d02-4dcb-9c54-91968847678d</div></td></tr><tr><td style="font-weight:bold;vertical-align:top;">http_host</td><td style="vertical-align:top;">:</td><td><div>admin.obsas.orvdev.fr</div></td></tr><tr><td style="font-weight:bold;vertical-align:top;">http_upgrade_insecure_requests</td><td style="vertical-align:top;">:</td><td><div>1</div></td></tr><tr><td style="font-weight:bold;vertical-align:top;">http_user_agent</td><td style="vertical-align:top;">:</td><td><div>Mozilla/5.0 (X11; Linux x86_64) AppleWebKit/537.36 (KHTML, like Gecko) Chrome/60.0.3112.101 Safari/537.36</div></td></tr><tr><td style="font-weight:bold;vertical-align:top;">is_jython</td><td style="vertical-align:top;">:</td><td><div>False</div></td></tr><tr><td style="font-weight:bold;vertical-align:top;">is_py2</td><td style="vertical-align:top;">:</td><td><div>True</div></td></tr><tr><td style="font-weight:bold;vertical-align:top;">is_pypy</td><td style="vertical-align:top;">:</td><td><div>False</div></td></tr><tr><td style="font-weight:bold;vertical-align:top;">is_source</td><td style="vertical-align:top;">:</td><td><div>True</div></td></tr><tr><td style="font-weight:bold;vertical-align:top;">local_hosts</td><td style="vertical-align:top;">:</td><td><div><table><tr><td><div>vps433020</div></td></tr><tr><td><div>::ffff:127.0.0.1</div></td></tr><tr><td><div>::1</div></td></tr><tr><td><div>151.80.57.169</div></td></tr><tr><td><div>vps433020.ovh.net</div></td></tr><tr><td><div>127.0.1.1</div></td></tr><tr><td><div>admin.obsas.orvdev.fr</div></td></tr><tr><td><div>127.0.0.1</div></td></tr></table></div></td></tr><tr><td style="font-weight:bold;vertical-align:top;">mod_wsgi.application_group</td><td style="vertical-align:top;">:</td><td><div></div></td></tr><tr><td style="font-weight:bold;vertical-align:top;">mod_wsgi.callable_object</td><td style="vertical-align:top;">:</td><td><div>application</div></td></tr><tr><td style="font-weight:bold;vertical-align:top;">mod_wsgi.daemon_connects</td><td style="vertical-align:top;">:</td><td><div>1</div></td></tr><tr><td style="font-weight:bold;vertical-align:top;">mod_wsgi.daemon_restarts</td><td style="vertical-align:top;">:</td><td><div>0</div></td></tr><tr><td style="font-weight:bold;vertical-align:top;">mod_wsgi.daemon_start</td><td style="vertical-align:top;">:</td><td><div>1505688155079949</div></td></tr><tr><td style="font-weight:bold;vertical-align:top;">mod_wsgi.enable_sendfile</td><td style="vertical-align:top;">:</td><td><div>0</div></td></tr><tr><td style="font-weight:bold;vertical-align:top;">mod_wsgi.handler_script</td><td style="vertical-align:top;">:</td><td><div></div></td></tr><tr><td style="font-weight:bold;vertical-align:top;">mod_wsgi.input_chunked</td><td style="vertical-align:top;">:</td><td><div>0</div></td></tr><tr><td style="font-weight:bold;vertical-align:top;">mod_wsgi.listener_host</td><td style="vertical-align:top;">:</td><td><div></div></td></tr><tr><td style="font-weight:bold;vertical-align:top;">mod_wsgi.listener_port</td><td style="vertical-align:top;">:</td><td><div>443</div></td></tr><tr><td style="font-weight:bold;vertical-align:top;">mod_wsgi.process_group</td><td style="vertical-align:top;">:</td><td><div>obsasadm</div></td></tr><tr><td style="font-weight:bold;vertical-align:top;">mod_wsgi.queue_start</td><td style="vertical-align:top;">:</td><td><div>1505688155079724</div></td></tr><tr><td style="font-weight:bold;vertical-align:top;">mod_wsgi.request_handler</td><td style="vertical-align:top;">:</td><td><div>wsgi-script</div></td></tr><tr><td style="font-weight:bold;vertical-align:top;">mod_wsgi.request_start</td><td style="vertical-align:top;">:</td><td><div>1505688155078903</div></td></tr><tr><td style="font-weight:bold;vertical-align:top;">mod_wsgi.script_reloading</td><td style="vertical-align:top;">:</td><td><div>1</div></td></tr><tr><td style="font-weight:bold;vertical-align:top;">mod_wsgi.script_start</td><td style="vertical-align:top;">:</td><td><div>1505688155080003</div></td></tr><tr><td style="font-weight:bold;vertical-align:top;">mod_wsgi.version</td><td style="vertical-align:top;">:</td><td><div><table><tr><td><div>4</div></td></tr><tr><td><div>3</div></td></tr><tr><td><div>0</div></td></tr></table></div></td></tr><tr><td style="font-weight:bold;vertical-align:top;">mod_wsgi_application_group</td><td style="vertical-align:top;">:</td><td><div></div></td></tr><tr><td style="font-weight:bold;vertical-align:top;">mod_wsgi_callable_object</td><td style="vertical-align:top;">:</td><td><div>application</div></td></tr><tr><td style="font-weight:bold;vertical-align:top;">mod_wsgi_daemon_connects</td><td style="vertical-align:top;">:</td><td><div>1</div></td></tr><tr><td style="font-weight:bold;vertical-align:top;">mod_wsgi_daemon_restarts</td><td style="vertical-align:top;">:</td><td><div>0</div></td></tr><tr><td style="font-weight:bold;vertical-align:top;">mod_wsgi_daemon_start</td><td style="vertical-align:top;">:</td><td><div>1505688155079949</div></td></tr><tr><td style="font-weight:bold;vertical-align:top;">mod_wsgi_enable_sendfile</td><td style="vertical-align:top;">:</td><td><div>0</div></td></tr><tr><td style="font-weight:bold;vertical-align:top;">mod_wsgi_handler_script</td><td style="vertical-align:top;">:</td><td><div></div></td></tr><tr><td style="font-weight:bold;vertical-align:top;">mod_wsgi_input_chunked</td><td style="vertical-align:top;">:</td><td><div>0</div></td></tr><tr><td style="font-weight:bold;vertical-align:top;">mod_wsgi_listener_host</td><td style="vertical-align:top;">:</td><td><div></div></td></tr><tr><td style="font-weight:bold;vertical-align:top;">mod_wsgi_listener_port</td><td style="vertical-align:top;">:</td><td><div>443</div></td></tr><tr><td style="font-weight:bold;vertical-align:top;">mod_wsgi_process_group</td><td style="vertical-align:top;">:</td><td><div>obsasadm</div></td></tr><tr><td style="font-weight:bold;vertical-align:top;">mod_wsgi_queue_start</td><td style="vertical-align:top;">:</td><td><div>1505688155079724</div></td></tr><tr><td style="font-weight:bold;vertical-align:top;">mod_wsgi_request_handler</td><td style="vertical-align:top;">:</td><td><div>wsgi-script</div></td></tr><tr><td style="font-weight:bold;vertical-align:top;">mod_wsgi_request_start</td><td style="vertical-align:top;">:</td><td><div>1505688155078903</div></td></tr><tr><td style="font-weight:bold;vertical-align:top;">mod_wsgi_script_reloading</td><td style="vertical-align:top;">:</td><td><div>1</div></td></tr><tr><td style="font-weight:bold;vertical-align:top;">mod_wsgi_script_start</td><td style="vertical-align:top;">:</td><td><div>1505688155080003</div></td></tr><tr><td style="font-weight:bold;vertical-align:top;">mod_wsgi_version</td><td style="vertical-align:top;">:</td><td><div><table><tr><td><div>4</div></td></tr><tr><td><div>3</div></td></tr><tr><td><div>0</div></td></tr></table></div></td></tr><tr><td style="font-weight:bold;vertical-align:top;">nokeepalive</td><td style="vertical-align:top;">:</td><td><div>ssl-unclean-shutdown</div></td></tr><tr><td style="font-weight:bold;vertical-align:top;">path_info</td><td style="vertical-align:top;">:</td><td><div>/oadev/depute/index/loicprudhomme</div></td></tr><tr><td style="font-weight:bold;vertical-align:top;">path_translated</td><td style="vertical-align:top;">:</td><td><div>/home/www-data/web2py/wsgihandler.py/oadev/depute/index/loicprudhomme</div></td></tr><tr><td style="font-weight:bold;vertical-align:top;">query_string</td><td style="vertical-align:top;">:</td><td><div></div></td></tr><tr><td style="font-weight:bold;vertical-align:top;">remote_addr</td><td style="vertical-align:top;">:</td><td><div>83.203.181.3</div></td></tr><tr><td style="font-weight:bold;vertical-align:top;">remote_port</td><td style="vertical-align:top;">:</td><td><div>55235</div></td></tr><tr><td style="font-weight:bold;vertical-align:top;">request_method</td><td style="vertical-align:top;">:</td><td><div>GET</div></td></tr><tr><td style="font-weight:bold;vertical-align:top;">request_scheme</td><td style="vertical-align:top;">:</td><td><div>https</div></td></tr><tr><td style="font-weight:bold;vertical-align:top;">request_uri</td><td style="vertical-align:top;">:</td><td><div>/oadev/depute/index/loicprudhomme</div></td></tr><tr><td style="font-weight:bold;vertical-align:top;">script_filename</td><td style="vertical-align:top;">:</td><td><div>/home/www-data/web2py/wsgihandler.py</div></td></tr><tr><td style="font-weight:bold;vertical-align:top;">script_name</td><td style="vertical-align:top;">:</td><td><div></div></td></tr><tr><td style="font-weight:bold;vertical-align:top;">server_addr</td><td style="vertical-align:top;">:</td><td><div>151.80.57.169</div></td></tr><tr><td style="font-weight:bold;vertical-align:top;">server_admin</td><td style="vertical-align:top;">:</td><td><div>[no address given]</div></td></tr><tr><td style="font-weight:bold;vertical-align:top;">server_name</td><td style="vertical-align:top;">:</td><td><div>admin.obsas.orvdev.fr</div></td></tr><tr><td style="font-weight:bold;vertical-align:top;">server_port</td><td style="vertical-align:top;">:</td><td><div>443</div></td></tr><tr><td style="font-weight:bold;vertical-align:top;">server_protocol</td><td style="vertical-align:top;">:</td><td><div>HTTP/1.1</div></td></tr><tr><td style="font-weight:bold;vertical-align:top;">server_signature</td><td style="vertical-align:top;">:</td><td><div>&lt;address&gt;Apache/2.4.18 (Ubuntu) Server at admin.obsas.orvdev.fr Port 443&lt;/address&gt;\n</div></td></tr><tr><td style="font-weight:bold;vertical-align:top;">server_software</td><td style="vertical-align:top;">:</td><td><div>Apache/2.4.18 (Ubuntu)</div></td></tr><tr><td style="font-weight:bold;vertical-align:top;">ssl_tls_sni</td><td style="vertical-align:top;">:</td><td><div>admin.obsas.orvdev.fr</div></td></tr><tr><td style="font-weight:bold;vertical-align:top;">web2py_original_uri</td><td style="vertical-align:top;">:</td><td><div>/oadev/depute/index/loicprudhomme</div></td></tr><tr><td style="font-weight:bold;vertical-align:top;">web2py_path</td><td style="vertical-align:top;">:</td><td><div>/home/www-data/web2py</div></td></tr><tr><td style="font-weight:bold;vertical-align:top;">web2py_version</td><td style="vertical-align:top;">:</td><td><div>2.15.1-stable+timestamp.2017.07.10.21.25.06</div></td></tr><tr><td style="font-weight:bold;vertical-align:top;">wsgi.errors</td><td style="vertical-align:top;">:</td><td><div>&lt;mod_wsgi.Log object at 0x7fcd35c9cdb0&gt;</div></td></tr><tr><td style="font-weight:bold;vertical-align:top;">wsgi.file_wrapper</td><td style="vertical-align:top;">:</td><td><div>&lt;type &#x27;mod_wsgi.FileWrapper&#x27;&gt;</div></td></tr><tr><td style="font-weight:bold;vertical-align:top;">wsgi.input</td><td style="vertical-align:top;">:</td><td><div>&lt;mod_wsgi.Input object at 0x7fcd35b4dfb0&gt;</div></td></tr><tr><td style="font-weight:bold;vertical-align:top;">wsgi.multiprocess</td><td style="vertical-align:top;">:</td><td><div>False</div></td></tr><tr><td style="font-weight:bold;vertical-align:top;">wsgi.multithread</td><td style="vertical-align:top;">:</td><td><div>True</div></td></tr><tr><td style="font-weight:bold;vertical-align:top;">wsgi.run_once</td><td style="vertical-align:top;">:</td><td><div>False</div></td></tr><tr><td style="font-weight:bold;vertical-align:top;">wsgi.url_scheme</td><td style="vertical-align:top;">:</td><td><div>https</div></td></tr><tr><td style="font-weight:bold;vertical-align:top;">wsgi.version</td><td style="vertical-align:top;">:</td><td><div><table><tr><td><div>1</div></td></tr><tr><td><div>0</div></td></tr></table></div></td></tr><tr><td style="font-weight:bold;vertical-align:top;">wsgi_errors</td><td style="vertical-align:top;">:</td><td><div>&lt;mod_wsgi.Log object at 0x7fcd35c9cdb0&gt;</div></td></tr><tr><td style="font-weight:bold;vertical-align:top;">wsgi_file_wrapper</td><td style="vertical-align:top;">:</td><td><div>&lt;type &#x27;mod_wsgi.FileWrapper&#x27;&gt;</div></td></tr><tr><td style="font-weight:bold;vertical-align:top;">wsgi_input</td><td style="vertical-align:top;">:</td><td><div>&lt;mod_wsgi.Input object at 0x7fcd35b4dfb0&gt;</div></td></tr><tr><td style="font-weight:bold;vertical-align:top;">wsgi_multiprocess</td><td style="vertical-align:top;">:</td><td><div>False</div></td></tr><tr><td style="font-weight:bold;vertical-align:top;">wsgi_multithread</td><td style="vertical-align:top;">:</td><td><div>True</div></td></tr><tr><td style="font-weight:bold;vertical-align:top;">wsgi_run_once</td><td style="vertical-align:top;">:</td><td><div>False</div></td></tr><tr><td style="font-weight:bold;vertical-align:top;">wsgi_url_scheme</td><td style="vertical-align:top;">:</td><td><div>https</div></td></tr><tr><td style="font-weight:bold;vertical-align:top;">wsgi_version</td><td style="vertical-align:top;">:</td><td><div><table><tr><td><div>1</div></td></tr><tr><td><div>0</div></td></tr></table></div></td></tr></table></div></td></tr><tr><td style="font-weight:bold;vertical-align:top;">extension</td><td style="vertical-align:top;">:</td><td><div>html</div></td></tr><tr><td style="font-weight:bold;vertical-align:top;">folder</td><td style="vertical-align:top;">:</td><td><div>/home/www-data/web2py/applications/oadev/</div></td></tr><tr><td style="font-weight:bold;vertical-align:top;">function</td><td style="vertical-align:top;">:</td><td><div>index</div></td></tr><tr><td style="font-weight:bold;vertical-align:top;">global_settings</td><td style="vertical-align:top;">:</td><td><div><table><tr><td style="font-weight:bold;vertical-align:top;">app_folders</td><td style="vertical-align:top;">:</td><td><div>set([&#x27;/home/www-data/web2py/applications/admin/&#x27;, &#x27;/home/www-data/web2py/applications/oadev/&#x27;])</div></td></tr><tr><td style="font-weight:bold;vertical-align:top;">applications_parent</td><td style="vertical-align:top;">:</td><td><div>/home/www-data/web2py</div></td></tr><tr><td style="font-weight:bold;vertical-align:top;">db_sessions</td><td style="vertical-align:top;">:</td><td><div>set([])</div></td></tr><tr><td style="font-weight:bold;vertical-align:top;">debugging</td><td style="vertical-align:top;">:</td><td><div>False</div></td></tr><tr><td style="font-weight:bold;vertical-align:top;">gluon_parent</td><td style="vertical-align:top;">:</td><td><div>/home/www-data/web2py</div></td></tr><tr><td style="font-weight:bold;vertical-align:top;">is_jython</td><td style="vertical-align:top;">:</td><td><div>False</div></td></tr><tr><td style="font-weight:bold;vertical-align:top;">is_py2</td><td style="vertical-align:top;">:</td><td><div>True</div></td></tr><tr><td style="font-weight:bold;vertical-align:top;">is_pypy</td><td style="vertical-align:top;">:</td><td><div>False</div></td></tr><tr><td style="font-weight:bold;vertical-align:top;">is_source</td><td style="vertical-align:top;">:</td><td><div>True</div></td></tr><tr><td style="font-weight:bold;vertical-align:top;">local_hosts</td><td style="vertical-align:top;">:</td><td><div><table><tr><td><div>vps433020</div></td></tr><tr><td><div>::ffff:127.0.0.1</div></td></tr><tr><td><div>::1</div></td></tr><tr><td><div>151.80.57.169</div></td></tr><tr><td><div>vps433020.ovh.net</div></td></tr><tr><td><div>127.0.1.1</div></td></tr><tr><td><div>admin.obsas.orvdev.fr</div></td></tr><tr><td><div>127.0.0.1</div></td></tr></table></div></td></tr><tr><td style="font-weight:bold;vertical-align:top;">web2py_version</td><td style="vertical-align:top;">:</td><td><div>2.15.1-stable+timestamp.2017.07.10.21.25.06</div></td></tr></table></div></td></tr><tr><td style="font-weight:bold;vertical-align:top;">is_https</td><td style="vertical-align:top;">:</td><td><div>True</div></td></tr><tr><td style="font-weight:bold;vertical-align:top;">is_local</td><td style="vertical-align:top;">:</td><td><div>False</div></td></tr><tr><td style="font-weight:bold;vertical-align:top;">is_restful</td><td style="vertical-align:top;">:</td><td><div>False</div></td></tr><tr><td style="font-weight:bold;vertical-align:top;">is_scheduler</td><td style="vertical-align:top;">:</td><td><div>False</div></td></tr><tr><td style="font-weight:bold;vertical-align:top;">is_shell</td><td style="vertical-align:top;">:</td><td><div>False</div></td></tr><tr><td style="font-weight:bold;vertical-align:top;">now</td><td style="vertical-align:top;">:</td><td><div>datetime.datetime(2017, 9, 18, 0, 42, 35, 80840)</div></td></tr><tr><td style="font-weight:bold;vertical-align:top;">url</td><td style="vertical-align:top;">:</td><td><div>/oadev/depute/index/loicprudhomme</div></td></tr><tr><td style="font-weight:bold;vertical-align:top;">utcnow</td><td style="vertical-align:top;">:</td><td><div>datetime.datetime(2017, 9, 17, 22, 42, 35, 80985)</div></td></tr><tr><td style="font-weight:bold;vertical-align:top;">wsgi</td><td style="vertical-align:top;">:</td><td><div>&lt;gluon.main.LazyWSGI object at 0x7fcd5585f110&gt;</div></td></tr></table></div>'
tRp60
sS'frames'
p61
(lp62
(dp63
S'file'
p64
S'/home/www-data/web2py/gluon/restricted.py'
p65
sS'dump'
p66
(dp67
S'environment'
p68
S"{'A': <class 'gluon.html.A'>, 'ANY_OF': <class 'gluon.validators.ANY_OF'>, 'ASSIGNJS': <function ASSIGNJS>, 'AppCache': <class __restricted__.AppCache>, 'AppConfig': <function AppConfig>, 'Auth': <class 'gluon.tools.Auth'>, 'B': <class 'gluon.html.B'>, 'BEAUTIFY': <class 'gluon.html.BEAUTIFY'>, 'BODY': <class 'gluon.html.BODY'>, 'BR': <class 'gluon.html.BR'>, ...}"
p69
sS'ccode'
p70
S'<code object <module> at 0x7fcd5448f930, file "/...pplications/oadev/controllers/depute.py", line 2>'
p71
ssS'lnum'
p72
I219
sS'lines'
p73
(dp74
I214
S'    if environment is None:'
p75
sI215
S'        environment = {}'
p76
sI216
S"    environment['__file__'] = layer"
p77
sI217
S"    environment['__name__'] = '__restricted__'"
p78
sI218
S'    try:'
p79
sI219
S'        exec(ccode, environment)'
p80
sI220
S'    except HTTP:'
p81
sI221
S'        raise'
p82
sI222
S'    except RestrictedError:'
p83
sI223
S'        # do not encapsulate (obfuscate) the original RestrictedError'
p84
ssS'call'
p85
S'(ccode=<code object <module> at 0x7fcd5448f930, file "/...pplications/oadev/controllers/depute.py", line 2>, environment={\'A\': <class \'gluon.html.A\'>, \'ANY_OF\': <class \'gluon.validators.ANY_OF\'>, \'ASSIGNJS\': <function ASSIGNJS>, \'AppCache\': <class __restricted__.AppCache>, \'AppConfig\': <function AppConfig>, \'Auth\': <class \'gluon.tools.Auth\'>, \'B\': <class \'gluon.html.B\'>, \'BEAUTIFY\': <class \'gluon.html.BEAUTIFY\'>, \'BODY\': <class \'gluon.html.BODY\'>, \'BR\': <class \'gluon.html.BR\'>, ...}, layer=\'/home/www-data/web2py/applications/oadev/controllers/depute.py\')'
p86
sS'func'
p87
S'restricted'
p88
sa(dp89
g64
S'/home/www-data/web2py/applications/oadev/controllers/depute.py'
p90
sg66
(dp91
sg72
I14
sg73
(dp92
I3
S"deputesFI = cache.ram('deputesFI',lambda: mdb.deputes.find({'groupe_abrev':'FI'}).distinct('depute_shortid'),time_expire=3600)"
p93
sI4
S'def index():'
p94
sI5
S'    shortid = request.args(0)'
p95
sI6
S"    depute = mdb.deputes.find_one({'depute_shortid':shortid}) or mdb.deputes.find_one({'depute_shortid':deputesFI[int(random.random()*len(deputesFI))]})"
p96
sI7
S"    itvs = sorted(list(mdb.interventions.find({'depute_uid':depute['depute_uid']})),key=lambda x:(x['itv_date'],-x['itv_n']),reverse=True)"
p97
sI8
S"    votes = list(mdb.votes.find({'depute_uid':depute['depute_uid']}))"
p98
sI9
S"    scrutins = dict((s['scrutin_id'],s) for s in mdb.scrutins.find({'scrutin_id':{'$in':[v['scrutin_id'] for v in votes]}}))"
p99
sI10
S'    for v in votes:'
p100
sI11
S"        v.update(scrutins[v['scrutin_id']])"
p101
sI12
S'    return dict(itvs=itvs,votes=votes,**depute)'
p102
ssg85
S'()'
p103
sg87
S'<module>'
p104
sa(dp105
g64
S'/home/www-data/web2py/gluon/globals.py'
p106
sg66
(dp107
S'self'
p108
S'undefined'
p109
sS'f'
S'<function index>'
p110
ssg72
I409
sg73
(dp111
I404
S"        self.flash = ''            # used by the default view layout"
p112
sI405
S'        self.meta = Storage()      # used by web2py_ajax.html'
p113
sI406
S'        self.menu = []             # used by the default view layout'
p114
sI407
S'        self.files = []            # used by web2py_ajax.html'
p115
sI408
S'        self._vars = None'
p116
sI409
S'        self._caller = lambda f: f()'
p117
sI410
S'        self._view_environment = None'
p118
sI411
S'        self._custom_commit = None'
p119
sI412
S'        self._custom_rollback = None'
p120
sI413
S"        self.generic_patterns = ['*']"
p121
ssg85
S'(f=<function index>)'
p122
sg87
S'<lambda>'
p123
sa(dp124
g64
S'/home/www-data/web2py/applications/oadev/controllers/depute.py'
p125
sg66
(dp126
S'v.update'
p127
S'<built-in method update of dict object>'
p128
sS'scrutins'
p129
g19
sS'v'
S'{u\'_id\': ObjectId(\'59befa578e5c9b3857103090\'), u\'depute_age\': 48, u\'depute_classeage\': u\'40-50 ans\', u\'depute_csp\': u\'Professions Interm\\xe9diaires\', u\'depute_departement\': u\'Gironde\', u\'depute_nom\': u"M. Lo\\xefc Prud\'homme", u\'depute_region\': u\'Nouvelle-Aquitaine\', u\'depute_sexe\': u\'Femme\', u\'depute_typeregion\': u\'M\\xe9tropolitain\', u\'depute_uid\': u\'PA719578\', ...}'
p130
ssg72
I11
sg73
(dp131
I3
S"deputesFI = cache.ram('deputesFI',lambda: mdb.deputes.find({'groupe_abrev':'FI'}).distinct('depute_shortid'),time_expire=3600)"
p132
sI4
S'def index():'
p133
sI5
S'    shortid = request.args(0)'
p134
sI6
S"    depute = mdb.deputes.find_one({'depute_shortid':shortid}) or mdb.deputes.find_one({'depute_shortid':deputesFI[int(random.random()*len(deputesFI))]})"
p135
sI7
S"    itvs = sorted(list(mdb.interventions.find({'depute_uid':depute['depute_uid']})),key=lambda x:(x['itv_date'],-x['itv_n']),reverse=True)"
p136
sI8
S"    votes = list(mdb.votes.find({'depute_uid':depute['depute_uid']}))"
p137
sI9
S"    scrutins = dict((s['scrutin_id'],s) for s in mdb.scrutins.find({'scrutin_id':{'$in':[v['scrutin_id'] for v in votes]}}))"
p138
sI10
S'    for v in votes:'
p139
sI11
S"        v.update(scrutins[v['scrutin_id']])"
p140
sI12
S'    return dict(itvs=itvs,votes=votes,**depute)'
p141
ssg85
S'()'
p142
sg87
S'index'
p143
sasS'pyver'
p144
S'Python 2.7.12: /home/www-data/web2py/applications/obsas_dev/.pyenv/bin/python (prefix: /home/www-data/web2py/applications/obsas_dev/.pyenv)'
p145
sS'session'
p146
g59
(S's\x1a\x00\x00\x00<div><table></table></div>'
tRp147
sS'etype'
p148
S"<type 'exceptions.KeyError'>"
p149
sS'date'
p150
S'Mon Sep 18 00:42:36 2017'
p151
sS'response'
p152
g59
(S's\x12>\x00\x00<div><table><tr><td style="font-weight:bold;vertical-align:top;">body</td><td style="vertical-align:top;">:</td><td><div>&lt;cStringIO.StringO object at 0x7fcd355a6260&gt;</div></td></tr><tr><td style="font-weight:bold;vertical-align:top;">cookies</td><td style="vertical-align:top;">:</td><td><div><table><tr><td style="font-weight:bold;vertical-align:top;">session_id_oadev</td><td style="vertical-align:top;">:</td><td><div>83.203.181.3-5126d1aa-f2c5-4110-b6f2-56f11f2cafef<table><tr><td style="font-weight:bold;vertical-align:top;">comment</td><td style="vertical-align:top;">:</td><td><div></div></td></tr><tr><td style="font-weight:bold;vertical-align:top;">domain</td><td style="vertical-align:top;">:</td><td><div></div></td></tr><tr><td style="font-weight:bold;vertical-align:top;">expires</td><td style="vertical-align:top;">:</td><td><div></div></td></tr><tr><td style="font-weight:bold;vertical-align:top;">httponly</td><td style="vertical-align:top;">:</td><td><div></div></td></tr><tr><td style="font-weight:bold;vertical-align:top;">max-age</td><td style="vertical-align:top;">:</td><td><div></div></td></tr><tr><td style="font-weight:bold;vertical-align:top;">path</td><td style="vertical-align:top;">:</td><td><div>/</div></td></tr><tr><td style="font-weight:bold;vertical-align:top;">secure</td><td style="vertical-align:top;">:</td><td><div></div></td></tr><tr><td style="font-weight:bold;vertical-align:top;">version</td><td style="vertical-align:top;">:</td><td><div></div></td></tr></table></div></td></tr></table></div></td></tr><tr><td style="font-weight:bold;vertical-align:top;">delimiters</td><td style="vertical-align:top;">:</td><td><div><table><tr><td><div>{{</div></td></tr><tr><td><div>}}</div></td></tr></table></div></td></tr><tr><td style="font-weight:bold;vertical-align:top;">files</td><td style="vertical-align:top;">:</td><td><div><table></table></div></td></tr><tr><td style="font-weight:bold;vertical-align:top;">flash</td><td style="vertical-align:top;">:</td><td><div></div></td></tr><tr><td style="font-weight:bold;vertical-align:top;">form_label_separator</td><td style="vertical-align:top;">:</td><td><div></div></td></tr><tr><td style="font-weight:bold;vertical-align:top;">formstyle</td><td style="vertical-align:top;">:</td><td><div>bootstrap3_inline</div></td></tr><tr><td style="font-weight:bold;vertical-align:top;">generic_patterns</td><td style="vertical-align:top;">:</td><td><div><table><tr><td><div>*.json</div></td></tr></table></div></td></tr><tr><td style="font-weight:bold;vertical-align:top;">google_analytics_id</td><td style="vertical-align:top;">:</td><td><div>None</div></td></tr><tr><td style="font-weight:bold;vertical-align:top;">headers</td><td style="vertical-align:top;">:</td><td><div><table><tr><td style="font-weight:bold;vertical-align:top;">X-Powered-By</td><td style="vertical-align:top;">:</td><td><div>web2py</div></td></tr></table></div></td></tr><tr><td style="font-weight:bold;vertical-align:top;">logo</td><td style="vertical-align:top;">:</td><td><div><a class="navbar-brand" href="http://www.web2py.com/" id="web2py-logo"><b>web<span>2</span>py</b>&trade;&nbsp;</a></div></td></tr><tr><td style="font-weight:bold;vertical-align:top;">menu</td><td style="vertical-align:top;">:</td><td><div><table><tr><td><div><table><tr><td><div>Accueil</div></td></tr><tr><td><div>False</div></td></tr><tr><td><div>/oadev</div></td></tr><tr><td><div><table></table></div></td></tr></table></div></td></tr><tr><td><div><table><tr><td><div>Mes sites</div></td></tr><tr><td><div>False</div></td></tr><tr><td><div>/admin/site</div></td></tr></table></div></td></tr><tr><td><div><table><tr><td><div>Cette Appli</div></td></tr><tr><td><div>False</div></td></tr><tr><td><div>#</div></td></tr><tr><td><div><table><tr><td><div><table><tr><td><div>Design</div></td></tr><tr><td><div>False</div></td></tr><tr><td><div>/admin/design/oadev</div></td></tr></table></div></td></tr><tr><td><div><li class="divider"></li></div></td></tr><tr><td><div><table><tr><td><div>Contr\xc3\xb4leur</div></td></tr><tr><td><div>False</div></td></tr><tr><td><div>/admin/edit/oadev/controllers/depute.py</div></td></tr></table></div></td></tr><tr><td><div><table><tr><td><div>Pr\xc3\xa9sentation</div></td></tr><tr><td><div>False</div></td></tr><tr><td><div>/admin/edit/oadev/views/depute/index.html</div></td></tr></table></div></td></tr><tr><td><div><table><tr><td><div>Mod\xc3\xa8le BD</div></td></tr><tr><td><div>False</div></td></tr><tr><td><div>/admin/edit/oadev/models/db.py</div></td></tr></table></div></td></tr><tr><td><div><table><tr><td><div>Menu mod\xc3\xa8le</div></td></tr><tr><td><div>False</div></td></tr><tr><td><div>/admin/edit/oadev/models/menu.py</div></td></tr></table></div></td></tr><tr><td><div><table><tr><td><div>Config.ini</div></td></tr><tr><td><div>False</div></td></tr><tr><td><div>/admin/edit/oadev/private/appconfig.ini</div></td></tr></table></div></td></tr><tr><td><div><table><tr><td><div>Mise en page</div></td></tr><tr><td><div>False</div></td></tr><tr><td><div>/admin/edit/oadev/views/layout.html</div></td></tr></table></div></td></tr><tr><td><div><table><tr><td><div>Feuille de style</div></td></tr><tr><td><div>False</div></td></tr><tr><td><div>/admin/edit/oadev/static/css/web2py-bootstrap3.css</div></td></tr></table></div></td></tr><tr><td><div><table><tr><td><div>base de donn\xc3\xa9es</div></td></tr><tr><td><div>False</div></td></tr><tr><td><div>/oadev/appadmin</div></td></tr></table></div></td></tr><tr><td><div><table><tr><td><div>Erreurs</div></td></tr><tr><td><div>False</div></td></tr><tr><td><div>/admin/errors/oadev</div></td></tr></table></div></td></tr><tr><td><div><table><tr><td><div>\xc3\x80 propos</div></td></tr><tr><td><div>False</div></td></tr><tr><td><div>/admin/about/oadev</div></td></tr></table></div></td></tr></table></div></td></tr></table></div></td></tr><tr><td><div><table><tr><td><div>web2py.com</div></td></tr><tr><td><div>False</div></td></tr><tr><td><div>#</div></td></tr><tr><td><div><table><tr><td><div><table><tr><td><div>T\xc3\xa9l\xc3\xa9chargement</div></td></tr><tr><td><div>False</div></td></tr><tr><td><div>http://www.web2py.com/examples/default/download</div></td></tr></table></div></td></tr><tr><td><div><table><tr><td><div>Soutien</div></td></tr><tr><td><div>False</div></td></tr><tr><td><div>http://www.web2py.com/examples/default/support</div></td></tr></table></div></td></tr><tr><td><div><table><tr><td><div>D\xc3\xa9mo</div></td></tr><tr><td><div>False</div></td></tr><tr><td><div>http://web2py.com/demo_admin</div></td></tr></table></div></td></tr><tr><td><div><table><tr><td><div>Exemples Rapides</div></td></tr><tr><td><div>False</div></td></tr><tr><td><div>http://web2py.com/examples/default/examples</div></td></tr></table></div></td></tr><tr><td><div><table><tr><td><div>FAQ</div></td></tr><tr><td><div>False</div></td></tr><tr><td><div>http://web2py.com/AlterEgo</div></td></tr></table></div></td></tr><tr><td><div><table><tr><td><div>Vid\xc3\xa9os</div></td></tr><tr><td><div>False</div></td></tr><tr><td><div>http://www.web2py.com/examples/default/videos/</div></td></tr></table></div></td></tr><tr><td><div><table><tr><td><div>Applications gratuites</div></td></tr><tr><td><div>False</div></td></tr><tr><td><div>http://web2py.com/appliances</div></td></tr></table></div></td></tr><tr><td><div><table><tr><td><div>Plugiciels</div></td></tr><tr><td><div>False</div></td></tr><tr><td><div>http://web2py.com/plugins</div></td></tr></table></div></td></tr><tr><td><div><table><tr><td><div>Recettes</div></td></tr><tr><td><div>False</div></td></tr><tr><td><div>http://web2pyslices.com/</div></td></tr></table></div></td></tr></table></div></td></tr></table></div></td></tr><tr><td><div><table><tr><td><div>Documentation</div></td></tr><tr><td><div>False</div></td></tr><tr><td><div>#</div></td></tr><tr><td><div><table><tr><td><div><table><tr><td><div>Online book</div></td></tr><tr><td><div>False</div></td></tr><tr><td><div>http://www.web2py.com/book</div></td></tr></table></div></td></tr><tr><td><div><li class="divider"></li></div></td></tr><tr><td><div><table><tr><td><div>Pr\xc3\xa9face</div></td></tr><tr><td><div>False</div></td></tr><tr><td><div>http://www.web2py.com/book/default/chapter/00</div></td></tr></table></div></td></tr><tr><td><div><table><tr><td><div>Pr\xc3\xa9sentation</div></td></tr><tr><td><div>False</div></td></tr><tr><td><div>http://www.web2py.com/book/default/chapter/01</div></td></tr></table></div></td></tr><tr><td><div><table><tr><td><div>Python</div></td></tr><tr><td><div>False</div></td></tr><tr><td><div>http://www.web2py.com/book/default/chapter/02</div></td></tr></table></div></td></tr><tr><td><div><table><tr><td><div>Pr\xc3\xa9sentation</div></td></tr><tr><td><div>False</div></td></tr><tr><td><div>http://www.web2py.com/book/default/chapter/03</div></td></tr></table></div></td></tr><tr><td><div><table><tr><td><div>Le noyau</div></td></tr><tr><td><div>False</div></td></tr><tr><td><div>http://www.web2py.com/book/default/chapter/04</div></td></tr></table></div></td></tr><tr><td><div><table><tr><td><div>Les Vues</div></td></tr><tr><td><div>False</div></td></tr><tr><td><div>http://www.web2py.com/book/default/chapter/05</div></td></tr></table></div></td></tr><tr><td><div><table><tr><td><div>base de donn\xc3\xa9es</div></td></tr><tr><td><div>False</div></td></tr><tr><td><div>http://www.web2py.com/book/default/chapter/06</div></td></tr></table></div></td></tr><tr><td><div><table><tr><td><div>Formulaires et Validateurs</div></td></tr><tr><td><div>False</div></td></tr><tr><td><div>http://www.web2py.com/book/default/chapter/07</div></td></tr></table></div></td></tr><tr><td><div><table><tr><td><div>Courriel et texto</div></td></tr><tr><td><div>False</div></td></tr><tr><td><div>http://www.web2py.com/book/default/chapter/08</div></td></tr></table></div></td></tr><tr><td><div><table><tr><td><div>Contr\xc3\xb4le d\'acc\xc3\xa8s</div></td></tr><tr><td><div>False</div></td></tr><tr><td><div>http://www.web2py.com/book/default/chapter/09</div></td></tr></table></div></td></tr><tr><td><div><table><tr><td><div>Services</div></td></tr><tr><td><div>False</div></td></tr><tr><td><div>http://www.web2py.com/book/default/chapter/10</div></td></tr></table></div></td></tr><tr><td><div><table><tr><td><div>Recettes Ajax</div></td></tr><tr><td><div>False</div></td></tr><tr><td><div>http://www.web2py.com/book/default/chapter/11</div></td></tr></table></div></td></tr><tr><td><div><table><tr><td><div>Composants et Plugiciels</div></td></tr><tr><td><div>False</div></td></tr><tr><td><div>http://www.web2py.com/book/default/chapter/12</div></td></tr></table></div></td></tr><tr><td><div><table><tr><td><div>Recettes de d\xc3\xa9ploiement</div></td></tr><tr><td><div>False</div></td></tr><tr><td><div>http://www.web2py.com/book/default/chapter/13</div></td></tr></table></div></td></tr><tr><td><div><table><tr><td><div>Autres recettes</div></td></tr><tr><td><div>False</div></td></tr><tr><td><div>http://www.web2py.com/book/default/chapter/14</div></td></tr></table></div></td></tr><tr><td><div><table><tr><td><div>Aider web2py</div></td></tr><tr><td><div>False</div></td></tr><tr><td><div>http://www.web2py.com/book/default/chapter/15</div></td></tr></table></div></td></tr><tr><td><div><table><tr><td><div>Buy web2py\'s book</div></td></tr><tr><td><div>False</div></td></tr><tr><td><div>http://stores.lulu.com/web2py</div></td></tr></table></div></td></tr></table></div></td></tr></table></div></td></tr><tr><td><div><table><tr><td><div>Communaut\xc3\xa9</div></td></tr><tr><td><div>False</div></td></tr><tr><td><div>None</div></td></tr><tr><td><div><table><tr><td><div><table><tr><td><div>Groupes</div></td></tr><tr><td><div>False</div></td></tr><tr><td><div>http://www.web2py.com/examples/default/usergroups</div></td></tr></table></div></td></tr><tr><td><div><table><tr><td><div>Twitter</div></td></tr><tr><td><div>False</div></td></tr><tr><td><div>http://twitter.com/web2py</div></td></tr></table></div></td></tr><tr><td><div><table><tr><td><div>Clavardage en direct</div></td></tr><tr><td><div>False</div></td></tr><tr><td><div>http://webchat.freenode.net/?channels=web2py</div></td></tr></table></div></td></tr></table></div></td></tr></table></div></td></tr></table></div></td></tr><tr><td style="font-weight:bold;vertical-align:top;">meta</td><td style="vertical-align:top;">:</td><td><div><table><tr><td style="font-weight:bold;vertical-align:top;">author</td><td style="vertical-align:top;">:</td><td><div>Your Name &lt;you@example.com&gt;</div></td></tr><tr><td style="font-weight:bold;vertical-align:top;">description</td><td style="vertical-align:top;">:</td><td><div>a cool new app</div></td></tr><tr><td style="font-weight:bold;vertical-align:top;">generator</td><td style="vertical-align:top;">:</td><td><div>Web2py Web Framework</div></td></tr><tr><td style="font-weight:bold;vertical-align:top;">keywords</td><td style="vertical-align:top;">:</td><td><div><table><tr><td><div>web2py</div></td></tr><tr><td><div>python</div></td></tr><tr><td><div>framework</div></td></tr></table></div></td></tr></table></div></td></tr><tr><td style="font-weight:bold;vertical-align:top;">models_to_run</td><td style="vertical-align:top;">:</td><td><div><table><tr><td><div>^\\w+\\.py$</div></td></tr><tr><td><div>^depute/\\w+\\.py$</div></td></tr><tr><td><div>^depute/index/\\w+\\.py$</div></td></tr></table></div></td></tr><tr><td style="font-weight:bold;vertical-align:top;">postprocessing</td><td style="vertical-align:top;">:</td><td><div><table></table></div></td></tr><tr><td style="font-weight:bold;vertical-align:top;">session_client</td><td style="vertical-align:top;">:</td><td><div>83.203.181.3</div></td></tr><tr><td style="font-weight:bold;vertical-align:top;">session_cookie_compression_level</td><td style="vertical-align:top;">:</td><td><div>None</div></td></tr><tr><td style="font-weight:bold;vertical-align:top;">session_cookie_expires</td><td style="vertical-align:top;">:</td><td><div>None</div></td></tr><tr><td style="font-weight:bold;vertical-align:top;">session_data_name</td><td style="vertical-align:top;">:</td><td><div>session_data_oadev</div></td></tr><tr><td style="font-weight:bold;vertical-align:top;">session_file</td><td style="vertical-align:top;">:</td><td><div>None</div></td></tr><tr><td style="font-weight:bold;vertical-align:top;">session_filename</td><td style="vertical-align:top;">:</td><td><div>/home/www-data/web2py/applications/oadev/sessions/83.203.181.3-5126d1aa-f2c5-4110-b6f2-56f11f2cafef</div></td></tr><tr><td style="font-weight:bold;vertical-align:top;">session_hash</td><td style="vertical-align:top;">:</td><td><div>c0762cbf4baf7f9af97c051e7fcb8083</div></td></tr><tr><td style="font-weight:bold;vertical-align:top;">session_id</td><td style="vertical-align:top;">:</td><td><div>83.203.181.3-5126d1aa-f2c5-4110-b6f2-56f11f2cafef</div></td></tr><tr><td style="font-weight:bold;vertical-align:top;">session_id_name</td><td style="vertical-align:top;">:</td><td><div>session_id_oadev</div></td></tr><tr><td style="font-weight:bold;vertical-align:top;">session_masterapp</td><td style="vertical-align:top;">:</td><td><div>oadev</div></td></tr><tr><td style="font-weight:bold;vertical-align:top;">session_new</td><td style="vertical-align:top;">:</td><td><div>True</div></td></tr><tr><td style="font-weight:bold;vertical-align:top;">session_storage_type</td><td style="vertical-align:top;">:</td><td><div>file</div></td></tr><tr><td style="font-weight:bold;vertical-align:top;">status</td><td style="vertical-align:top;">:</td><td><div>200</div></td></tr><tr><td style="font-weight:bold;vertical-align:top;">subtitle</td><td style="vertical-align:top;">:</td><td><div></div></td></tr><tr><td style="font-weight:bold;vertical-align:top;">title</td><td style="vertical-align:top;">:</td><td><div>Oadev</div></td></tr><tr><td style="font-weight:bold;vertical-align:top;">view</td><td style="vertical-align:top;">:</td><td><div>depute/index.html</div></td></tr></table></div>'
tRp153
sS'locals'
p154
(dp155
S'votes'
p156
S'[{u\'_id\': ObjectId(\'59befa578e5c9b3857103090\'), u\'depute_age\': 48, u\'depute_classeage\': u\'40-50 ans\', u\'depute_csp\': u\'Professions Interm\\xe9diaires\', u\'depute_departement\': u\'Gironde\', u\'depute_nom\': u"M. Lo\\xefc Prud\'homme", u\'depute_region\': u\'Nouvelle-Aquitaine\', u\'depute_sexe\': u\'Femme\', u\'depute_typeregion\': u\'M\\xe9tropolitain\', u\'depute_uid\': u\'PA719578\', ...}, {u\'_id\': ObjectId(\'59befa578e5c9b3857103276\'), u\'depute_age\': 48, u\'depute_classeage\': u\'40-50 ans\', u\'depute_csp\': u\'Professions Interm\\xe9diaires\', u\'depute_departement\': u\'Gironde\', u\'depute_nom\': u"M. Lo\\xefc Prud\'homme", u\'depute_region\': u\'Nouvelle-Aquitaine\', u\'depute_sexe\': u\'Femme\', u\'depute_typeregion\': u\'M\\xe9tropolitain\', u\'depute_uid\': u\'PA719578\', ...}, {u\'_id\': ObjectId(\'59befa588e5c9b385710354c\'), u\'depute_age\': 48, u\'depute_classeage\': u\'40-50 ans\', u\'depute_csp\': u\'Professions Interm\\xe9diaires\', u\'depute_departement\': u\'Gironde\', u\'depute_nom\': u"M. Lo\\xefc Prud\'homme", u\'depute_region\': u\'Nouvelle-Aquitaine\', u\'depute_sexe\': u\'Femme\', u\'depute_typeregion\': u\'M\\xe9tropolitain\', u\'depute_uid\': u\'PA719578\', ...}, {u\'_id\': ObjectId(\'59befa588e5c9b38571037ba\'), u\'depute_age\': 48, u\'depute_classeage\': u\'40-50 ans\', u\'depute_csp\': u\'Professions Interm\\xe9diaires\', u\'depute_departement\': u\'Gironde\', u\'depute_nom\': u"M. Lo\\xefc Prud\'homme", u\'depute_region\': u\'Nouvelle-Aquitaine\', u\'depute_sexe\': u\'Femme\', u\'depute_typeregion\': u\'M\\xe9tropolitain\', u\'depute_uid\': u\'PA719578\', ...}, {u\'_id\': ObjectId(\'59befa598e5c9b38571039f3\'), u\'depute_age\': 48, u\'depute_classeage\': u\'40-50 ans\', u\'depute_csp\': u\'Professions Interm\\xe9diaires\', u\'depute_departement\': u\'Gironde\', u\'depute_nom\': u"M. Lo\\xefc Prud\'homme", u\'depute_region\': u\'Nouvelle-Aquitaine\', u\'depute_sexe\': u\'Femme\', u\'depute_typeregion\': u\'M\\xe9tropolitain\', u\'depute_uid\': u\'PA719578\', ...}, {u\'_id\': ObjectId(\'59befa5a8e5c9b3857103bf1\'), u\'depute_age\': 48, u\'depute_classeage\': u\'40-50 ans\', u\'depute_csp\': u\'Professions Interm\\xe9diaires\', u\'depute_departement\': u\'Gironde\', u\'depute_nom\': u"M. Lo\\xefc Prud\'homme", u\'depute_region\': u\'Nouvelle-Aquitaine\', u\'depute_sexe\': u\'Femme\', u\'depute_typeregion\': u\'M\\xe9tropolitain\', u\'depute_uid\': u\'PA719578\', ...}, {u\'_id\': ObjectId(\'59befa508e5c9b38571013c8\'), u\'depute_age\': 48, u\'depute_classeage\': u\'40-50 ans\', u\'depute_csp\': u\'Professions Interm\\xe9diaires\', u\'depute_departement\': u\'Gironde\', u\'depute_nom\': u"M. Lo\\xefc Prud\'homme", u\'depute_region\': u\'Nouvelle-Aquitaine\', u\'depute_sexe\': u\'Femme\', u\'depute_typeregion\': u\'M\\xe9tropolitain\', u\'depute_uid\': u\'PA719578\', ...}, {u\'_id\': ObjectId(\'59befa508e5c9b3857101435\'), u\'depute_age\': 48, u\'depute_classeage\': u\'40-50 ans\', u\'depute_csp\': u\'Professions Interm\\xe9diaires\', u\'depute_departement\': u\'Gironde\', u\'depute_nom\': u"M. Lo\\xefc Prud\'homme", u\'depute_region\': u\'Nouvelle-Aquitaine\', u\'depute_sexe\': u\'Femme\', u\'depute_typeregion\': u\'M\\xe9tropolitain\', u\'depute_uid\': u\'PA719578\', ...}, {u\'_id\': ObjectId(\'59befa518e5c9b385710184c\'), u\'depute_age\': 48, u\'depute_classeage\': u\'40-50 ans\', u\'depute_csp\': u\'Professions Interm\\xe9diaires\', u\'depute_departement\': u\'Gironde\', u\'depute_nom\': u"M. Lo\\xefc Prud\'homme", u\'depute_region\': u\'Nouvelle-Aquitaine\', u\'depute_sexe\': u\'Femme\', u\'depute_typeregion\': u\'M\\xe9tropolitain\', u\'depute_uid\': u\'PA719578\', ...}, {u\'_id\': ObjectId(\'59befa518e5c9b3857101a8c\'), u\'depute_age\': 48, u\'depute_classeage\': u\'40-50 ans\', u\'depute_csp\': u\'Professions Interm\\xe9diaires\', u\'depute_departement\': u\'Gironde\', u\'depute_nom\': u"M. Lo\\xefc Prud\'homme", u\'depute_region\': u\'Nouvelle-Aquitaine\', u\'depute_sexe\': u\'Femme\', u\'depute_typeregion\': u\'M\\xe9tropolitain\', u\'depute_uid\': u\'PA719578\', ...}, {u\'_id\': ObjectId(\'59befa518e5c9b3857101ae1\'), u\'depute_age\': 48, u\'depute_classeage\': u\'40-50 ans\', u\'depute_csp\': u\'Professions Interm\\xe9diaires\', u\'depute_departement\': u\'Gironde\', u\'depute_nom\': u"M. Lo\\xefc Prud\'homme", u\'depute_region\': u\'Nouvelle-Aquitaine\', u\'depute_sexe\': u\'Femme\', u\'depute_typeregion\': u\'M\\xe9tropolitain\', u\'depute_uid\': u\'PA719578\', ...}, {u\'_id\': ObjectId(\'59befa528e5c9b3857101f05\'), u\'depute_age\': 48, u\'depute_classeage\': u\'40-50 ans\', u\'depute_csp\': u\'Professions Interm\\xe9diaires\', u\'depute_departement\': u\'Gironde\', u\'depute_nom\': u"M. Lo\\xefc Prud\'homme", u\'depute_region\': u\'Nouvelle-Aquitaine\', u\'depute_sexe\': u\'Femme\', u\'depute_typeregion\': u\'M\\xe9tropolitain\', u\'depute_uid\': u\'PA719578\', ...}, {u\'_id\': ObjectId(\'59befa538e5c9b3857102142\'), u\'depute_age\': 48, u\'depute_classeage\': u\'40-50 ans\', u\'depute_csp\': u\'Professions Interm\\xe9diaires\', u\'depute_departement\': u\'Gironde\', u\'depute_nom\': u"M. Lo\\xefc Prud\'homme", u\'depute_region\': u\'Nouvelle-Aquitaine\', u\'depute_sexe\': u\'Femme\', u\'depute_typeregion\': u\'M\\xe9tropolitain\', u\'depute_uid\': u\'PA719578\', ...}, {u\'_id\': ObjectId(\'59befa538e5c9b3857102342\'), u\'depute_age\': 48, u\'depute_classeage\': u\'40-50 ans\', u\'depute_csp\': u\'Professions Interm\\xe9diaires\', u\'depute_departement\': u\'Gironde\', u\'depute_nom\': u"M. Lo\\xefc Prud\'homme", u\'depute_region\': u\'Nouvelle-Aquitaine\', u\'depute_sexe\': u\'Femme\', u\'depute_typeregion\': u\'M\\xe9tropolitain\', u\'depute_uid\': u\'PA719578\', ...}, {u\'_id\': ObjectId(\'59befa548e5c9b3857102587\'), u\'depute_age\': 48, u\'depute_classeage\': u\'40-50 ans\', u\'depute_csp\': u\'Professions Interm\\xe9diaires\', u\'depute_departement\': u\'Gironde\', u\'depute_nom\': u"M. Lo\\xefc Prud\'homme", u\'depute_region\': u\'Nouvelle-Aquitaine\', u\'depute_sexe\': u\'Femme\', u\'depute_typeregion\': u\'M\\xe9tropolitain\', u\'depute_uid\': u\'PA719578\', ...}, {u\'_id\': ObjectId(\'59befa558e5c9b3857102757\'), u\'depute_age\': 48, u\'depute_classeage\': u\'40-50 ans\', u\'depute_csp\': u\'Professions Interm\\xe9diaires\', u\'depute_departement\': u\'Gironde\', u\'depute_nom\': u"M. Lo\\xefc Prud\'homme", u\'depute_region\': u\'Nouvelle-Aquitaine\', u\'depute_sexe\': u\'Femme\', u\'depute_typeregion\': u\'M\\xe9tropolitain\', u\'depute_uid\': u\'PA719578\', ...}, {u\'_id\': ObjectId(\'59befa558e5c9b3857102a41\'), u\'depute_age\': 48, u\'depute_classeage\': u\'40-50 ans\', u\'depute_csp\': u\'Professions Interm\\xe9diaires\', u\'depute_departement\': u\'Gironde\', u\'depute_nom\': u"M. Lo\\xefc Prud\'homme", u\'depute_region\': u\'Nouvelle-Aquitaine\', u\'depute_sexe\': u\'Femme\', u\'depute_typeregion\': u\'M\\xe9tropolitain\', u\'depute_uid\': u\'PA719578\', ...}, {u\'_id\': ObjectId(\'59befa568e5c9b3857102c80\'), u\'depute_age\': 48, u\'depute_classeage\': u\'40-50 ans\', u\'depute_csp\': u\'Professions Interm\\xe9diaires\', u\'depute_departement\': u\'Gironde\', u\'depute_nom\': u"M. Lo\\xefc Prud\'homme", u\'depute_region\': u\'Nouvelle-Aquitaine\', u\'depute_sexe\': u\'Femme\', u\'depute_typeregion\': u\'M\\xe9tropolitain\', u\'depute_uid\': u\'PA719578\', ...}, {u\'_id\': ObjectId(\'59befa568e5c9b3857102ea9\'), u\'depute_age\': 48, u\'depute_classeage\': u\'40-50 ans\', u\'depute_csp\': u\'Professions Interm\\xe9diaires\', u\'depute_departement\': u\'Gironde\', u\'depute_nom\': u"M. Lo\\xefc Prud\'homme", u\'depute_region\': u\'Nouvelle-Aquitaine\', u\'depute_sexe\': u\'Femme\', u\'depute_typeregion\': u\'M\\xe9tropolitain\', u\'depute_uid\': u\'PA719578\', ...}, {u\'_id\': ObjectId(\'59befa468e5c9b38570fedb5\'), u\'depute_age\': 48, u\'depute_classeage\': u\'40-50 ans\', u\'depute_csp\': u\'Professions Interm\\xe9diaires\', u\'depute_departement\': u\'Gironde\', u\'depute_nom\': u"M. Lo\\xefc Prud\'homme", u\'depute_region\': u\'Nouvelle-Aquitaine\', u\'depute_sexe\': u\'Femme\', u\'depute_typeregion\': u\'M\\xe9tropolitain\', u\'depute_uid\': u\'PA719578\', ...}, ...]'
p157
sS'scrutins'
p158
g19
sS'itvs'
p159
S"[{u'_id': ObjectId('59bef6e36d8669a2045626d6'), u'depute_id': u'm.loicprud\\u2019homme', u'depute_uid': u'PA719578', u'itv_contenu': u'<p>Je demande la parole, monsieur le pr\\xe9sident\\xa0!</p>', u'itv_contenu_texte': u'Je demande la parole, monsieur le pr\\xe9sident!', u'itv_ctx': [u'S\\xe9ance du mercredi 09 ao\\xfbt 2017', u'3. Confiance dans la vie politique', u'Discussion g\\xe9n\\xe9rale'], u'itv_ctx_n': 10, u'itv_date': u'2017-08-09', u'itv_id': u'20171033.asp4100', u'itv_n': 410, ...}, {u'_id': ObjectId('59bef6e36d8669a2045626d8'), u'depute_id': u'm.loicprud\\u2019homme', u'depute_uid': u'PA719578', u'itv_contenu': u'<p>J\\u2019ai m\\xeame fait l\\u2019effort de met...xclamations sur les bancs du groupe LR.)</i></p>', u'itv_contenu_texte': u'J\\u2019ai m\\xeame fait l\\u2019effort de mettre...vate pour que M.Jacob m\\u2019entende bien\\u2026 ', u'itv_ctx': [u'S\\xe9ance du mercredi 09 ao\\xfbt 2017', u'3. Confiance dans la vie politique', u'Discussion g\\xe9n\\xe9rale'], u'itv_ctx_n': 12, u'itv_date': u'2017-08-09', u'itv_id': u'20171033.asp4120', u'itv_n': 412, ...}, {u'_id': ObjectId('59bef6e36d8669a2045626da'), u'depute_id': u'm.loicprud\\u2019homme', u'depute_uid': u'PA719578', u'itv_contenu': u'<p>Je profite de cet amendement pour \\xe9voque...udissements sur les bancs du groupe FI.)</i></p>', u'itv_contenu_texte': u'Je profite de cet amendement pour \\xe9voquer l... mati\\xe8re de moralisation de la vie publique. ', u'itv_ctx': [u'S\\xe9ance du mercredi 09 ao\\xfbt 2017', u'3. Confiance dans la vie politique', u'Discussion g\\xe9n\\xe9rale'], u'itv_ctx_n': 14, u'itv_date': u'2017-08-09', u'itv_id': u'20171033.asp4140', u'itv_n': 414, ...}, {u'_id': ObjectId('59bef6dd6d8669a2045620a0'), u'depute_id': u'm.loicprud\\u2019homme', u'depute_uid': u'PA719578', u'itv_contenu': u'<p>Monsieur le ministre de l\\u2019agriculture,...sur quelques bancs du groupe NG</i><i>.)</i></p>', u'itv_contenu_texte': u'Monsieur le ministre de l\\u2019agriculture, au...mune, PAC, atteint les 9milliards d\\u2019euros? ', u'itv_ctx': [u'S\\xe9ance du mercredi 02 ao\\xfbt 2017', u'1. Questions au Gouvernement', u'Agriculture biologique'], u'itv_ctx_n': 1, u'itv_date': u'2017-08-02', u'itv_id': u'20171030.asp10', u'itv_n': 1, ...}, {u'_id': ObjectId('59bef6dd6d8669a2045620ed'), u'depute_id': u'm.loicprud\\u2019homme', u'depute_uid': u'PA719578', u'itv_contenu': u'<p>La langue de bois devrait \\xeatre une discipline olympique\\xa0!</p>', u'itv_contenu_texte': u'La langue de bois devrait \\xeatre une discipline olympique!', u'itv_ctx': [u'S\\xe9ance du mercredi 02 ao\\xfbt 2017', u'1. Questions au Gouvernement', u'Jeux olympiques de 2024'], u'itv_ctx_n': 9, u'itv_date': u'2017-08-02', u'itv_id': u'20171030.asp770', u'itv_n': 77, ...}, {u'_id': ObjectId('59bef6dd6d8669a20456212d'), u'depute_id': u'm.loicprud\\u2019homme', u'depute_uid': u'PA719578', u'itv_contenu': u'<p>Expliquez cela au ministre de l\\u2019agriculture\\xa0!</p>', u'itv_contenu_texte': u'Expliquez cela au ministre de l\\u2019agriculture!', u'itv_ctx': [u'S\\xe9ance du mercredi 02 ao\\xfbt 2017', u'1. Questions au Gouvernement', u'D\\xe9passement des ressources de la plan\\xe8te'], u'itv_ctx_n': 2, u'itv_date': u'2017-08-02', u'itv_id': u'20171030.asp1410', u'itv_n': 141, ...}, {u'_id': ObjectId('59bef70a6d8669a204563c4b'), u'depute_id': u'm.loicprud\\u2019homme', u'depute_uid': u'PA719578', u'itv_contenu': u'<p>Nous comprenons votre pens\\xe9e complexe\\xa0!</p>', u'itv_contenu_texte': u'Nous comprenons votre pens\\xe9e complexe!', u'itv_ctx': [u'Premi\\xe8re s\\xe9ance du lundi 24 juillet 2017', u'2. Confiance dans la vie publique', u'Motion de renvoi en commission '], u'itv_ctx_n': 10, u'itv_date': u'2017-07-24', u'itv_id': u'20171017.asp3750', u'itv_n': 375, ...}, {u'_id': ObjectId('59bef6f16d8669a20456323c'), u'depute_id': u'm.loicprud\\u2019homme', u'depute_uid': u'PA719578', u'itv_contenu': u'<p>Celle qui souffre\\xa0!</p>', u'itv_contenu_texte': u'Celle qui souffre!', u'itv_ctx': [u'S\\xe9ance du jeudi 20 juillet 2017', u'1. D\\xe9bat d\\u2019orientation des finances publiques'], u'itv_ctx_n': 8, u'itv_date': u'2017-07-20', u'itv_id': u'20171016.asp80', u'itv_n': 8, ...}, {u'_id': ObjectId('59bef6f16d8669a20456324c'), u'depute_id': u'm.loicprud\\u2019homme', u'depute_uid': u'PA719578', u'itv_contenu': u'<p>C\\u2019est honteux\\xa0! Vous n\\u2019avez pas le droit de dire cela\\xa0!</p>', u'itv_contenu_texte': u'C\\u2019est honteux! Vous n\\u2019avez pas le droit de dire cela!', u'itv_ctx': [u'S\\xe9ance du jeudi 20 juillet 2017', u'1. D\\xe9bat d\\u2019orientation des finances publiques'], u'itv_ctx_n': 24, u'itv_date': u'2017-07-20', u'itv_id': u'20171016.asp240', u'itv_n': 24, ...}, {u'_id': ObjectId('59bef6eb6d8669a204562ea8'), u'depute_id': u'm.loicprud\\u2019homme', u'depute_uid': u'PA719578', u'itv_contenu': u'<p>Madame la pr\\xe9sidente, monsieur le secr\\x...xe9servant leur sant\\xe9 et la n\\xf4tre\\xa0!</p>', u'itv_contenu_texte': u'Madame la pr\\xe9sidente, monsieur le secr\\xe9t...t en pr\\xe9servant leur sant\\xe9 et la n\\xf4tre!', u'itv_ctx': [u'Deuxi\\xe8me s\\xe9ance du mardi 18 juillet 2017', u'1. \\xc9valuation environnementale et information du public', u'Discussion g\\xe9n\\xe9rale'], u'itv_ctx_n': 1, u'itv_date': u'2017-07-18', u'itv_id': u'20171014.asp320', u'itv_n': 32, ...}, {u'_id': ObjectId('59bef6eb6d8669a204562eaa'), u'depute_id': u'm.loicprud\\u2019homme', u'depute_uid': u'PA719578', u'itv_contenu': u'<p>Cet exemple montre bien que l\\u2019\\xe9colo...suffisantes. La nature n\\u2019a pas de prix.</p>', u'itv_contenu_texte': u'Cet exemple montre bien que l\\u2019\\xe9cologie...s insuffisantes. La nature n\\u2019a pas de prix.', u'itv_ctx': [u'Deuxi\\xe8me s\\xe9ance du mardi 18 juillet 2017', u'1. \\xc9valuation environnementale et information du public', u'Discussion g\\xe9n\\xe9rale'], u'itv_ctx_n': 3, u'itv_date': u'2017-07-18', u'itv_id': u'20171014.asp340', u'itv_n': 34, ...}, {u'_id': ObjectId('59bef6eb6d8669a204562eac'), u'depute_id': u'm.loicprud\\u2019homme', u'depute_uid': u'PA719578', u'itv_contenu': u'<p>Sa pr\\xe9servation est la condition de notre survie.</p>', u'itv_contenu_texte': u'Sa pr\\xe9servation est la condition de notre survie.', u'itv_ctx': [u'Deuxi\\xe8me s\\xe9ance du mardi 18 juillet 2017', u'1. \\xc9valuation environnementale et information du public', u'Discussion g\\xe9n\\xe9rale'], u'itv_ctx_n': 5, u'itv_date': u'2017-07-18', u'itv_id': u'20171014.asp360', u'itv_n': 36, ...}, {u'_id': ObjectId('59bef6eb6d8669a204562eae'), u'depute_id': u'm.loicprud\\u2019homme', u'depute_uid': u'PA719578', u'itv_contenu': u'<p>Nous sommes entr\\xe9s dans la sixi\\xe8me ex...udissements sur les bancs du groupe FI.)</i></p>', u'itv_contenu_texte': u'Nous sommes entr\\xe9s dans la sixi\\xe8me extin...9es par l\\u2019usage des n\\xe9onicotino\\xefdes. ', u'itv_ctx': [u'Deuxi\\xe8me s\\xe9ance du mardi 18 juillet 2017', u'1. \\xc9valuation environnementale et information du public', u'Discussion g\\xe9n\\xe9rale'], u'itv_ctx_n': 7, u'itv_date': u'2017-07-18', u'itv_id': u'20171014.asp380', u'itv_n': 38, ...}, {u'_id': ObjectId('59bef6eb6d8669a204562eb0'), u'depute_id': u'm.loicprud\\u2019homme', u'depute_uid': u'PA719578', u'itv_contenu': u'<p>Il n\\u2019est plus temps de tergiverser\\xa0... </i><i>bancs des groupes REM et MODEM.)</i></p>', u'itv_contenu_texte': u'Il n\\u2019est plus temps de tergiverser: l\\u20...t que vous ne soyez que des clones sans \\xe2me. ', u'itv_ctx': [u'Deuxi\\xe8me s\\xe9ance du mardi 18 juillet 2017', u'1. \\xc9valuation environnementale et information du public', u'Discussion g\\xe9n\\xe9rale'], u'itv_ctx_n': 9, u'itv_date': u'2017-07-18', u'itv_id': u'20171014.asp400', u'itv_n': 40, ...}, {u'_id': ObjectId('59bef6eb6d8669a204562eb2'), u'depute_id': u'm.loicprud\\u2019homme', u'depute_uid': u'PA719578', u'itv_contenu': u'<p>Mais me voil\\xe0 rassur\\xe9 par votre r\\xe9...iance \\xe0 votre capacit\\xe9 d\\u2019analyse.</p>', u'itv_contenu_texte': u'Mais me voil\\xe0 rassur\\xe9 par votre r\\xe9act...confiance \\xe0 votre capacit\\xe9 d\\u2019analyse.', u'itv_ctx': [u'Deuxi\\xe8me s\\xe9ance du mardi 18 juillet 2017', u'1. \\xc9valuation environnementale et information du public', u'Discussion g\\xe9n\\xe9rale'], u'itv_ctx_n': 11, u'itv_date': u'2017-07-18', u'itv_id': u'20171014.asp420', u'itv_n': 42, ...}, {u'_id': ObjectId('59bef6eb6d8669a204562eb4'), u'depute_id': u'm.loicprud\\u2019homme', u'depute_uid': u'PA719578', u'itv_contenu': u'<p>Dans ces conditions, je ne doute pas que vo...nents\\u2026 <i>(Sourires</i><i>.</i><i>)</i></p>', u'itv_contenu_texte': u'Dans ces conditions, je ne doute pas que vous ...micycle des math\\xe9maticiens \\xe9minents\\u2026 ', u'itv_ctx': [u'Deuxi\\xe8me s\\xe9ance du mardi 18 juillet 2017', u'1. \\xc9valuation environnementale et information du public', u'Discussion g\\xe9n\\xe9rale'], u'itv_ctx_n': 13, u'itv_date': u'2017-07-18', u'itv_id': u'20171014.asp440', u'itv_n': 44, ...}, {u'_id': ObjectId('59bef6eb6d8669a204562eb7'), u'depute_id': u'm.loicprud\\u2019homme', u'depute_uid': u'PA719578', u'itv_contenu': u'<p>Je l\\u2019ai aper\\xe7u\\xa0!<br><br>Je vous ...udissements sur les bancs du groupe FI.)</i></p>', u'itv_contenu_texte': u'Je l\\u2019ai aper\\xe7u! Je vous propose de r\\x... cela finisse par d\\xe9truire notre plan\\xe8te? ', u'itv_ctx': [u'Deuxi\\xe8me s\\xe9ance du mardi 18 juillet 2017', u'1. \\xc9valuation environnementale et information du public', u'Discussion g\\xe9n\\xe9rale'], u'itv_ctx_n': 16, u'itv_date': u'2017-07-18', u'itv_id': u'20171014.asp470', u'itv_n': 47, ...}, {u'_id': ObjectId('59bef6eb6d8669a204562ec2'), u'depute_id': u'm.loicprud\\u2019homme', u'depute_uid': u'PA719578', u'itv_contenu': u'<p>Je reprends quant \\xe0 moi la parole et peu...lesquelles nous voterons contre cet article.</p>', u'itv_contenu_texte': u'Je reprends quant \\xe0 moi la parole et peut-\\...our lesquelles nous voterons contre cet article.', u'itv_ctx': [u'Deuxi\\xe8me s\\xe9ance du mardi 18 juillet 2017', u'1. \\xc9valuation environnementale et information du public', u'Discussion des articles', u'Article\\xa02'], u'itv_ctx_n': 1, u'itv_date': u'2017-07-18', u'itv_id': u'20171014.asp570', u'itv_n': 57, ...}, {u'_id': ObjectId('59bef6ec6d8669a204562f13'), u'depute_id': u'm.loicprud\\u2019homme', u'depute_uid': u'PA719578', u'itv_contenu': u'<p>Le deuxi\\xe8me alin\\xe9a du I de l\\u2019art...udissements sur les bancs du groupe FI.)</i></p>', u'itv_contenu_texte': u'Le deuxi\\xe8me alin\\xe9a du I de l\\u2019articl...b les mots: \\xabrural, urbain et c\\xf4tier\\xbb. ', u'itv_ctx': [u'Deuxi\\xe8me s\\xe9ance du mardi 18 juillet 2017', u'1. \\xc9valuation environnementale et information du public', u'Discussion des articles', u'Apr\\xe8s l\\u2019article\\xa02', u'Amendement no 33'], u'itv_ctx_n': 3, u'itv_date': u'2017-07-18', u'itv_id': u'20171014.asp1380', u'itv_n': 138, ...}, {u'_id': ObjectId('59bef6ec6d8669a204562f15'), u'depute_id': u'm.loicprud\\u2019homme', u'depute_uid': u'PA719578', u'itv_contenu': u'<p>Ajoutons-le\\xa0!</p>', u'itv_contenu_texte': u'Ajoutons-le!', u'itv_ctx': [u'Deuxi\\xe8me s\\xe9ance du mardi 18 juillet 2017', u'1. \\xc9valuation environnementale et information du public', u'Discussion des articles', u'Apr\\xe8s l\\u2019article\\xa02', u'Amendement no 33'], u'itv_ctx_n': 5, u'itv_date': u'2017-07-18', u'itv_id': u'20171014.asp1400', u'itv_n': 140, ...}, ...]"
p160
sS'shortid'
p161
S"'loicprudhomme'"
p162
sS'v'
S'{u\'_id\': ObjectId(\'59befa578e5c9b3857103090\'), u\'depute_age\': 48, u\'depute_classeage\': u\'40-50 ans\', u\'depute_csp\': u\'Professions Interm\\xe9diaires\', u\'depute_departement\': u\'Gironde\', u\'depute_nom\': u"M. Lo\\xefc Prud\'homme", u\'depute_region\': u\'Nouvelle-Aquitaine\', u\'depute_sexe\': u\'Femme\', u\'depute_typeregion\': u\'M\\xe9tropolitain\', u\'depute_uid\': u\'PA719578\', ...}'
p163
sS'depute'
p164
S'{u\'_id\': ObjectId(\'59af324a6d8669a20452a42e\'), u\'depute_actif\': True, u\'depute_age\': 48, u\'depute_autresmandats\': [], u\'depute_bureau\': None, u\'depute_circo\': u\'3\', u\'depute_circo_id\': u\'033-03\', u\'depute_classeage\': u\'40-50 ans\', u\'depute_collaborateurs\': [u\'Mme Tiphaine Maurin\', u\'Mme Garance Bousquin\'], u\'depute_commissions\': [{u\'id\': u\'PO419865\', u\'lien\': u\'http://www2.assemblee-nationale.fr/instances/fiche/OMC_PO419865\', u\'nom\': u"Commission du d\\xe9veloppement durable et de l\'am\\xe9nagement du territoire", u\'qualite\': u\'Membre\'}], ...}'
p165
sssS'traceback'
p166
S'Traceback (most recent call last):\n  File "/home/www-data/web2py/gluon/restricted.py", line 219, in restricted\n    exec(ccode, environment)\n  File "/home/www-data/web2py/applications/oadev/controllers/depute.py", line 14, in <module>\n  File "/home/www-data/web2py/gluon/globals.py", line 409, in <lambda>\n    self._caller = lambda f: f()\n  File "/home/www-data/web2py/applications/oadev/controllers/depute.py", line 11, in index\n    v.update(scrutins[v[\'scrutin_id\']])\nKeyError: u\'15_107\'\n'
p167
s.