(dp1
S'output'
p2
S"<type 'exceptions.SyntaxError'> EOL while scanning string literal (<string>, line 32)"
p3
sS'layer'
p4
S'/home/www-data/web2py/applications/observatoireassemblee/views/depute/index.html'
p5
sS'code'
p6
S'response.write(\'<!DOCTYPE html>\\n<html lang="fr">\\n<head>\\n    <meta charset="utf-8">\\n    <meta http-equiv="x-ua-compatible" content="ie=edge">\\n    <title>ObsAss</title>\\n    <meta name="description" content="">\\n    <meta name="viewport" content="width=device-width, initial-scale=1">\\n\\n    <link href="https://fonts.googleapis.com/css?family=Montserrat:400,600,700" rel="stylesheet">\\n    <link href="https://maxcdn.bootstrapcdn.com/font-awesome/4.7.0/css/font-awesome.min.css" rel="stylesheet">\\n    <link rel="stylesheet" href="\', escape=False)\nresponse.write(URL(\'static\',\'css/main.css\'))\nresponse.write(\'" rel="stylesheet">\\n</head>\\n<body>\\n    <nav id="main-nav" class="flex">\\n        <img src="assets/logo.png" alt="Observatoire Insoumis">\\n        <ul>\\n            <li>Programme Pr\\xc3\\xa9sidentiel</li>\\n            <li>Gouvernement</li>\\n            <li>Assembl\\xc3\\xa9e Nationale</li>\\n        </ul>\\n    </nav>\\n    <header id="header">\\n        Header super chouette sisi !\\n    </header>\\n    <nav id="sub-nav">\\n        <ul>\\n            <li><i class="fa fa-users" aria-hidden="true"></i> Groupes</li>\\n            <li><i class="fa fa-user-circle-o" aria-hidden="true"></i> D\\xc3\\xa9put\\xc3\\xa9s</li>\\n            <li><i class="fa fa-thumbs-up" aria-hidden="true"></i> Suivi FI</li>\\n        </ul>\\n    </nav>\\n    \', escape=False)\nresponse.write(\'\\n    <div id="depute-template" class="container">\\n        <div class="depute-header">\\n            <div class="depute-photo">\\n                <img src="http://www2.assemblee-nationale.fr/static/tribun/15/photos/\', escape=False)\nresponse.write(depute_uid[2:])\nresponse.write(\'.jpg"/>\\n            </div>\\n            <div class="depute-identite">\\n                <header>\\n                    <h2><span>\', escape=False)\nresponse.write("%s / %s / %se circ" % (depute_region,depute_departement,depute_circo))\nresponse.write(\'</span></h2>\\n                    <h1>M. Gabriel Serville</h1>\\n                </header>\\n\\n                <div class="depute-contacts">\\n                    \', escape=False)\nfor contact in depute_contacts:\n    if (contact[\'type\']==u\'mail\'):\n        response.write(\'<a class="depute-contact" href="mailto:\', escape=False)\n        response.write(contact[\'lien\'])\n        response.write(\'"><i class="fa fa-envelope-o"></i></a>\\n                    \', escape=False)\n    elif (contact[\'type\']==\'twitter\'):\n        response.write(\'<a class="depute-contact" href="https://twitter.com/\', escape=False)\n        response.write(contact[\'lien\'][2:])\n        response.write(\'"><i class="fa fa-twitter"></i></a>\\n                    \', escape=False)\n    elif (contact[\'type\']==\'facebook\'):\n        response.write(\'<a class="depute-contact" href="https://fr-fr.facebook.com/\', escape=False)\n        response.write(contact[\'lien\'])\n        response.write(\'"><i class="fa fa-facebook-square"></i></a>\\n                    \', escape=False)\n    elif (contact[\'type\']==\'site\'):\n        response.write(\'<a class="depute-contact" href="http://\', escape=False)\n        response.write(contact[\'lien\'])\n        response.write(\'"><i class="fa fa-globe"></i></a>\\n                    \', escape=False)\n        pass\n    response.write(\'\\n                    \', escape=False)\n    pass\nresponse.write(\'\\n                </div>\\n\\n                <div class="depute-groupe GDR"><i class="fa fa-group"></i> <a href="/obsas_dev/fiches/groupe/GDR">Gauche d\\xc3\\xa9mocrate et r\\xc3\\xa9publicaine (GDR)</a></div>\\n                <div class="depute-infos"><span>Professeur de Math\\xc3\\xa9matiques - Proviseur, n\\xc3\\xa9(e) le 1959-09-27 \\xc3\\xa0 Cayenne</span></div>\\n                <div class="depute-infos"><span>Participation : 556/577</span><br /><span>Dissidence : 41/577</span></div>\\n            </div>\\n        </div>\\n\\n        <div class="tab-container">\\n            <header>\\n                <input id="tab1" type="radio" name="tabs" value="presentation">\\n                <label for="tab1"><i class="fa fa-id-card-o"></i><span>Pr\\xc3\\xa9sentation</span></label>\\n\\n                <input id="tab2" type="radio" name="tabs" value="interventions">\\n                <label for="tab2"><i class="fa fa-comment-o"></i><span>Interventions</span></label>\\n\\n                <input id="tab3" type="radio" name="tabs" value="votes" checked>\\n                <label for="tab3"><i class="fa fa-hand-paper-o"></i><span>Votes</span></label>\\n            </header>\\n\\n            <section id="presentation" class="tab-content"> <!-- Pr\\xc3\\xa9sentation -->\\n                <div class="depute-hemicycle">\\n                    <object id="hemicycle" data="https://admin.obsas.orvdev.fr/obsas_dev/static/images/hemicyclelight.svg" type="image/svg+xml"></object>\\n                </div>\\n                <div class="depute-fonctions">\\n                    <h2>Fonctions / Mandats</h2>\\n                    <ul class="fa-ul">\\n                        <li>\\n                            <i class="fa fa-li fa-arrow-circle-o-right"></i> Secr\\xc3\\xa9taire <a href="/obsas_dev/fiches/organe?id=PO717460">de l&#x27;Assembl\\xc3\\xa9e</a> (depuis le 28 juin 2017)\\n                        </li><li>\\n                            <i class="fa fa-li fa-arrow-circle-o-right"></i> Membre <a href="/obsas_dev/fiches/organe?id=PO730940">du groupe Gauche d\\xc3\\xa9mocrate et r\\xc3\\xa9publicaine</a> (depuis le 27 juin 2017)\\n                        </li><li>\\n                            <i class="fa fa-li fa-arrow-circle-o-right"></i> Membre <a href="/obsas_dev/fiches/organe?id=PO419865">de la commission du d\\xc3\\xa9veloppement durable et de l&#x27;am\\xc3\\xa9nagement du territoire</a> (depuis le 29 juin 2017)\\n                        </li>\\n                    </ul>\\n                </div>\\n                <div class="depute-watch">\\n                    <h2>Deputy Watch</h2>\\n                    <div class="flex">\\n                        <img src="assets/deputywatch.png" alt="Deputy Watch">\\n                        <div>\\n                            Le site Deputy Watch tente de recenser les ant\\xc3\\xa9c\\xc3\\xa9dents judiciaires de notori\\xc3\\xa9t\\xc3\\xa9 publique des \\xc3\\xa9lus.\\n                            Nous y avons cherch\\xc3\\xa9 ce d\\xc3\\xa9put\\xc3\\xa9 et il semblerait qu\\\'il y soit list\\xc3\\xa9.<br />\\n                            <a href="https://www.deputywatch.org/afficherDepute/?nom=Serville&amp;prenom=Gabriel&amp;consulter=1" target="_blank">\\n                                <i class="fa fa-arrow-circle-o-right"></i> Voir le r\\xc3\\xa9sultat\\n                            </a>\\n                        </div>\\n                    </div>\\n                </div>\\n\\n                <div>\\n                    <h2>D\\xc3\\xa9claration \\xc3\\xa0 la HATVP</h2>\\n                    <ul class="fa-ul">\\n                        <li>\\n                            <a href="http://www.hatvp.fr/livraison/dossiers/dispense" target="_blank">\\n                                <i class="fa fa-li fa-file-text-o"></i>\\n                                D\\xc3\\xa9claration d\\xe2\\x80\\x99int\\xc3\\xa9r\\xc3\\xaats - Maire de Matoury\\n                            </a>\\n                        </li>\\n                    </ul>\\n                </div>\\n            </section>\\n\\n\\t\\t\\t<section id="interventions" class="tab-content"> <!-- Interventions -->\\n                <div class="depute-interventions-recap">\\n                    Nombre d\\\'interventions : <span>311</span>, nombre de mots : <span>23812</span>\\n                </div>\\n                <div class="depute-interventions-cloud">\\n                    <div>\\n                        <h2>Ses mots</h2>\\n                        <div id="sourrounding_div_noms" class="cloud">\\n                            <canvas id="wordcanvas_noms"></canvas>\\n                        </div>\\n                    </div>\\n                    <div>\\n                        <h2>Ses verbes</h2>\\n                        <div id="sourrounding_div_verbs" class="cloud">\\n                            <canvas id="wordcanvas_verbs"></canvas>\\n                        </div>\\n                    </div>\\n                </div>\\n                <div id="itvlist">\\n                    <h2>Ses interventions</h2>\\n                    <div class="depute-interventions-search">\\n                        <label for="search"><i class="fa fa-search" aria-hidden="true"></i></label>\\n                        <input class="search" placeholder="Rechercher une intervention">\\n                    </div>\\n                    <ul class="fa-ul">\\n                        <li>\\n                            <i class="fa fa-list fa-comment"></i>\\n                            <a href="http://www.assemblee-nationale.fr/15/cri/2016-2017-extra/20171033.asp#P1019124" target="_blank">\\n                                <h3>S\\xc3\\xa9ance du mercredi 09 ao\\xc3\\xbbt 2017 / 2. Questions au Gouvernement / Bilan de la session extraordinaire</h3>\\n                            </a>\\n                            <blockquote>Pour notre malheur !</blockquote>\\n                        </li>\\n                        <li>\\n                            <i class="fa fa-list fa-comment"></i>\\n                            <a href="http://www.assemblee-nationale.fr/15/cri/2016-2017-extra/20171033.asp#P1019138" target="_blank">\\n                                <h3>S\\xc3\\xa9ance du mercredi 09 ao\\xc3\\xbbt 2017 / 2. Questions au Gouvernement / Bilan de la session extraordinaire</h3>\\n                            </a>\\n                            <blockquote>Vos histoires de famille, on s\\xe2\\x80\\x99en fout !</blockquote>\\n                        </li>\\n                        <li>\\n                            <i class="fa fa-list fa-comment"></i>\\n                            <a href="http://www.assemblee-nationale.fr/15/cri/2016-2017-extra/20171033.asp#P1019360" target="_blank">\\n                                <h3>S\\xc3\\xa9ance du mercredi 09 ao\\xc3\\xbbt 2017 / 2. Questions au Gouvernement / Ma\\xc3\\xaetrise des flux migratoires</h3>\\n                            </a>\\n                            <blockquote>La faute \\xc3\\xa0 qui ?</blockquote>\\n                        </li>\\n                        <li>\\n                            <i class="fa fa-list fa-comment"></i>\\n                            <a href="http://www.assemblee-nationale.fr/15/cri/2016-2017-extra/20171033.asp#P1019469" target="_blank">\\n                                <h3>S\\xc3\\xa9ance du mercredi 09 ao\\xc3\\xbbt 2017 / 2. Questions au Gouvernement / Allocation de rentr\\xc3\\xa9e scolaire</h3>\\n                            </a>\\n                            <blockquote>Et vous fermez des lyc\\xc3\\xa9es !</blockquote>\\n                        </li>\\n                        <li>\\n                            <i class="fa fa-list fa-comment"></i>\\n                            <a href="http://www.assemblee-nationale.fr/15/cri/2016-2017-extra/20171033.asp#P1019206" target="_blank">\\n                                <h3>S\\xc3\\xa9ance du mercredi 09 ao\\xc3\\xbbt 2017 / 2. Questions au Gouvernement / Privatisation des a\\xc3\\xa9roports</h3>\\n                            </a>\\n                            <blockquote>Ah oui ! \\xc3\\x80 bas le capital !</blockquote>\\n                        </li>\\n                    </ul>\\n                </div>\\n\\t\\t\\t</section>\\n\\n\\t\\t\\t<section id="votes" class="tab-content"> <!-- Votes -->\\n\\t\\t\\t\\t<div class="depute-votes-recap">\\n                    <div class="gauge">\\n                        <h2>Participation</h2>\\n                    </div>\\n                    <div class="gauge">\\n                        <h2>Contre son groupe</h2>\\n                    </div>\\n                    <div class="gauge">\\n                        <h2>EM-Compatibilit\\xc3\\xa9</h2>\\n                    </div>\\n                </div>\\n                <div class="depute-votes-calendar">\\n                    <h2>Calendrier des votes</h2>\\n                    <div id="calendar"></div>\\n                </div>\\n\\n                <div class="depute-votes-list">\\n                    <h2>Ses votes</h2>\\n                    <div class="depute-votes-search">\\n                        <label for="search"><i class="fa fa-search" aria-hidden="true"></i></label>\\n                        <input class="search" placeholder="Rechercher un vote">\\n                    </div>\\n                    <ul>\\n                        <li>\\n                            <div class="ico abstention">\\n                                <i class="fa fa-book"></i>\\n                            </div>\\n                            <div>\\n                                <header>\\n                                    <div>\\n                                        <h3><span>Pouvoirs publics : confiance dans l&#x27;action publique - Loi propos\\xc3\\xa9e par LREM</span></h3>\\n                                        <a href="/obsas_dev/fiches/scrutin?id=15_119">Scrutin n\\xc2\\xb0119 du 09/08/2017 (adopt\\xc3\\xa9)</a>\\n                                    </div>\\n                                    <div class="vote abstention"><i class="fa fa-microphone-slash"></i> Abstention</div>\\n                                </header>\\n                                <p><i class="fa fa-arrow-circle-o-right"></i> l&#x27;ensemble du projet de loi organique pour la confiance dans la vie politique (lecture d\\xc3\\xa9finitive).</p>\\n                            </div>\\n                        </li>\\n                        <li>\\n                            <div class="ico contre">\\n                                <i class="fa fa-pencil-square"></i>\\n                            </div>\\n                            <div>\\n                                <header>\\n                                    <div>\\n                                        <h3><span>Pouvoirs publics : confiance dans l&#x27;action publique - Amendement propos\\xc3\\xa9 par LFI</span></h3>\\n                                        <a href="/obsas_dev/fiches/scrutin?id=15_118">Scrutin n\\xc2\\xb0118 du 09/08/2017 (rejet\\xc3\\xa9)</a>\\n                                    </div>\\n                                    <div class="vote contre"><i class="fa fa-thumbs-down"></i> Contre</div>\\n                                </header>\\n                                <p><i class="fa fa-arrow-circle-o-right"></i> l&#x27;amendement n\\xc2\\xb0 1 de M. Saddier et les amendements identiques suivants au projet de loi organique pour la confiance dans la vie politique (lecture d\\xc3\\xa9finitive).</p>\\n                            </div>\\n                        </li>\\n                        <li>\\n                            <div class="ico pour">\\n                                <i class="fa fa-file"></i>\\n                            </div>\\n                            <div>\\n                                <header>\\n                                    <div>\\n                                        <h3><span>Pouvoirs publics : confiance dans l&#x27;action publique - Loi propos\\xc3\\xa9e par LR</span></h3>\\n                                        <a href="/obsas_dev/fiches/scrutin?id=15_117">Scrutin n\\xc2\\xb0117 du 03/08/2017 (adopt\\xc3\\xa9)</a>\\n                                    </div>\\n                                    <div class="vote pour"><i class="fa fa-thumbs-up"></i> Pour</div>\\n                                </header>\\n                                <p><i class="fa fa-arrow-circle-o-right"></i> l&#x27;ensemble du projet de loi organique pour la confiance dans la vie politique (nouvelle lecture).</p>\\n                            </div>\\n                        </li>\\n                        <li>\\n                            <div class="ico absent">\\n                                <i class="fa fa-undo"></i>\\n                            </div>\\n                            <div>\\n                                <header>\\n                                    <div>\\n                                        <h3><span>Pouvoirs publics : confiance dans l&#x27;action publique - Motion propos\\xc3\\xa9e par le PCF</span></h3>\\n                                        <a href="/obsas_dev/fiches/scrutin?id=15_116">Scrutin n\\xc2\\xb0116 du 03/08/2017 (rejet\\xc3\\xa9)</a>\\n                                    </div>\\n                                    <div class="vote absent"><i class="fa fa-question"></i> Absent</div>\\n                                </header>\\n                                <p><i class="fa fa-arrow-circle-o-right"></i> l&#x27;amendement n\\xc2\\xb0 59 de Mme Batho \\xc3\\xa0 l&#x27;article 12 du projet de loi organique pour la confiance dans la vie politique (nouvelle lecture).</p>\\n                            </div>\\n                        </li>\\n                        <li>\\n                            <div class="ico absent">\\n                                <i class="fa fa-microphone"></i>\\n                            </div>\\n                            <div>\\n                                <header>\\n                                    <div>\\n                                        <h3><span>Pouvoirs publics : confiance dans l&#x27;action publique - D\\xc3\\xa9claration</span></h3>\\n                                        <a href="/obsas_dev/fiches/scrutin?id=15_116">Scrutin n\\xc2\\xb0116 du 03/08/2017 (rejet\\xc3\\xa9)</a>\\n                                    </div>\\n                                    <div class="vote absent"><i class="fa fa-question"></i> Absent</div>\\n                                </header>\\n                                <p><i class="fa fa-arrow-circle-o-right"></i> l&#x27;amendement n\\xc2\\xb0 59 de Mme Batho \\xc3\\xa0 l&#x27;article 12 du projet de loi organique pour la confiance dans la vie politique (nouvelle lecture).</p>\\n                            </div>\\n                        </li>\\n                        <li>\\n                            <div class="ico absent">\\n                                <i class="fa fa-undo"></i>\\n                            </div>\\n                            <div>\\n                                <header>\\n                                    <div>\\n                                        <h3><span>Pouvoirs publics : confiance dans l&#x27;action publique - Motion propos\\xc3\\xa9e par le MODEM</span></h3>\\n                                        <a href="/obsas_dev/fiches/scrutin?id=15_116">Scrutin n\\xc2\\xb0116 du 03/08/2017 (rejet\\xc3\\xa9)</a>\\n                                    </div>\\n                                    <div class="vote absent"><i class="fa fa-question"></i> Absent</div>\\n                                </header>\\n                                <p><i class="fa fa-arrow-circle-o-right"></i> l&#x27;amendement n\\xc2\\xb0 59 de Mme Batho \\xc3\\xa0 l&#x27;article 12 du projet de loi organique pour la confiance dans la vie politique (nouvelle lecture).</p>\\n                            </div>\\n                        </li>\\n                        <li>\\n                            <div class="ico absent">\\n                                <i class="fa fa-undo"></i>\\n                            </div>\\n                            <div>\\n                                <header>\\n                                    <div>\\n                                        <h3><span>Pouvoirs publics : confiance dans l&#x27;action publique - Motion propos\\xc3\\xa9e par le PS</span></h3>\\n                                        <a href="/obsas_dev/fiches/scrutin?id=15_116">Scrutin n\\xc2\\xb0116 du 03/08/2017 (rejet\\xc3\\xa9)</a>\\n                                    </div>\\n                                    <div class="vote absent"><i class="fa fa-question"></i> Absent</div>\\n                                </header>\\n                                <p><i class="fa fa-arrow-circle-o-right"></i> l&#x27;amendement n\\xc2\\xb0 59 de Mme Batho \\xc3\\xa0 l&#x27;article 12 du projet de loi organique pour la confiance dans la vie politique (nouvelle lecture).</p>\\n                            </div>\\n                        </li>\\n                    </ul>\\n                </div>\\n            </section>\\n        </div>\\n    </div>\\n\', escape=False)\nresponse.write(\'\\n    \', escape=False)\nresponse.write(\'\\n    <script src="https://cdnjs.cloudflare.com/ajax/libs/jquery/3.2.1/jquery.min.js"></script>\\n    <script src="\', escape=False)\nresponse.write(URL(\'static\',\'js/wordcloud2.js\')"></script>\n<script src="https://d3js.org/d3.v4.min.js"></script>\n<script>\n$(document).ready(function() {\nvar visible = $(\'.tab-container input:checked\').val();\n$(\'#\' + visible).addClass(\'visible\');\n$(\'.tab-container input\').change(function(e) {\n$(\'.tab-content\').removeClass(\'visible\');\n$(\'#\' + e.target.value).addClass(\'visible\');\n});\n// Nuages\nvar wordlist = {};\nwordlist[\'noms\'] = JSON.parse(\'[["politique", 184], ["travail", 180], ["loi", 165], ["droit", 142], ["social", 126], ["compte", 111], ["va", 111], ["seul", 99], ["doit", 88], ["grand", 88], ["d\\u00e9bat", 88], ["entreprise", 84], ["r\\u00e9publique", 80], ["chose", 80], ["monde", 76], ["public", 76], ["raison", 76], ["accord", 72], ["pays", 72], ["temps", 72], ["situation", 69], ["rapport", 69], ["cas", 65], ["fran\\u00e7ais", 65], ["syndicat", 61], ["norme", 61], ["mer", 57], ["salari\\u00e9", 57], ["condition", 57], ["moment", 57], ["gens", 57], ["vie", 53], ["principe", 53], ["demande", 53], ["code", 53], ["peuple", 49], ["mani\\u00e8re", 49], ["fort", 46], ["groupe", 46], ["vote", 46], ["\\u00e9conomique", 46], ["reste", 42], ["ordonnance", 42], ["d\\u00e9cision", 42], ["discussion", 42], ["part", 42], ["moins", 42], ["\\u00e9tat", 42], ["pouvoir", 42], ["sens", 42], ["licenciement", 38], ["peu", 38], ["travailleur", 38], ["g\\u00e9n\\u00e9ral", 38], ["bon", 34], ["instant", 34], ["mesure", 30], ["branche", 30], ["mot", 30], ["compris", 30], ["territoire", 30], ["train", 30], ["dette", 30], ["libert\\u00e9", 26], ["confiance", 26], ["petit", 26], ["vue", 26], ["r\\u00e8gle", 26], ["personne", 26], ["jour", 26], ["soci\\u00e9t\\u00e9", 26], ["fa\\u00e7on", 26], ["niveau", 26], ["fin", 23], ["contraire", 23], ["possible", 23], ["hi\\u00e9rarchie", 23], ["c\\u00f4t\\u00e9", 23], ["taux", 23], ["relation", 23], ["heure", 23], ["assembl\\u00e9e", 23], ["cause", 23], ["partie", 23], ["personnel", 23], ["crise", 23], ["production", 19], ["pris", 19], ["sorte", 19], ["doute", 19], ["article", 19], ["d\\u00e9tach\\u00e9", 19], ["r\\u00e9serve", 19], ["particulier", 19], ["donne", 19], ["t\\u00e9l\\u00e9travail", 19], ["trente", 19], ["moyen", 19], ["protection", 15], ["banc", 15], ["faveur", 15], ["parler", 15], ["donner", 15], ["projet", 15], ["ann\\u00e9e", 15], ["contrat", 15], ["mandat", 15], ["savoir", 15], ["repr\\u00e9sentation", 15], ["classe", 15], ["r\\u00e9sultat", 15], ["lutte", 15], ["ami", 15], ["jeune", 11], ["bas", 11], ["candidat", 11], ["bonne", 11], ["brave", 11], ["mal", 11], ["nombreux", 11], ["probl\\u00e8me", 11], ["forme", 11], ["contr\\u00f4le", 11], ["nouveau", 11], ["d\\u00e9pense", 11], ["vision", 11], ["besoin", 11], ["r\\u00f4le", 11], ["devon", 11], ["r\\u00e9publicain", 11], ["majorit\\u00e9", 11], ["fond", 11], ["comp\\u00e9titivit\\u00e9", 11], ["propos", 11], ["coup", 11], ["signal", 11], ["conseil", 11], ["r\\u00e9f\\u00e9rendum", 11], ["nature", 11], ["s\\u00e9curit\\u00e9", 7], ["propre", 7], ["candidature", 7], ["vertu", 7], ["philosophie", 7], ["capacit\\u00e9", 7], ["terme", 7], ["gouvernement", 7], ["cadre", 7], ["passage", 7], ["salaire", 7], ["vrai", 7], ["europ\\u00e9en", 7], ["fonctionnaire", 7], ["responsabilit\\u00e9", 7], ["r\\u00e9volution", 7], ["d\\u00e9mocratie", 7], ["s\\u00e9ance", 7], ["source", 7], ["suppression", 7], ["proposition", 7], ["repr\\u00e9sentant", 7], ["nationale", 7], ["d\\u00e9but", 7], ["qualification", 7], ["face", 7], ["libre", 7], ["revient", 7], ["cotisation", 7], ["h\\u00e9micycle", 7], ["collectif", 7], ["entendu", 7], ["pardon", 3], ["patronal", 3], ["histoire", 3], ["circonstance", 3], ["service", 3], ["somme", 3], ["quarante", 3], ["rendu", 3], ["argument", 3], ["change", 3], ["volont\\u00e9", 3], ["int\\u00e9r\\u00eat", 3], ["organisation", 3], ["r\\u00e9ponse", 3], ["capable", 3], ["propri\\u00e9t\\u00e9", 3], ["tour", 3], ["ouvrier", 3], ["violence", 3], ["fiscal", 3], ["sixi\\u00e8me", 3], ["espace", 3], ["r\\u00e9alit\\u00e9", 3], ["acte", 3], ["surtout", 3], ["bout", 3], ["porte", 3], ["favorable", 3], ["dernier", 3]]\');\nwordlist[\'verbs\'] = JSON.parse(\'[["faire", 515], ["pouvoir", 510], ["vouloir", 289], ["falloir", 265], ["croire", 176], ["venir", 171], ["permettre", 127], ["prendre", 122], ["voir", 117], ["trouver", 103], ["mettre", 103], ["aller", 103], ["parler", 103], ["penser", 103], ["voter", 88], ["demander", 83], ["devoir", 83], ["comprendre", 78], ["rappeler", 63], ["discuter", 58], ["supprimer", 58], ["cr\\u00e9er", 58], ["repr\\u00e9senter", 58], ["r\\u00e9pondre", 58], ["tenir", 54], ["passer", 54], ["\\u00e9voquer", 54], ["proposer", 54], ["changer", 49], ["commencer", 49], ["maintenir", 49], ["arriver", 49], ["travailler", 49], ["savoir", 44], ["consid\\u00e9rer", 44], ["inventer", 39], ["sembler", 39], ["donner", 34], ["appeler", 34], ["finir", 34], ["montrer", 34], ["entendre", 34], ["rendre", 34], ["conclure", 34], ["respecter", 34], ["d\\u00e9fendre", 34], ["remercier", 34], ["souhaiter", 34], ["concerner", 29], ["expliquer", 29], ["partir", 29], ["sais", 29], ["para\\u00eetre", 29], ["vivre", 29], ["r\\u00e9fl\\u00e9chir", 29], ["exister", 29], ["conna\\u00eetre", 29], ["pr\\u00e9senter", 29], ["rester", 29], ["saisir", 29], ["devenir", 24], ["pr\\u00e9voir", 24], ["valoir", 24], ["exprimer", 24], ["perdre", 24], ["relever", 24], ["pr\\u00e9parer", 24], ["accepter", 24], ["payer", 24], ["intervenir", 24], ["signifier", 24], ["essayer", 24], ["revenir", 19], ["b\\u00e9n\\u00e9ficier", 19], ["convenir", 19], ["retirer", 19], ["rassurer", 19], ["soutenir", 19], ["prot\\u00e9ger", 19], ["r\\u00e9duire", 19], ["interpeller", 19], ["terminer", 19], ["choisir", 19], ["reconna\\u00eetre", 19], ["proc\\u00e9der", 19], ["d\\u00e9noncer", 19], ["suivre", 19], ["cesser", 19], ["r\\u00e9unir", 19], ["regarder", 19], ["viser", 19], ["r\\u00e9tablir", 19], ["laisser", 19], ["correspondre", 19], ["r\\u00e9sumer", 19], ["participer", 19], ["d\\u00e9pendre", 19], ["reprendre", 14], ["\\u00e9couter", 14], ["exercer", 14], ["sugg\\u00e9rer", 14], ["entrer", 14], ["parvenir", 14], ["construire", 14], ["invoquer", 14], ["affirmer", 14], ["imaginer", 14], ["produire", 14], ["pr\\u00e9tendre", 14], ["dominer", 14], ["soulever", 14], ["servir", 14], ["d\\u00e9truire", 14], ["percevoir", 14], ["d\\u00e9poser", 14], ["poster", 14], ["admettre", 14], ["chercher", 14], ["souligner", 14], ["utiliser", 14], ["d\\u00e9rouler", 9], ["gouverner", 9], ["inverser", 9], ["rechercher", 9], ["opposer", 9], ["plaire", 9], ["d\\u00e9placer", 9], ["lutter", 9], ["pratiquer", 9], ["estimer", 9], ["modifier", 9], ["citer", 9], ["conduire", 9], ["convaincre", 9], ["r\\u00e9sulter", 9], ["connais", 9], ["reculer", 9], ["organiser", 9], ["corriger", 9], ["apporter", 9], ["d\\u00e9penser", 9], ["contenter", 9], ["aboutir", 9], ["supposer", 9], ["recevoir", 9], ["autoriser", 9], ["manifester", 9], ["accumuler", 9], ["garantir", 9], ["favoriser", 9], ["pousser", 9], ["souvenir", 9], ["suffire", 9], ["distinguer", 9], ["emp\\u00eacher", 9], ["traduire", 9], ["couper", 9], ["compl\\u00e9ter", 9], ["confirmer", 9], ["traiter", 9], ["contenir", 9], ["contribuer", 9], ["d\\u00e9montrer", 9], ["r\\u00e9gler", 9], ["refuser", 9], ["disposer", 9], ["d\\u00e9cider", 9], ["monter", 9], ["mourir", 9], ["constater", 9], ["co\\u00fbter", 9], ["d\\u00e9faire", 9], ["projeter", 4], ["peser", 4], ["aider", 4], ["d\\u00e9sorganiser", 4], ["continuer", 4], ["d\\u00e9roger", 4], ["partager", 4], ["attendre", 4], ["animer", 4], ["importer", 4], ["soustraire", 4], ["assister", 4], ["r\\u00e9p\\u00e9ter", 4], ["refonder", 4], ["aimer", 4], ["r\\u00e9f\\u00e9rer", 4], ["insister", 4], ["pr\\u00e9sider", 4], ["sortir", 4], ["poss\\u00e9der", 4], ["d\\u00e9porter", 4], ["fausser", 4], ["installer", 4], ["d\\u00e9couvrir", 4], ["argumenter", 4], ["surgir", 4], ["emb\\u00eater", 4], ["ressembler", 4]]\');\nfunction showNuage(lex) {\nif (lex==\'verbatim\') {\nreturn\n}\nvar div = document.getElementById("sourrounding_div_"+lex);\nvar canvas = document.getElementById("wordcanvas_"+lex);\ncanvas.height = div.offsetHeight;\ncanvas.width  = div.offsetWidth;\nWordCloud(document.getElementById(\'wordcanvas_\'+lex), {\ngridSize: Math.round(16 * document.getElementById(\'wordcanvas_\'+lex).offsetWidth / 1024),\nweightFactor: function (size) {\nreturn 0.3*size;\n},\nlist: wordlist[lex],\ncolor: function(word, weight) {\nif (weight < 50) {\nreturn \'#82cde2\';\n} else if (weight < 130) {\nreturn \'#213558\';\n}\nreturn \'#ff0052\';\n},\nbackgroundColor: \'transparent\'\n});\n}\nfunction drawNuages() {\nshowNuage(\'noms\');\nshowNuage(\'verbs\');\n}\n// Calendrier\nfunction genCalendar() {\nvar width = document.getElementById(\'calendar\').offsetWidth+20,\nyearHeight = width / 7,\nheight = yearHeight,\ncellSize = yearHeight / 8;\nvar percent = d3.format(".1%"),\nformat = d3.timeFormat("%Y-%m-%d");\nvar color = d3.scaleQuantize()\n.domain([.0, 1.0])\n.range(d3.range(5).map(function(d) { return "q" + d + "-5"; }));\nvar svgcal = d3.select("#calendar").selectAll("svg")\n.data(d3.range(2017, 2018))\n.enter().append("svg")\n.attr("width", width)\n.attr("height", height+20)\n.attr("class", "RdYlGn")\n.append("g")\n.attr("transform", "translate(" + ((width - cellSize * 53) / 2) + "," + (20+height - cellSize * 7 - 1) + ")");\nsvgcal.append("text")\n.attr("transform", "translate(-6," + cellSize * 3.5 + ")rotate(-90)")\n.style("text-anchor", "middle")\n.text(function(d) { return d; });\nvar rect = svgcal.selectAll(".day")\n.data(function(d) { return d3.timeDays(new Date(d, 0, 1), new Date(d + 1, 0, 1)); })\n.enter().append("rect")\n.attr("class", "day")\n.attr("width", cellSize)\n.attr("height", cellSize)\n.attr("x", function(d) { return d3.timeMonday.count(d3.timeYear(d), d) * cellSize; })\n.attr("y", function(d) { return ((d.getDay()+6)%7) * cellSize; })\n.datum(format);\nrect.append("title")\n.text(function(d) { return d; });\nsvgcal.selectAll(".month")\n.data(function(d) { return d3.timeMonths(new Date(d, 0, 1), new Date(d + 1, 0, 1)); })\n.enter().append("text").text(monthLabel).style("font-size:10px;", "middle").attr("transform",monthLabelTransform);\nfunction monthLabel(t0) {\nreturn Array(\'JAN\',\'FEV\',\'MAR\',\'AVR\',\'MAI\',\'JUN\',\'JUI\',\'AOU\',\'SEP\',\'OCT\',\'NOV\',\'DEC\')[t0.getMonth()];\n}\nfunction monthLabelTransform(t0) {\nvar t1 = new Date(t0.getFullYear(), t0.getMonth() + 1, 0),\nd0 = ((t0.getDay()+6)%7), w0 = d3.timeMonday.count(d3.timeYear(t0), t0)\nd1 = ((t1.getDay()+6)%7), w1 = d3.timeMonday.count(d3.timeYear(t1), t1);\nreturn "translate("+(2+w0)*cellSize+",-5)";\n}\nsvgcal.selectAll(".month")\n.data(function(d) { return d3.timeMonths(new Date(d, 0, 1), new Date(d + 1, 0, 1)); })\n.enter().append("path")\n.attr("class", "month")\n.attr("d", monthPath);\nvar csv = JSON.parse(\'[{"date": "2017-07-04", "pct": 1.0}, {"date": "2017-07-06", "pct": 0.0}, {"date": "2017-07-10", "pct": 1.0}, {"date": "2017-07-11", "pct": 0.9411764705882353}, {"date": "2017-07-12", "pct": 0.6666666666666666}, {"date": "2017-07-13", "pct": 0.8333333333333334}, {"date": "2017-07-18", "pct": 0.5}, {"date": "2017-07-19", "pct": 0.0}, {"date": "2017-07-24", "pct": 1.0}, {"date": "2017-07-25", "pct": 0.23076923076923078}, {"date": "2017-07-26", "pct": 0.0}, {"date": "2017-07-27", "pct": 0.375}, {"date": "2017-07-28", "pct": 0.6}, {"date": "2017-08-01", "pct": 1.0}, {"date": "2017-08-03", "pct": 0.5454545454545454}, {"date": "2017-08-09", "pct": 1.0}]\');\nvar data = d3.nest()\n.key(function(d) { return d.date; })\n.rollup(function(d) { return d[0].pct; })\n.map(csv);\nrect.filter(function(d) { return data.has(d); })\n.attr("class", function(d) { return "day " + color(data.get(d)); })\n.select("title")\n.text(function(d) { return d + ": " + percent(data.get(d)); });\nfunction monthPath(t0) {\nvar t1 = new Date(t0.getFullYear(), t0.getMonth() + 1, 0),\nd0 = ((t0.getDay()+6)%7), w0 = d3.timeMonday.count(d3.timeYear(t0), t0)\nd1 = ((t1.getDay()+6)%7), w1 = d3.timeMonday.count(d3.timeYear(t1), t1);\nreturn "M" + (w0 + 1) * cellSize + "," + d0 * cellSize\n+ "H" + w0 * cellSize + "V" + 7 * cellSize\n+ "H" + w1 * cellSize + "V" + (d1 + 1) * cellSize\n+ "H" + (w1 + 1) * cellSize + "V" + 0\n+ "H" + (w0 + 1) * cellSize + "Z";\n}\n}\ndrawNuages();\ngenCalendar();\nvar resizeDebounce;\n$(window).resize(function() {\nclearTimeout(resizeDebounce);\nresizeDebounce = setTimeout(function() {\nwindow.requestAnimationFrame(function() {\ndrawNuages();\n$(\'#calendar svg\').remove();\ngenCalendar();\n});\n}, 100);\n});\n});\n</script>\n{{ end)\nresponse.write(\'\\n\', escape=False)\nresponse.write(\'\\n</body>\\n</html>\\n\', escape=False)'
p7
sS'snapshot'
p8
(dp9
S'exception'
p10
(dp11
S'__getslice__'
p12
S"<method-wrapper '__getslice__' of exceptions.SyntaxError object>"
p13
sS'text'
p14
S'\'response.write(URL(\\\'static\\\',\\\'js/wordcloud2.js\\\')"></script>\\n\''
p15
sS'__str__'
p16
S"<method-wrapper '__str__' of exceptions.SyntaxError object>"
p17
sS'__reduce__'
p18
S'<built-in method __reduce__ of exceptions.SyntaxError object>'
p19
sS'__dict__'
p20
S'{}'
p21
sS'__sizeof__'
p22
S'<built-in method __sizeof__ of exceptions.SyntaxError object>'
p23
sS'message'
p24
S"''"
p25
sS'__init__'
p26
S"<method-wrapper '__init__' of exceptions.SyntaxError object>"
p27
sS'__setattr__'
p28
S"<method-wrapper '__setattr__' of exceptions.SyntaxError object>"
p29
sS'__reduce_ex__'
p30
S'<built-in method __reduce_ex__ of exceptions.SyntaxError object>'
p31
sS'__new__'
p32
S'<built-in method __new__ of type object>'
p33
sS'__format__'
p34
S'<built-in method __format__ of exceptions.SyntaxError object>'
p35
sS'__class__'
p36
S"<type 'exceptions.SyntaxError'>"
p37
sS'filename'
p38
S"'<string>'"
p39
sS'lineno'
p40
S'32'
p41
sS'msg'
p42
S"'EOL while scanning string literal'"
p43
sS'__doc__'
p44
S"'Invalid syntax.'"
p45
sS'__getitem__'
p46
S"<method-wrapper '__getitem__' of exceptions.SyntaxError object>"
p47
sS'__setstate__'
p48
S'<built-in method __setstate__ of exceptions.SyntaxError object>'
p49
sS'__getattribute__'
p50
S"<method-wrapper '__getattribute__' of exceptions.SyntaxError object>"
p51
sS'print_file_and_line'
p52
S'None'
p53
sS'args'
p54
S'(\'EOL while scanning string literal\', (\'<string>\', 32, 58, \'response.write(URL(\\\'static\\\',\\\'js/wordcloud2.js\\\')"></script>\\n\'))'
p55
sS'__subclasshook__'
p56
S'<built-in method __subclasshook__ of type object>'
p57
sS'offset'
p58
S'58'
p59
sS'__unicode__'
p60
S'<built-in method __unicode__ of exceptions.SyntaxError object>'
p61
sS'__delattr__'
p62
S"<method-wrapper '__delattr__' of exceptions.SyntaxError object>"
p63
sS'__repr__'
p64
S"<method-wrapper '__repr__' of exceptions.SyntaxError object>"
p65
sS'__hash__'
p66
S"<method-wrapper '__hash__' of exceptions.SyntaxError object>"
p67
ssS'evalue'
p68
S'EOL while scanning string literal (<string>, line 32)'
p69
sS'request'
p70
cgluon.html
XML_unpickle
p71
(S's\\v\x00\x00<div><table><tr><td style="font-weight:bold;vertical-align:top;">ajax</td><td style="vertical-align:top;">:</td><td><div>False</div></td></tr><tr><td style="font-weight:bold;vertical-align:top;">application</td><td style="vertical-align:top;">:</td><td><div>observatoireassemblee</div></td></tr><tr><td style="font-weight:bold;vertical-align:top;">args</td><td style="vertical-align:top;">:</td><td><div><table><tr><td><div>gabrielserville</div></td></tr></table></div></td></tr><tr><td style="font-weight:bold;vertical-align:top;">cid</td><td style="vertical-align:top;">:</td><td><div>None</div></td></tr><tr><td style="font-weight:bold;vertical-align:top;">client</td><td style="vertical-align:top;">:</td><td><div>83.203.170.41</div></td></tr><tr><td style="font-weight:bold;vertical-align:top;">controller</td><td style="vertical-align:top;">:</td><td><div>depute</div></td></tr><tr><td style="font-weight:bold;vertical-align:top;">cookies</td><td style="vertical-align:top;">:</td><td><div><table><tr><td style="font-weight:bold;vertical-align:top;">session_id_admin</td><td style="vertical-align:top;">:</td><td><div>83.203.170.106-62f39627-f7d7-4927-a80b-f6a1100be47c<table><tr><td style="font-weight:bold;vertical-align:top;">comment</td><td style="vertical-align:top;">:</td><td><div></div></td></tr><tr><td style="font-weight:bold;vertical-align:top;">domain</td><td style="vertical-align:top;">:</td><td><div></div></td></tr><tr><td style="font-weight:bold;vertical-align:top;">expires</td><td style="vertical-align:top;">:</td><td><div></div></td></tr><tr><td style="font-weight:bold;vertical-align:top;">httponly</td><td style="vertical-align:top;">:</td><td><div></div></td></tr><tr><td style="font-weight:bold;vertical-align:top;">max-age</td><td style="vertical-align:top;">:</td><td><div></div></td></tr><tr><td style="font-weight:bold;vertical-align:top;">path</td><td style="vertical-align:top;">:</td><td><div></div></td></tr><tr><td style="font-weight:bold;vertical-align:top;">secure</td><td style="vertical-align:top;">:</td><td><div></div></td></tr><tr><td style="font-weight:bold;vertical-align:top;">version</td><td style="vertical-align:top;">:</td><td><div></div></td></tr></table></div></td></tr><tr><td style="font-weight:bold;vertical-align:top;">session_id_obsas_dev</td><td style="vertical-align:top;">:</td><td><div>83.203.170.41-9a7a74d9-0dd9-4a79-adbc-7bf02b754b68<table><tr><td style="font-weight:bold;vertical-align:top;">comment</td><td style="vertical-align:top;">:</td><td><div></div></td></tr><tr><td style="font-weight:bold;vertical-align:top;">domain</td><td style="vertical-align:top;">:</td><td><div></div></td></tr><tr><td style="font-weight:bold;vertical-align:top;">expires</td><td style="vertical-align:top;">:</td><td><div></div></td></tr><tr><td style="font-weight:bold;vertical-align:top;">httponly</td><td style="vertical-align:top;">:</td><td><div></div></td></tr><tr><td style="font-weight:bold;vertical-align:top;">max-age</td><td style="vertical-align:top;">:</td><td><div></div></td></tr><tr><td style="font-weight:bold;vertical-align:top;">path</td><td style="vertical-align:top;">:</td><td><div></div></td></tr><tr><td style="font-weight:bold;vertical-align:top;">secure</td><td style="vertical-align:top;">:</td><td><div></div></td></tr><tr><td style="font-weight:bold;vertical-align:top;">version</td><td style="vertical-align:top;">:</td><td><div></div></td></tr></table></div></td></tr><tr><td style="font-weight:bold;vertical-align:top;">session_id_observatoireassemblee</td><td style="vertical-align:top;">:</td><td><div>83.203.170.41-7bdae1ba-3ce3-4a3a-95b4-65ea81fd4e7a<table><tr><td style="font-weight:bold;vertical-align:top;">comment</td><td style="vertical-align:top;">:</td><td><div></div></td></tr><tr><td style="font-weight:bold;vertical-align:top;">domain</td><td style="vertical-align:top;">:</td><td><div></div></td></tr><tr><td style="font-weight:bold;vertical-align:top;">expires</td><td style="vertical-align:top;">:</td><td><div></div></td></tr><tr><td style="font-weight:bold;vertical-align:top;">httponly</td><td style="vertical-align:top;">:</td><td><div></div></td></tr><tr><td style="font-weight:bold;vertical-align:top;">max-age</td><td style="vertical-align:top;">:</td><td><div></div></td></tr><tr><td style="font-weight:bold;vertical-align:top;">path</td><td style="vertical-align:top;">:</td><td><div></div></td></tr><tr><td style="font-weight:bold;vertical-align:top;">secure</td><td style="vertical-align:top;">:</td><td><div></div></td></tr><tr><td style="font-weight:bold;vertical-align:top;">version</td><td style="vertical-align:top;">:</td><td><div></div></td></tr></table></div></td></tr></table></div></td></tr><tr><td style="font-weight:bold;vertical-align:top;">env</td><td style="vertical-align:top;">:</td><td><div><table><tr><td style="font-weight:bold;vertical-align:top;">CONTEXT_DOCUMENT_ROOT</td><td style="vertical-align:top;">:</td><td><div>/var/www/html</div></td></tr><tr><td style="font-weight:bold;vertical-align:top;">CONTEXT_PREFIX</td><td style="vertical-align:top;">:</td><td><div></div></td></tr><tr><td style="font-weight:bold;vertical-align:top;">DOCUMENT_ROOT</td><td style="vertical-align:top;">:</td><td><div>/var/www/html</div></td></tr><tr><td style="font-weight:bold;vertical-align:top;">GATEWAY_INTERFACE</td><td style="vertical-align:top;">:</td><td><div>CGI/1.1</div></td></tr><tr><td style="font-weight:bold;vertical-align:top;">HTTP_ACCEPT</td><td style="vertical-align:top;">:</td><td><div>text/html,application/xhtml+xml,application/xml;q=0.9,image/webp,image/apng,*/*;q=0.8</div></td></tr><tr><td style="font-weight:bold;vertical-align:top;">HTTP_ACCEPT_ENCODING</td><td style="vertical-align:top;">:</td><td><div>gzip, deflate, br</div></td></tr><tr><td style="font-weight:bold;vertical-align:top;">HTTP_ACCEPT_LANGUAGE</td><td style="vertical-align:top;">:</td><td><div>fr-FR,fr;q=0.8,en-US;q=0.6,en;q=0.4</div></td></tr><tr><td style="font-weight:bold;vertical-align:top;">HTTP_CACHE_CONTROL</td><td style="vertical-align:top;">:</td><td><div>max-age=0</div></td></tr><tr><td style="font-weight:bold;vertical-align:top;">HTTP_CONNECTION</td><td style="vertical-align:top;">:</td><td><div>keep-alive</div></td></tr><tr><td style="font-weight:bold;vertical-align:top;">HTTP_COOKIE</td><td style="vertical-align:top;">:</td><td><div>session_id_obsas_dev=83.203.170.41-9a7a74d9-0dd9-4a79-adbc-7bf02b754b68; session_id_observatoireassemblee=83.203.170.41-7bdae1ba-3ce3-4a3a-95b4-65ea81fd4e7a; session_id_admin=83.203.170.106-62f39627-f7d7-4927-a80b-f6a1100be47c</div></td></tr><tr><td style="font-weight:bold;vertical-align:top;">HTTP_HOST</td><td style="vertical-align:top;">:</td><td><div>admin.obsas.orvdev.fr</div></td></tr><tr><td style="font-weight:bold;vertical-align:top;">HTTP_UPGRADE_INSECURE_REQUESTS</td><td style="vertical-align:top;">:</td><td><div>1</div></td></tr><tr><td style="font-weight:bold;vertical-align:top;">HTTP_USER_AGENT</td><td style="vertical-align:top;">:</td><td><div>Mozilla/5.0 (X11; Linux x86_64) AppleWebKit/537.36 (KHTML, like Gecko) Chrome/60.0.3112.101 Safari/537.36</div></td></tr><tr><td style="font-weight:bold;vertical-align:top;">PATH_INFO</td><td style="vertical-align:top;">:</td><td><div>/observatoireassemblee/depute/index/gabrielserville</div></td></tr><tr><td style="font-weight:bold;vertical-align:top;">PATH_TRANSLATED</td><td style="vertical-align:top;">:</td><td><div>/home/www-data/web2py/wsgihandler.py/observatoireassemblee/depute/index/gabrielserville</div></td></tr><tr><td style="font-weight:bold;vertical-align:top;">QUERY_STRING</td><td style="vertical-align:top;">:</td><td><div></div></td></tr><tr><td style="font-weight:bold;vertical-align:top;">REMOTE_ADDR</td><td style="vertical-align:top;">:</td><td><div>83.203.170.41</div></td></tr><tr><td style="font-weight:bold;vertical-align:top;">REMOTE_PORT</td><td style="vertical-align:top;">:</td><td><div>49814</div></td></tr><tr><td style="font-weight:bold;vertical-align:top;">REQUEST_METHOD</td><td style="vertical-align:top;">:</td><td><div>GET</div></td></tr><tr><td style="font-weight:bold;vertical-align:top;">REQUEST_SCHEME</td><td style="vertical-align:top;">:</td><td><div>https</div></td></tr><tr><td style="font-weight:bold;vertical-align:top;">REQUEST_URI</td><td style="vertical-align:top;">:</td><td><div>/observatoireassemblee/depute/index/gabrielserville</div></td></tr><tr><td style="font-weight:bold;vertical-align:top;">SCRIPT_FILENAME</td><td style="vertical-align:top;">:</td><td><div>/home/www-data/web2py/wsgihandler.py</div></td></tr><tr><td style="font-weight:bold;vertical-align:top;">SCRIPT_NAME</td><td style="vertical-align:top;">:</td><td><div></div></td></tr><tr><td style="font-weight:bold;vertical-align:top;">SERVER_ADDR</td><td style="vertical-align:top;">:</td><td><div>151.80.57.169</div></td></tr><tr><td style="font-weight:bold;vertical-align:top;">SERVER_ADMIN</td><td style="vertical-align:top;">:</td><td><div>[no address given]</div></td></tr><tr><td style="font-weight:bold;vertical-align:top;">SERVER_NAME</td><td style="vertical-align:top;">:</td><td><div>admin.obsas.orvdev.fr</div></td></tr><tr><td style="font-weight:bold;vertical-align:top;">SERVER_PORT</td><td style="vertical-align:top;">:</td><td><div>443</div></td></tr><tr><td style="font-weight:bold;vertical-align:top;">SERVER_PROTOCOL</td><td style="vertical-align:top;">:</td><td><div>HTTP/1.1</div></td></tr><tr><td style="font-weight:bold;vertical-align:top;">SERVER_SIGNATURE</td><td style="vertical-align:top;">:</td><td><div>&lt;address&gt;Apache/2.4.18 (Ubuntu) Server at admin.obsas.orvdev.fr Port 443&lt;/address&gt;\n</div></td></tr><tr><td style="font-weight:bold;vertical-align:top;">SERVER_SOFTWARE</td><td style="vertical-align:top;">:</td><td><div>Apache/2.4.18 (Ubuntu)</div></td></tr><tr><td style="font-weight:bold;vertical-align:top;">SSL_TLS_SNI</td><td style="vertical-align:top;">:</td><td><div>admin.obsas.orvdev.fr</div></td></tr><tr><td style="font-weight:bold;vertical-align:top;">apache.version</td><td style="vertical-align:top;">:</td><td><div><table><tr><td><div>2</div></td></tr><tr><td><div>4</div></td></tr><tr><td><div>18</div></td></tr></table></div></td></tr><tr><td style="font-weight:bold;vertical-align:top;">apache_version</td><td style="vertical-align:top;">:</td><td><div><table><tr><td><div>2</div></td></tr><tr><td><div>4</div></td></tr><tr><td><div>18</div></td></tr></table></div></td></tr><tr><td style="font-weight:bold;vertical-align:top;">app_folders</td><td style="vertical-align:top;">:</td><td><div>set([&#x27;/home/www-data/web2py/applications/observatoireassemblee/&#x27;, &#x27;/home/www-data/web2py/applications/obsas_dev/&#x27;, &#x27;/home/www-data/web2py/applications/admin/&#x27;])</div></td></tr><tr><td style="font-weight:bold;vertical-align:top;">applications_parent</td><td style="vertical-align:top;">:</td><td><div>/home/www-data/web2py</div></td></tr><tr><td style="font-weight:bold;vertical-align:top;">context_document_root</td><td style="vertical-align:top;">:</td><td><div>/var/www/html</div></td></tr><tr><td style="font-weight:bold;vertical-align:top;">context_prefix</td><td style="vertical-align:top;">:</td><td><div></div></td></tr><tr><td style="font-weight:bold;vertical-align:top;">db_sessions</td><td style="vertical-align:top;">:</td><td><div>set([])</div></td></tr><tr><td style="font-weight:bold;vertical-align:top;">debugging</td><td style="vertical-align:top;">:</td><td><div>True</div></td></tr><tr><td style="font-weight:bold;vertical-align:top;">document_root</td><td style="vertical-align:top;">:</td><td><div>/var/www/html</div></td></tr><tr><td style="font-weight:bold;vertical-align:top;">gateway_interface</td><td style="vertical-align:top;">:</td><td><div>CGI/1.1</div></td></tr><tr><td style="font-weight:bold;vertical-align:top;">gluon_parent</td><td style="vertical-align:top;">:</td><td><div>/home/www-data/web2py</div></td></tr><tr><td style="font-weight:bold;vertical-align:top;">http_accept</td><td style="vertical-align:top;">:</td><td><div>text/html,application/xhtml+xml,application/xml;q=0.9,image/webp,image/apng,*/*;q=0.8</div></td></tr><tr><td style="font-weight:bold;vertical-align:top;">http_accept_encoding</td><td style="vertical-align:top;">:</td><td><div>gzip, deflate, br</div></td></tr><tr><td style="font-weight:bold;vertical-align:top;">http_accept_language</td><td style="vertical-align:top;">:</td><td><div>fr-FR,fr;q=0.8,en-US;q=0.6,en;q=0.4</div></td></tr><tr><td style="font-weight:bold;vertical-align:top;">http_cache_control</td><td style="vertical-align:top;">:</td><td><div>max-age=0</div></td></tr><tr><td style="font-weight:bold;vertical-align:top;">http_connection</td><td style="vertical-align:top;">:</td><td><div>keep-alive</div></td></tr><tr><td style="font-weight:bold;vertical-align:top;">http_cookie</td><td style="vertical-align:top;">:</td><td><div>session_id_obsas_dev=83.203.170.41-9a7a74d9-0dd9-4a79-adbc-7bf02b754b68; session_id_observatoireassemblee=83.203.170.41-7bdae1ba-3ce3-4a3a-95b4-65ea81fd4e7a; session_id_admin=83.203.170.106-62f39627-f7d7-4927-a80b-f6a1100be47c</div></td></tr><tr><td style="font-weight:bold;vertical-align:top;">http_host</td><td style="vertical-align:top;">:</td><td><div>admin.obsas.orvdev.fr</div></td></tr><tr><td style="font-weight:bold;vertical-align:top;">http_upgrade_insecure_requests</td><td style="vertical-align:top;">:</td><td><div>1</div></td></tr><tr><td style="font-weight:bold;vertical-align:top;">http_user_agent</td><td style="vertical-align:top;">:</td><td><div>Mozilla/5.0 (X11; Linux x86_64) AppleWebKit/537.36 (KHTML, like Gecko) Chrome/60.0.3112.101 Safari/537.36</div></td></tr><tr><td style="font-weight:bold;vertical-align:top;">is_jython</td><td style="vertical-align:top;">:</td><td><div>False</div></td></tr><tr><td style="font-weight:bold;vertical-align:top;">is_py2</td><td style="vertical-align:top;">:</td><td><div>True</div></td></tr><tr><td style="font-weight:bold;vertical-align:top;">is_pypy</td><td style="vertical-align:top;">:</td><td><div>False</div></td></tr><tr><td style="font-weight:bold;vertical-align:top;">is_source</td><td style="vertical-align:top;">:</td><td><div>True</div></td></tr><tr><td style="font-weight:bold;vertical-align:top;">local_hosts</td><td style="vertical-align:top;">:</td><td><div><table><tr><td><div>vps433020</div></td></tr><tr><td><div>::ffff:127.0.0.1</div></td></tr><tr><td><div>::1</div></td></tr><tr><td><div>151.80.57.169</div></td></tr><tr><td><div>vps433020.ovh.net</div></td></tr><tr><td><div>127.0.1.1</div></td></tr><tr><td><div>admin.obsas.orvdev.fr</div></td></tr><tr><td><div>127.0.0.1</div></td></tr></table></div></td></tr><tr><td style="font-weight:bold;vertical-align:top;">mod_wsgi.application_group</td><td style="vertical-align:top;">:</td><td><div></div></td></tr><tr><td style="font-weight:bold;vertical-align:top;">mod_wsgi.callable_object</td><td style="vertical-align:top;">:</td><td><div>application</div></td></tr><tr><td style="font-weight:bold;vertical-align:top;">mod_wsgi.daemon_connects</td><td style="vertical-align:top;">:</td><td><div>1</div></td></tr><tr><td style="font-weight:bold;vertical-align:top;">mod_wsgi.daemon_restarts</td><td style="vertical-align:top;">:</td><td><div>0</div></td></tr><tr><td style="font-weight:bold;vertical-align:top;">mod_wsgi.daemon_start</td><td style="vertical-align:top;">:</td><td><div>1505648956347972</div></td></tr><tr><td style="font-weight:bold;vertical-align:top;">mod_wsgi.enable_sendfile</td><td style="vertical-align:top;">:</td><td><div>0</div></td></tr><tr><td style="font-weight:bold;vertical-align:top;">mod_wsgi.handler_script</td><td style="vertical-align:top;">:</td><td><div></div></td></tr><tr><td style="font-weight:bold;vertical-align:top;">mod_wsgi.input_chunked</td><td style="vertical-align:top;">:</td><td><div>0</div></td></tr><tr><td style="font-weight:bold;vertical-align:top;">mod_wsgi.listener_host</td><td style="vertical-align:top;">:</td><td><div></div></td></tr><tr><td style="font-weight:bold;vertical-align:top;">mod_wsgi.listener_port</td><td style="vertical-align:top;">:</td><td><div>443</div></td></tr><tr><td style="font-weight:bold;vertical-align:top;">mod_wsgi.process_group</td><td style="vertical-align:top;">:</td><td><div>obsasadm</div></td></tr><tr><td style="font-weight:bold;vertical-align:top;">mod_wsgi.queue_start</td><td style="vertical-align:top;">:</td><td><div>1505648956347811</div></td></tr><tr><td style="font-weight:bold;vertical-align:top;">mod_wsgi.request_handler</td><td style="vertical-align:top;">:</td><td><div>wsgi-script</div></td></tr><tr><td style="font-weight:bold;vertical-align:top;">mod_wsgi.request_start</td><td style="vertical-align:top;">:</td><td><div>1505648956347446</div></td></tr><tr><td style="font-weight:bold;vertical-align:top;">mod_wsgi.script_reloading</td><td style="vertical-align:top;">:</td><td><div>1</div></td></tr><tr><td style="font-weight:bold;vertical-align:top;">mod_wsgi.script_start</td><td style="vertical-align:top;">:</td><td><div>1505648956347999</div></td></tr><tr><td style="font-weight:bold;vertical-align:top;">mod_wsgi.version</td><td style="vertical-align:top;">:</td><td><div><table><tr><td><div>4</div></td></tr><tr><td><div>3</div></td></tr><tr><td><div>0</div></td></tr></table></div></td></tr><tr><td style="font-weight:bold;vertical-align:top;">mod_wsgi_application_group</td><td style="vertical-align:top;">:</td><td><div></div></td></tr><tr><td style="font-weight:bold;vertical-align:top;">mod_wsgi_callable_object</td><td style="vertical-align:top;">:</td><td><div>application</div></td></tr><tr><td style="font-weight:bold;vertical-align:top;">mod_wsgi_daemon_connects</td><td style="vertical-align:top;">:</td><td><div>1</div></td></tr><tr><td style="font-weight:bold;vertical-align:top;">mod_wsgi_daemon_restarts</td><td style="vertical-align:top;">:</td><td><div>0</div></td></tr><tr><td style="font-weight:bold;vertical-align:top;">mod_wsgi_daemon_start</td><td style="vertical-align:top;">:</td><td><div>1505648956347972</div></td></tr><tr><td style="font-weight:bold;vertical-align:top;">mod_wsgi_enable_sendfile</td><td style="vertical-align:top;">:</td><td><div>0</div></td></tr><tr><td style="font-weight:bold;vertical-align:top;">mod_wsgi_handler_script</td><td style="vertical-align:top;">:</td><td><div></div></td></tr><tr><td style="font-weight:bold;vertical-align:top;">mod_wsgi_input_chunked</td><td style="vertical-align:top;">:</td><td><div>0</div></td></tr><tr><td style="font-weight:bold;vertical-align:top;">mod_wsgi_listener_host</td><td style="vertical-align:top;">:</td><td><div></div></td></tr><tr><td style="font-weight:bold;vertical-align:top;">mod_wsgi_listener_port</td><td style="vertical-align:top;">:</td><td><div>443</div></td></tr><tr><td style="font-weight:bold;vertical-align:top;">mod_wsgi_process_group</td><td style="vertical-align:top;">:</td><td><div>obsasadm</div></td></tr><tr><td style="font-weight:bold;vertical-align:top;">mod_wsgi_queue_start</td><td style="vertical-align:top;">:</td><td><div>1505648956347811</div></td></tr><tr><td style="font-weight:bold;vertical-align:top;">mod_wsgi_request_handler</td><td style="vertical-align:top;">:</td><td><div>wsgi-script</div></td></tr><tr><td style="font-weight:bold;vertical-align:top;">mod_wsgi_request_start</td><td style="vertical-align:top;">:</td><td><div>1505648956347446</div></td></tr><tr><td style="font-weight:bold;vertical-align:top;">mod_wsgi_script_reloading</td><td style="vertical-align:top;">:</td><td><div>1</div></td></tr><tr><td style="font-weight:bold;vertical-align:top;">mod_wsgi_script_start</td><td style="vertical-align:top;">:</td><td><div>1505648956347999</div></td></tr><tr><td style="font-weight:bold;vertical-align:top;">mod_wsgi_version</td><td style="vertical-align:top;">:</td><td><div><table><tr><td><div>4</div></td></tr><tr><td><div>3</div></td></tr><tr><td><div>0</div></td></tr></table></div></td></tr><tr><td style="font-weight:bold;vertical-align:top;">nokeepalive</td><td style="vertical-align:top;">:</td><td><div>ssl-unclean-shutdown</div></td></tr><tr><td style="font-weight:bold;vertical-align:top;">path_info</td><td style="vertical-align:top;">:</td><td><div>/observatoireassemblee/depute/index/gabrielserville</div></td></tr><tr><td style="font-weight:bold;vertical-align:top;">path_translated</td><td style="vertical-align:top;">:</td><td><div>/home/www-data/web2py/wsgihandler.py/observatoireassemblee/depute/index/gabrielserville</div></td></tr><tr><td style="font-weight:bold;vertical-align:top;">query_string</td><td style="vertical-align:top;">:</td><td><div></div></td></tr><tr><td style="font-weight:bold;vertical-align:top;">remote_addr</td><td style="vertical-align:top;">:</td><td><div>83.203.170.41</div></td></tr><tr><td style="font-weight:bold;vertical-align:top;">remote_port</td><td style="vertical-align:top;">:</td><td><div>49814</div></td></tr><tr><td style="font-weight:bold;vertical-align:top;">request_method</td><td style="vertical-align:top;">:</td><td><div>GET</div></td></tr><tr><td style="font-weight:bold;vertical-align:top;">request_scheme</td><td style="vertical-align:top;">:</td><td><div>https</div></td></tr><tr><td style="font-weight:bold;vertical-align:top;">request_uri</td><td style="vertical-align:top;">:</td><td><div>/observatoireassemblee/depute/index/gabrielserville</div></td></tr><tr><td style="font-weight:bold;vertical-align:top;">script_filename</td><td style="vertical-align:top;">:</td><td><div>/home/www-data/web2py/wsgihandler.py</div></td></tr><tr><td style="font-weight:bold;vertical-align:top;">script_name</td><td style="vertical-align:top;">:</td><td><div></div></td></tr><tr><td style="font-weight:bold;vertical-align:top;">server_addr</td><td style="vertical-align:top;">:</td><td><div>151.80.57.169</div></td></tr><tr><td style="font-weight:bold;vertical-align:top;">server_admin</td><td style="vertical-align:top;">:</td><td><div>[no address given]</div></td></tr><tr><td style="font-weight:bold;vertical-align:top;">server_name</td><td style="vertical-align:top;">:</td><td><div>admin.obsas.orvdev.fr</div></td></tr><tr><td style="font-weight:bold;vertical-align:top;">server_port</td><td style="vertical-align:top;">:</td><td><div>443</div></td></tr><tr><td style="font-weight:bold;vertical-align:top;">server_protocol</td><td style="vertical-align:top;">:</td><td><div>HTTP/1.1</div></td></tr><tr><td style="font-weight:bold;vertical-align:top;">server_signature</td><td style="vertical-align:top;">:</td><td><div>&lt;address&gt;Apache/2.4.18 (Ubuntu) Server at admin.obsas.orvdev.fr Port 443&lt;/address&gt;\n</div></td></tr><tr><td style="font-weight:bold;vertical-align:top;">server_software</td><td style="vertical-align:top;">:</td><td><div>Apache/2.4.18 (Ubuntu)</div></td></tr><tr><td style="font-weight:bold;vertical-align:top;">ssl_tls_sni</td><td style="vertical-align:top;">:</td><td><div>admin.obsas.orvdev.fr</div></td></tr><tr><td style="font-weight:bold;vertical-align:top;">web2py_original_uri</td><td style="vertical-align:top;">:</td><td><div>/observatoireassemblee/depute/index/gabrielserville</div></td></tr><tr><td style="font-weight:bold;vertical-align:top;">web2py_path</td><td style="vertical-align:top;">:</td><td><div>/home/www-data/web2py</div></td></tr><tr><td style="font-weight:bold;vertical-align:top;">web2py_version</td><td style="vertical-align:top;">:</td><td><div>2.15.1-stable+timestamp.2017.07.10.21.25.06</div></td></tr><tr><td style="font-weight:bold;vertical-align:top;">wsgi.errors</td><td style="vertical-align:top;">:</td><td><div>&lt;mod_wsgi.Log object at 0x7f56f73e1c48&gt;</div></td></tr><tr><td style="font-weight:bold;vertical-align:top;">wsgi.file_wrapper</td><td style="vertical-align:top;">:</td><td><div>&lt;type &#x27;mod_wsgi.FileWrapper&#x27;&gt;</div></td></tr><tr><td style="font-weight:bold;vertical-align:top;">wsgi.input</td><td style="vertical-align:top;">:</td><td><div>&lt;mod_wsgi.Input object at 0x7f56f6286370&gt;</div></td></tr><tr><td style="font-weight:bold;vertical-align:top;">wsgi.multiprocess</td><td style="vertical-align:top;">:</td><td><div>False</div></td></tr><tr><td style="font-weight:bold;vertical-align:top;">wsgi.multithread</td><td style="vertical-align:top;">:</td><td><div>True</div></td></tr><tr><td style="font-weight:bold;vertical-align:top;">wsgi.run_once</td><td style="vertical-align:top;">:</td><td><div>False</div></td></tr><tr><td style="font-weight:bold;vertical-align:top;">wsgi.url_scheme</td><td style="vertical-align:top;">:</td><td><div>https</div></td></tr><tr><td style="font-weight:bold;vertical-align:top;">wsgi.version</td><td style="vertical-align:top;">:</td><td><div><table><tr><td><div>1</div></td></tr><tr><td><div>0</div></td></tr></table></div></td></tr><tr><td style="font-weight:bold;vertical-align:top;">wsgi_errors</td><td style="vertical-align:top;">:</td><td><div>&lt;mod_wsgi.Log object at 0x7f56f73e1c48&gt;</div></td></tr><tr><td style="font-weight:bold;vertical-align:top;">wsgi_file_wrapper</td><td style="vertical-align:top;">:</td><td><div>&lt;type &#x27;mod_wsgi.FileWrapper&#x27;&gt;</div></td></tr><tr><td style="font-weight:bold;vertical-align:top;">wsgi_input</td><td style="vertical-align:top;">:</td><td><div>&lt;mod_wsgi.Input object at 0x7f56f6286370&gt;</div></td></tr><tr><td style="font-weight:bold;vertical-align:top;">wsgi_multiprocess</td><td style="vertical-align:top;">:</td><td><div>False</div></td></tr><tr><td style="font-weight:bold;vertical-align:top;">wsgi_multithread</td><td style="vertical-align:top;">:</td><td><div>True</div></td></tr><tr><td style="font-weight:bold;vertical-align:top;">wsgi_run_once</td><td style="vertical-align:top;">:</td><td><div>False</div></td></tr><tr><td style="font-weight:bold;vertical-align:top;">wsgi_url_scheme</td><td style="vertical-align:top;">:</td><td><div>https</div></td></tr><tr><td style="font-weight:bold;vertical-align:top;">wsgi_version</td><td style="vertical-align:top;">:</td><td><div><table><tr><td><div>1</div></td></tr><tr><td><div>0</div></td></tr></table></div></td></tr></table></div></td></tr><tr><td style="font-weight:bold;vertical-align:top;">extension</td><td style="vertical-align:top;">:</td><td><div>html</div></td></tr><tr><td style="font-weight:bold;vertical-align:top;">folder</td><td style="vertical-align:top;">:</td><td><div>/home/www-data/web2py/applications/observatoireassemblee/</div></td></tr><tr><td style="font-weight:bold;vertical-align:top;">function</td><td style="vertical-align:top;">:</td><td><div>index</div></td></tr><tr><td style="font-weight:bold;vertical-align:top;">global_settings</td><td style="vertical-align:top;">:</td><td><div><table><tr><td style="font-weight:bold;vertical-align:top;">app_folders</td><td style="vertical-align:top;">:</td><td><div>set([&#x27;/home/www-data/web2py/applications/observatoireassemblee/&#x27;, &#x27;/home/www-data/web2py/applications/obsas_dev/&#x27;, &#x27;/home/www-data/web2py/applications/admin/&#x27;])</div></td></tr><tr><td style="font-weight:bold;vertical-align:top;">applications_parent</td><td style="vertical-align:top;">:</td><td><div>/home/www-data/web2py</div></td></tr><tr><td style="font-weight:bold;vertical-align:top;">db_sessions</td><td style="vertical-align:top;">:</td><td><div>set([])</div></td></tr><tr><td style="font-weight:bold;vertical-align:top;">debugging</td><td style="vertical-align:top;">:</td><td><div>True</div></td></tr><tr><td style="font-weight:bold;vertical-align:top;">gluon_parent</td><td style="vertical-align:top;">:</td><td><div>/home/www-data/web2py</div></td></tr><tr><td style="font-weight:bold;vertical-align:top;">is_jython</td><td style="vertical-align:top;">:</td><td><div>False</div></td></tr><tr><td style="font-weight:bold;vertical-align:top;">is_py2</td><td style="vertical-align:top;">:</td><td><div>True</div></td></tr><tr><td style="font-weight:bold;vertical-align:top;">is_pypy</td><td style="vertical-align:top;">:</td><td><div>False</div></td></tr><tr><td style="font-weight:bold;vertical-align:top;">is_source</td><td style="vertical-align:top;">:</td><td><div>True</div></td></tr><tr><td style="font-weight:bold;vertical-align:top;">local_hosts</td><td style="vertical-align:top;">:</td><td><div><table><tr><td><div>vps433020</div></td></tr><tr><td><div>::ffff:127.0.0.1</div></td></tr><tr><td><div>::1</div></td></tr><tr><td><div>151.80.57.169</div></td></tr><tr><td><div>vps433020.ovh.net</div></td></tr><tr><td><div>127.0.1.1</div></td></tr><tr><td><div>admin.obsas.orvdev.fr</div></td></tr><tr><td><div>127.0.0.1</div></td></tr></table></div></td></tr><tr><td style="font-weight:bold;vertical-align:top;">web2py_version</td><td style="vertical-align:top;">:</td><td><div>2.15.1-stable+timestamp.2017.07.10.21.25.06</div></td></tr></table></div></td></tr><tr><td style="font-weight:bold;vertical-align:top;">is_https</td><td style="vertical-align:top;">:</td><td><div>True</div></td></tr><tr><td style="font-weight:bold;vertical-align:top;">is_local</td><td style="vertical-align:top;">:</td><td><div>False</div></td></tr><tr><td style="font-weight:bold;vertical-align:top;">is_restful</td><td style="vertical-align:top;">:</td><td><div>False</div></td></tr><tr><td style="font-weight:bold;vertical-align:top;">is_scheduler</td><td style="vertical-align:top;">:</td><td><div>False</div></td></tr><tr><td style="font-weight:bold;vertical-align:top;">is_shell</td><td style="vertical-align:top;">:</td><td><div>False</div></td></tr><tr><td style="font-weight:bold;vertical-align:top;">now</td><td style="vertical-align:top;">:</td><td><div>datetime.datetime(2017, 9, 17, 13, 49, 16, 348272)</div></td></tr><tr><td style="font-weight:bold;vertical-align:top;">url</td><td style="vertical-align:top;">:</td><td><div>/observatoireassemblee/depute/index/gabrielserville</div></td></tr><tr><td style="font-weight:bold;vertical-align:top;">utcnow</td><td style="vertical-align:top;">:</td><td><div>datetime.datetime(2017, 9, 17, 11, 49, 16, 348379)</div></td></tr><tr><td style="font-weight:bold;vertical-align:top;">wsgi</td><td style="vertical-align:top;">:</td><td><div>&lt;gluon.main.LazyWSGI object at 0x7f56f666b410&gt;</div></td></tr></table></div>'
tRp72
sS'frames'
p73
(lp74
(dp75
S'file'
p76
S'/home/www-data/web2py/gluon/restricted.py'
p77
sS'dump'
p78
(dp79
S'environment'
p80
S"{'A': <class 'gluon.html.A'>, 'ANY_OF': <class 'gluon.validators.ANY_OF'>, 'ASSIGNJS': <function ASSIGNJS>, 'AppCache': <class __restricted__.AppCache>, 'AppConfig': <function AppConfig>, 'Auth': <class 'gluon.tools.Auth'>, 'B': <class 'gluon.html.B'>, 'BEAUTIFY': <class 'gluon.html.BEAUTIFY'>, 'BODY': <class 'gluon.html.BODY'>, 'BR': <class 'gluon.html.BR'>, ...}"
p81
sS'ccode'
p82
S'\'response.write(\\\'<!DOCTYPE html>\\\\n<html lang="fr"...ponse.write(\\\'\\\\n</body>\\\\n</html>\\\\n\\\', escape=False)\''
p83
ssS'lnum'
p84
I219
sS'lines'
p85
(dp86
I214
S'    if environment is None:'
p87
sI215
S'        environment = {}'
p88
sI216
S"    environment['__file__'] = layer"
p89
sI217
S"    environment['__name__'] = '__restricted__'"
p90
sI218
S'    try:'
p91
sI219
S'        exec(ccode, environment)'
p92
sI220
S'    except HTTP:'
p93
sI221
S'        raise'
p94
sI222
S'    except RestrictedError:'
p95
sI223
S'        # do not encapsulate (obfuscate) the original RestrictedError'
p96
ssS'call'
p97
S'(ccode=\'response.write(\\\'<!DOCTYPE html>\\\\n<html lang="fr"...ponse.write(\\\'\\\\n</body>\\\\n</html>\\\\n\\\', escape=False)\', environment={\'A\': <class \'gluon.html.A\'>, \'ANY_OF\': <class \'gluon.validators.ANY_OF\'>, \'ASSIGNJS\': <function ASSIGNJS>, \'AppCache\': <class __restricted__.AppCache>, \'AppConfig\': <function AppConfig>, \'Auth\': <class \'gluon.tools.Auth\'>, \'B\': <class \'gluon.html.B\'>, \'BEAUTIFY\': <class \'gluon.html.BEAUTIFY\'>, \'BODY\': <class \'gluon.html.BODY\'>, \'BR\': <class \'gluon.html.BR\'>, ...}, layer=\'/home/www-data/web2py/applications/observatoireassemblee/views/depute/index.html\')'
p98
sS'func'
p99
S'restricted'
p100
sasS'pyver'
p101
S'Python 2.7.12: /home/www-data/web2py/applications/obsas_dev/.pyenv/bin/python (prefix: /home/www-data/web2py/applications/obsas_dev/.pyenv)'
p102
sS'session'
p103
g71
(S's\x1a\x00\x00\x00<div><table></table></div>'
tRp104
sS'etype'
p105
S"<type 'exceptions.SyntaxError'>"
p106
sS'date'
p107
S'Sun Sep 17 13:49:16 2017'
p108
sS'response'
p109
g71
(S's6?\x00\x00<div><table><tr><td style="font-weight:bold;vertical-align:top;">body</td><td style="vertical-align:top;">:</td><td><div>&lt;cStringIO.StringO object at 0x7f56f7731618&gt;</div></td></tr><tr><td style="font-weight:bold;vertical-align:top;">cookies</td><td style="vertical-align:top;">:</td><td><div><table><tr><td style="font-weight:bold;vertical-align:top;">session_id_observatoireassemblee</td><td style="vertical-align:top;">:</td><td><div>83.203.170.41-ff6f6f57-f502-4b60-b4e2-b5e74a25ff6c<table><tr><td style="font-weight:bold;vertical-align:top;">comment</td><td style="vertical-align:top;">:</td><td><div></div></td></tr><tr><td style="font-weight:bold;vertical-align:top;">domain</td><td style="vertical-align:top;">:</td><td><div></div></td></tr><tr><td style="font-weight:bold;vertical-align:top;">expires</td><td style="vertical-align:top;">:</td><td><div></div></td></tr><tr><td style="font-weight:bold;vertical-align:top;">httponly</td><td style="vertical-align:top;">:</td><td><div></div></td></tr><tr><td style="font-weight:bold;vertical-align:top;">max-age</td><td style="vertical-align:top;">:</td><td><div></div></td></tr><tr><td style="font-weight:bold;vertical-align:top;">path</td><td style="vertical-align:top;">:</td><td><div>/</div></td></tr><tr><td style="font-weight:bold;vertical-align:top;">secure</td><td style="vertical-align:top;">:</td><td><div></div></td></tr><tr><td style="font-weight:bold;vertical-align:top;">version</td><td style="vertical-align:top;">:</td><td><div></div></td></tr></table></div></td></tr></table></div></td></tr><tr><td style="font-weight:bold;vertical-align:top;">delimiters</td><td style="vertical-align:top;">:</td><td><div><table><tr><td><div>{{</div></td></tr><tr><td><div>}}</div></td></tr></table></div></td></tr><tr><td style="font-weight:bold;vertical-align:top;">files</td><td style="vertical-align:top;">:</td><td><div><table></table></div></td></tr><tr><td style="font-weight:bold;vertical-align:top;">flash</td><td style="vertical-align:top;">:</td><td><div></div></td></tr><tr><td style="font-weight:bold;vertical-align:top;">form_label_separator</td><td style="vertical-align:top;">:</td><td><div></div></td></tr><tr><td style="font-weight:bold;vertical-align:top;">formstyle</td><td style="vertical-align:top;">:</td><td><div>bootstrap3_inline</div></td></tr><tr><td style="font-weight:bold;vertical-align:top;">generic_patterns</td><td style="vertical-align:top;">:</td><td><div><table><tr><td><div>*.json</div></td></tr></table></div></td></tr><tr><td style="font-weight:bold;vertical-align:top;">google_analytics_id</td><td style="vertical-align:top;">:</td><td><div>None</div></td></tr><tr><td style="font-weight:bold;vertical-align:top;">headers</td><td style="vertical-align:top;">:</td><td><div><table><tr><td style="font-weight:bold;vertical-align:top;">X-Powered-By</td><td style="vertical-align:top;">:</td><td><div>web2py</div></td></tr></table></div></td></tr><tr><td style="font-weight:bold;vertical-align:top;">logo</td><td style="vertical-align:top;">:</td><td><div><a class="navbar-brand" href="http://www.web2py.com/" id="web2py-logo"><b>web<span>2</span>py</b>&trade;&nbsp;</a></div></td></tr><tr><td style="font-weight:bold;vertical-align:top;">menu</td><td style="vertical-align:top;">:</td><td><div><table><tr><td><div><table><tr><td><div>Accueil</div></td></tr><tr><td><div>False</div></td></tr><tr><td><div>/observatoireassemblee</div></td></tr><tr><td><div><table></table></div></td></tr></table></div></td></tr><tr><td><div><table><tr><td><div>Mes sites</div></td></tr><tr><td><div>False</div></td></tr><tr><td><div>/admin/site</div></td></tr></table></div></td></tr><tr><td><div><table><tr><td><div>Cette Appli</div></td></tr><tr><td><div>False</div></td></tr><tr><td><div>#</div></td></tr><tr><td><div><table><tr><td><div><table><tr><td><div>Design</div></td></tr><tr><td><div>False</div></td></tr><tr><td><div>/admin/design/observatoireassemblee</div></td></tr></table></div></td></tr><tr><td><div><li class="divider"></li></div></td></tr><tr><td><div><table><tr><td><div>Contr\xc3\xb4leur</div></td></tr><tr><td><div>False</div></td></tr><tr><td><div>/admin/edit/observatoireassemblee/controllers/depute.py</div></td></tr></table></div></td></tr><tr><td><div><table><tr><td><div>Pr\xc3\xa9sentation</div></td></tr><tr><td><div>False</div></td></tr><tr><td><div>/admin/edit/observatoireassemblee/views/depute/index.html</div></td></tr></table></div></td></tr><tr><td><div><table><tr><td><div>Mod\xc3\xa8le BD</div></td></tr><tr><td><div>False</div></td></tr><tr><td><div>/admin/edit/observatoireassemblee/models/db.py</div></td></tr></table></div></td></tr><tr><td><div><table><tr><td><div>Menu mod\xc3\xa8le</div></td></tr><tr><td><div>False</div></td></tr><tr><td><div>/admin/edit/observatoireassemblee/models/menu.py</div></td></tr></table></div></td></tr><tr><td><div><table><tr><td><div>Config.ini</div></td></tr><tr><td><div>False</div></td></tr><tr><td><div>/admin/edit/observatoireassemblee/private/appconfig.ini</div></td></tr></table></div></td></tr><tr><td><div><table><tr><td><div>Mise en page</div></td></tr><tr><td><div>False</div></td></tr><tr><td><div>/admin/edit/observatoireassemblee/views/layout.html</div></td></tr></table></div></td></tr><tr><td><div><table><tr><td><div>Feuille de style</div></td></tr><tr><td><div>False</div></td></tr><tr><td><div>/admin/edit/observatoireassemblee/static/css/web2py-bootstrap3.css</div></td></tr></table></div></td></tr><tr><td><div><table><tr><td><div>base de donn\xc3\xa9es</div></td></tr><tr><td><div>False</div></td></tr><tr><td><div>/observatoireassemblee/appadmin</div></td></tr></table></div></td></tr><tr><td><div><table><tr><td><div>Erreurs</div></td></tr><tr><td><div>False</div></td></tr><tr><td><div>/admin/errors/observatoireassemblee</div></td></tr></table></div></td></tr><tr><td><div><table><tr><td><div>\xc3\x80 propos</div></td></tr><tr><td><div>False</div></td></tr><tr><td><div>/admin/about/observatoireassemblee</div></td></tr></table></div></td></tr></table></div></td></tr></table></div></td></tr><tr><td><div><table><tr><td><div>web2py.com</div></td></tr><tr><td><div>False</div></td></tr><tr><td><div>#</div></td></tr><tr><td><div><table><tr><td><div><table><tr><td><div>T\xc3\xa9l\xc3\xa9chargement</div></td></tr><tr><td><div>False</div></td></tr><tr><td><div>http://www.web2py.com/examples/default/download</div></td></tr></table></div></td></tr><tr><td><div><table><tr><td><div>Soutien</div></td></tr><tr><td><div>False</div></td></tr><tr><td><div>http://www.web2py.com/examples/default/support</div></td></tr></table></div></td></tr><tr><td><div><table><tr><td><div>D\xc3\xa9mo</div></td></tr><tr><td><div>False</div></td></tr><tr><td><div>http://web2py.com/demo_admin</div></td></tr></table></div></td></tr><tr><td><div><table><tr><td><div>Exemples Rapides</div></td></tr><tr><td><div>False</div></td></tr><tr><td><div>http://web2py.com/examples/default/examples</div></td></tr></table></div></td></tr><tr><td><div><table><tr><td><div>FAQ</div></td></tr><tr><td><div>False</div></td></tr><tr><td><div>http://web2py.com/AlterEgo</div></td></tr></table></div></td></tr><tr><td><div><table><tr><td><div>Vid\xc3\xa9os</div></td></tr><tr><td><div>False</div></td></tr><tr><td><div>http://www.web2py.com/examples/default/videos/</div></td></tr></table></div></td></tr><tr><td><div><table><tr><td><div>Applications gratuites</div></td></tr><tr><td><div>False</div></td></tr><tr><td><div>http://web2py.com/appliances</div></td></tr></table></div></td></tr><tr><td><div><table><tr><td><div>Plugiciels</div></td></tr><tr><td><div>False</div></td></tr><tr><td><div>http://web2py.com/plugins</div></td></tr></table></div></td></tr><tr><td><div><table><tr><td><div>Recettes</div></td></tr><tr><td><div>False</div></td></tr><tr><td><div>http://web2pyslices.com/</div></td></tr></table></div></td></tr></table></div></td></tr></table></div></td></tr><tr><td><div><table><tr><td><div>Documentation</div></td></tr><tr><td><div>False</div></td></tr><tr><td><div>#</div></td></tr><tr><td><div><table><tr><td><div><table><tr><td><div>Online book</div></td></tr><tr><td><div>False</div></td></tr><tr><td><div>http://www.web2py.com/book</div></td></tr></table></div></td></tr><tr><td><div><li class="divider"></li></div></td></tr><tr><td><div><table><tr><td><div>Pr\xc3\xa9face</div></td></tr><tr><td><div>False</div></td></tr><tr><td><div>http://www.web2py.com/book/default/chapter/00</div></td></tr></table></div></td></tr><tr><td><div><table><tr><td><div>Pr\xc3\xa9sentation</div></td></tr><tr><td><div>False</div></td></tr><tr><td><div>http://www.web2py.com/book/default/chapter/01</div></td></tr></table></div></td></tr><tr><td><div><table><tr><td><div>Python</div></td></tr><tr><td><div>False</div></td></tr><tr><td><div>http://www.web2py.com/book/default/chapter/02</div></td></tr></table></div></td></tr><tr><td><div><table><tr><td><div>Pr\xc3\xa9sentation</div></td></tr><tr><td><div>False</div></td></tr><tr><td><div>http://www.web2py.com/book/default/chapter/03</div></td></tr></table></div></td></tr><tr><td><div><table><tr><td><div>Le noyau</div></td></tr><tr><td><div>False</div></td></tr><tr><td><div>http://www.web2py.com/book/default/chapter/04</div></td></tr></table></div></td></tr><tr><td><div><table><tr><td><div>Les Vues</div></td></tr><tr><td><div>False</div></td></tr><tr><td><div>http://www.web2py.com/book/default/chapter/05</div></td></tr></table></div></td></tr><tr><td><div><table><tr><td><div>base de donn\xc3\xa9es</div></td></tr><tr><td><div>False</div></td></tr><tr><td><div>http://www.web2py.com/book/default/chapter/06</div></td></tr></table></div></td></tr><tr><td><div><table><tr><td><div>Formulaires et Validateurs</div></td></tr><tr><td><div>False</div></td></tr><tr><td><div>http://www.web2py.com/book/default/chapter/07</div></td></tr></table></div></td></tr><tr><td><div><table><tr><td><div>Courriel et texto</div></td></tr><tr><td><div>False</div></td></tr><tr><td><div>http://www.web2py.com/book/default/chapter/08</div></td></tr></table></div></td></tr><tr><td><div><table><tr><td><div>Contr\xc3\xb4le d\'acc\xc3\xa8s</div></td></tr><tr><td><div>False</div></td></tr><tr><td><div>http://www.web2py.com/book/default/chapter/09</div></td></tr></table></div></td></tr><tr><td><div><table><tr><td><div>Services</div></td></tr><tr><td><div>False</div></td></tr><tr><td><div>http://www.web2py.com/book/default/chapter/10</div></td></tr></table></div></td></tr><tr><td><div><table><tr><td><div>Recettes Ajax</div></td></tr><tr><td><div>False</div></td></tr><tr><td><div>http://www.web2py.com/book/default/chapter/11</div></td></tr></table></div></td></tr><tr><td><div><table><tr><td><div>Composants et Plugiciels</div></td></tr><tr><td><div>False</div></td></tr><tr><td><div>http://www.web2py.com/book/default/chapter/12</div></td></tr></table></div></td></tr><tr><td><div><table><tr><td><div>Recettes de d\xc3\xa9ploiement</div></td></tr><tr><td><div>False</div></td></tr><tr><td><div>http://www.web2py.com/book/default/chapter/13</div></td></tr></table></div></td></tr><tr><td><div><table><tr><td><div>Autres recettes</div></td></tr><tr><td><div>False</div></td></tr><tr><td><div>http://www.web2py.com/book/default/chapter/14</div></td></tr></table></div></td></tr><tr><td><div><table><tr><td><div>Aider web2py</div></td></tr><tr><td><div>False</div></td></tr><tr><td><div>http://www.web2py.com/book/default/chapter/15</div></td></tr></table></div></td></tr><tr><td><div><table><tr><td><div>Buy web2py\'s book</div></td></tr><tr><td><div>False</div></td></tr><tr><td><div>http://stores.lulu.com/web2py</div></td></tr></table></div></td></tr></table></div></td></tr></table></div></td></tr><tr><td><div><table><tr><td><div>Communaut\xc3\xa9</div></td></tr><tr><td><div>False</div></td></tr><tr><td><div>None</div></td></tr><tr><td><div><table><tr><td><div><table><tr><td><div>Groupes</div></td></tr><tr><td><div>False</div></td></tr><tr><td><div>http://www.web2py.com/examples/default/usergroups</div></td></tr></table></div></td></tr><tr><td><div><table><tr><td><div>Twitter</div></td></tr><tr><td><div>False</div></td></tr><tr><td><div>http://twitter.com/web2py</div></td></tr></table></div></td></tr><tr><td><div><table><tr><td><div>Clavardage en direct</div></td></tr><tr><td><div>False</div></td></tr><tr><td><div>http://webchat.freenode.net/?channels=web2py</div></td></tr></table></div></td></tr></table></div></td></tr></table></div></td></tr></table></div></td></tr><tr><td style="font-weight:bold;vertical-align:top;">meta</td><td style="vertical-align:top;">:</td><td><div><table><tr><td style="font-weight:bold;vertical-align:top;">author</td><td style="vertical-align:top;">:</td><td><div>Your Name &lt;you@example.com&gt;</div></td></tr><tr><td style="font-weight:bold;vertical-align:top;">description</td><td style="vertical-align:top;">:</td><td><div>a cool new app</div></td></tr><tr><td style="font-weight:bold;vertical-align:top;">generator</td><td style="vertical-align:top;">:</td><td><div>Web2py Web Framework</div></td></tr><tr><td style="font-weight:bold;vertical-align:top;">keywords</td><td style="vertical-align:top;">:</td><td><div><table><tr><td><div>web2py</div></td></tr><tr><td><div>python</div></td></tr><tr><td><div>framework</div></td></tr></table></div></td></tr></table></div></td></tr><tr><td style="font-weight:bold;vertical-align:top;">models_to_run</td><td style="vertical-align:top;">:</td><td><div><table><tr><td><div>^\\w+\\.py$</div></td></tr><tr><td><div>^depute/\\w+\\.py$</div></td></tr><tr><td><div>^depute/index/\\w+\\.py$</div></td></tr></table></div></td></tr><tr><td style="font-weight:bold;vertical-align:top;">postprocessing</td><td style="vertical-align:top;">:</td><td><div><table></table></div></td></tr><tr><td style="font-weight:bold;vertical-align:top;">session_client</td><td style="vertical-align:top;">:</td><td><div>83.203.170.41</div></td></tr><tr><td style="font-weight:bold;vertical-align:top;">session_cookie_compression_level</td><td style="vertical-align:top;">:</td><td><div>None</div></td></tr><tr><td style="font-weight:bold;vertical-align:top;">session_cookie_expires</td><td style="vertical-align:top;">:</td><td><div>None</div></td></tr><tr><td style="font-weight:bold;vertical-align:top;">session_data_name</td><td style="vertical-align:top;">:</td><td><div>session_data_observatoireassemblee</div></td></tr><tr><td style="font-weight:bold;vertical-align:top;">session_file</td><td style="vertical-align:top;">:</td><td><div>None</div></td></tr><tr><td style="font-weight:bold;vertical-align:top;">session_filename</td><td style="vertical-align:top;">:</td><td><div>/home/www-data/web2py/applications/observatoireassemblee/sessions/83.203.170.41-ff6f6f57-f502-4b60-b4e2-b5e74a25ff6c</div></td></tr><tr><td style="font-weight:bold;vertical-align:top;">session_hash</td><td style="vertical-align:top;">:</td><td><div>c0762cbf4baf7f9af97c051e7fcb8083</div></td></tr><tr><td style="font-weight:bold;vertical-align:top;">session_id</td><td style="vertical-align:top;">:</td><td><div>83.203.170.41-ff6f6f57-f502-4b60-b4e2-b5e74a25ff6c</div></td></tr><tr><td style="font-weight:bold;vertical-align:top;">session_id_name</td><td style="vertical-align:top;">:</td><td><div>session_id_observatoireassemblee</div></td></tr><tr><td style="font-weight:bold;vertical-align:top;">session_masterapp</td><td style="vertical-align:top;">:</td><td><div>observatoireassemblee</div></td></tr><tr><td style="font-weight:bold;vertical-align:top;">session_new</td><td style="vertical-align:top;">:</td><td><div>True</div></td></tr><tr><td style="font-weight:bold;vertical-align:top;">session_storage_type</td><td style="vertical-align:top;">:</td><td><div>file</div></td></tr><tr><td style="font-weight:bold;vertical-align:top;">status</td><td style="vertical-align:top;">:</td><td><div>200</div></td></tr><tr><td style="font-weight:bold;vertical-align:top;">subtitle</td><td style="vertical-align:top;">:</td><td><div></div></td></tr><tr><td style="font-weight:bold;vertical-align:top;">title</td><td style="vertical-align:top;">:</td><td><div>Observatoireassemblee</div></td></tr><tr><td style="font-weight:bold;vertical-align:top;">view</td><td style="vertical-align:top;">:</td><td><div>depute/index.html</div></td></tr></table></div>'
tRp110
sS'locals'
p111
(dp112
g4
S"'/home/www-data/web2py/applications/observatoireassemblee/views/depute/index.html'"
p113
sS'ccode'
p114
S'\'response.write(\\\'<!DOCTYPE html>\\\\n<html lang="fr"...ponse.write(\\\'\\\\n</body>\\\\n</html>\\\\n\\\', escape=False)\''
p115
sg68
S'SyntaxError(\'EOL while scanning string literal\',...(\\\'static\\\',\\\'js/wordcloud2.js\\\')"></script>\\n\'))'
p116
sS'environment'
p117
S"{'A': <class 'gluon.html.A'>, 'ANY_OF': <class 'gluon.validators.ANY_OF'>, 'ASSIGNJS': <function ASSIGNJS>, 'AppCache': <class __restricted__.AppCache>, 'AppConfig': <function AppConfig>, 'Auth': <class 'gluon.tools.Auth'>, 'B': <class 'gluon.html.B'>, 'BEAUTIFY': <class 'gluon.html.BEAUTIFY'>, 'BODY': <class 'gluon.html.BODY'>, 'BR': <class 'gluon.html.BR'>, ...}"
p118
sS'error'
p119
S'SyntaxError(\'EOL while scanning string literal\',...(\\\'static\\\',\\\'js/wordcloud2.js\\\')"></script>\\n\'))'
p120
sg105
S"<type 'exceptions.SyntaxError'>"
p121
sg2
S'"<type \'exceptions.SyntaxError\'> EOL while scanning string literal (<string>, line 32)"'
p122
sssS'traceback'
p123
S'Traceback (most recent call last):\n  File "/home/www-data/web2py/gluon/restricted.py", line 219, in restricted\n    exec(ccode, environment)\n  File "<string>", line 32\n    response.write(URL(\'static\',\'js/wordcloud2.js\')"></script>\n                                                             ^\nSyntaxError: EOL while scanning string literal\n'
p124
s.