(dp1
S'output'
p2
S"<type 'exceptions.AttributeError'> 'str' object has no attribute 'values'"
p3
sS'layer'
p4
S'/home/www-data/web2py/applications/oadev/views/depute/index.html'
p5
sS'code'
p6
S'response.write(\'<!DOCTYPE html>\\n<html lang="fr">\\n<head>\\n    <meta charset="utf-8">\\n    <meta http-equiv="x-ua-compatible" content="ie=edge">\\n    <title>\', escape=False)\nresponse.write(\' \'.join(depute_nom.split(\' \')[1:]))\nresponse.write(\' | Observatoire Insoumis\', escape=False)\nresponse.write(\'</title>\\n    <meta name="description" content="">\\n    <meta name="viewport" content="width=device-width, initial-scale=1">\\n\\n    <link href="https://fonts.googleapis.com/css?family=Montserrat:400,600,700" rel="stylesheet">\\n    <link href="https://maxcdn.bootstrapcdn.com/font-awesome/4.7.0/css/font-awesome.min.css" rel="stylesheet">\\n    <link rel="stylesheet" href="\', escape=False)\nresponse.write(URL(\'static\',\'css/main.css\'))\nresponse.write(\'" rel="stylesheet">\\n    \', escape=False)\nresponse.write(\'\\n<style>\\n    high {\\n        background-color: #82cde2;\\n        color: white;\\n    }\\n    <link href="https://cdnjs.cloudflare.com/ajax/libs/billboard.js/1.0.1/billboard.min.css" rel="stylesheet">\\n</style>\\n\', escape=False)\nresponse.write(\'\\n</head>\\n<body>\\n    <nav id="main-nav" class="flex">\\n        <img src="\', escape=False)\nresponse.write(URL(\'static\',\'assets/logo.svg\'))\nresponse.write(\'" alt="Observatoire Insoumis">\\n        <ul>\\n            <li>Programme Pr\\xc3\\xa9sidentiel</li>\\n            <li>Gouvernement</li>\\n            <li>Assembl\\xc3\\xa9e Nationale</li>\\n        </ul>\\n    </nav>\\n    <header id="header">\\n        Header super chouette sisi !\\n    </header>\\n    <nav id="sub-nav">\\n        <ul>\\n            <li><i class="fa fa-users" aria-hidden="true"></i> Groupes</li>\\n            <li><i class="fa fa-user-circle-o" aria-hidden="true"></i> D\\xc3\\xa9put\\xc3\\xa9s</li>\\n            <li><i class="fa fa-thumbs-up" aria-hidden="true"></i> Suivi FI</li>\\n        </ul>\\n    </nav>\\n    \', escape=False)\nresponse.write(\'\\n    <div id="depute-template" class="container">\\n        <div class="depute-header">\\n            <div class="depute-photo">\\n                <img src="http://www2.assemblee-nationale.fr/static/tribun/15/photos/\', escape=False)\nresponse.write(depute_uid[2:])\nresponse.write(\'.jpg"/>\\n            </div>\\n            <div class="depute-identite">\\n                <header>\\n                    <h2><span>\', escape=False)\nresponse.write("%s / %s / %se circ" % (depute_region,depute_departement,depute_circo))\nresponse.write(\'</span></h2>\\n                    <h1>\', escape=False)\nresponse.write(depute_nom)\nresponse.write(\'</h1>\\n                </header>\\n\\n                <div class="depute-contacts">\\n                    \', escape=False)\nfor contact in depute_contacts:\n    if (contact[\'type\']==u\'mail\'):\n        response.write(\'<a class="depute-contact" href="\', escape=False)\n        response.write(contact[\'lien\'])\n        response.write(\'"><i class="fa fa-envelope"></i></a>\\n                    \', escape=False)\n    elif (contact[\'type\']==\'twitter\'):\n        response.write(\'<a class="depute-contact" href="\', escape=False)\n        response.write(contact[\'lien\'])\n        response.write(\'"><i class="fa fa-twitter"></i></a>\\n                    \', escape=False)\n    elif (contact[\'type\']==\'facebook\'):\n        response.write(\'<a class="depute-contact" href="\', escape=False)\n        response.write(contact[\'lien\'])\n        response.write(\'"><i class="fa fa-facebook-square"></i></a>\\n                    \', escape=False)\n    elif (contact[\'type\']==\'site\'):\n        response.write(\'<a class="depute-contact" href="\', escape=False)\n        response.write(contact[\'lien\'])\n        response.write(\'"><i class="fa fa-globe"></i></a>\\n                    \', escape=False)\n        pass\n    response.write(\'\\n                    \', escape=False)\n    pass\nresponse.write(\'\\n                </div>\\n\\n                <div class="depute-groupe \', escape=False)\nresponse.write(groupe_abrev)\nresponse.write(\'"><i class="fa fa-group"></i> <a href="\', escape=False)\nresponse.write(URL(\'groupe\',\'index\',args=[groupe_abrev]))\nresponse.write(\'">\', escape=False)\nresponse.write(groupe_libelle)\nresponse.write(\'</a></div>\\n                <div class="depute-infos"><span>\', escape=False)\nresponse.write("%s, %s" % (depute_profession, depute_naissance))\nresponse.write(\'</span></div>\\n                <div class="depute-infos"><span>Suppl\\xc3\\xa9ant : \', escape=False)\nresponse.write(depute_suppleant)\nresponse.write(\'</span></div>\\n            </div>\\n        </div>\\n\\n        <div class="tab-container">\\n            <header>\\n                <input id="tab1" type="radio" name="tabs" value="presentation">\\n                <label for="tab1"><i class="fa fa-id-card-o"></i><span>Pr\\xc3\\xa9sentation</span></label>\\n\\n                <input id="tab2" type="radio" name="tabs" value="interventions" checked>\\n                <label for="tab2"><i class="fa fa-comment-o"></i><span>Interventions</span></label>\\n\\n                <input id="tab3" type="radio" name="tabs" value="votes">\\n                <label for="tab3"><i class="fa fa-hand-paper-o"></i><span>Votes</span></label>\\n            </header>\\n\\n            <section id="presentation" class="tab-content"> <!-- Pr\\xc3\\xa9sentation -->\\n                <div class="depute-hemicycle">\\n                    \', escape=False)\nresponse.write(svgcirco(depute_circo_id))\nresponse.write(\'\\n                    <object id="hemicycle" data="\', escape=False)\nresponse.write(URL(\'static\',\'images/hemicyclelight.svg\'))\nresponse.write(\'" type="image/svg+xml"></object>\\n                </div>\\n                <div class="depute-fonctions">\\n                    <h2>Fonctions / Mandats</h2>\\n                    <ul class="fa-ul">\\n                        <li><i class="fa fa-li fa-arrow-circle-o-right"></i> Membre de l\\\'Assembl\\xc3\\xa9e \', escape=False)\nif \'depute_actif\':\n    response.write(\'depuis le \', escape=False)\n    response.write(depute_mandat_debut)\nelse:\n    response.write(\'du %s au %s\' % (depute_mandat_debut,depute_mandat_fin))\n    pass\nresponse.write(\'</li>\\n                        \', escape=False)\nif depute_bureau:\n    response.write(\'<li><i class="fa fa-li fa-arrow-circle-o-right"></i> \', escape=False)\n    response.write(depute_bureau)\n    response.write(\'</li>\', escape=False)\n    pass\nresponse.write(\'\\n                        \', escape=False)\nfor typ,mandats in depute_mandats.iteritems():\n    for m in mandats:\n        response.write(\'\\n                        <li>\\n                            <i class="fa fa-li fa-arrow-circle-o-right"></i> <a href="\', escape=False)\n        response.write(m[\'lien\'])\n        response.write(\'">\', escape=False)\n        response.write(m[\'nom\'])\n        response.write(\'</a> (\', escape=False)\n        response.write(m[\'qualite\'])\n        response.write(\')\\n                        </li>\\n                        \', escape=False)\n        pass\n    pass\nresponse.write(\'\\n                    </ul>\\n                    \', escape=False)\nif depute_autresmandats:\n    response.write(\'\\n                    <h2>Autres Mandats</h2>\\n                    <ul class="fa-ul">\\n                        \', escape=False)\n    for am in depute_autresmandats:\n        response.write(\'\\n                        <li>\\n                            <i class="fa fa-li fa-arrow-circle-o-right"></i> \', escape=False)\n        response.write(am)\n        response.write(\'\\n                        </li>\', escape=False)\n        pass\n    response.write(\'\\n                    </ul>\\n                    \', escape=False)\n    pass\nresponse.write(\'\\n                    \', escape=False)\nif depute_collaborateurs:\n    response.write(\'\\n                    <h2>Collaborateurs</h2>\\n                    <ul class="fa-ul">\\n                        \', escape=False)\n    for co in depute_collaborateurs:\n        response.write(\'\\n                        <li>\\n                            <i class="fa fa-li fa-arrow-circle-o-right"></i> \', escape=False)\n        response.write(co)\n        response.write(\'\\n                        </li>\', escape=False)\n        pass\n    response.write(\'\\n                    </ul>\\n                    \', escape=False)\n    pass\nresponse.write(\'\\n                </div>\\n                \', escape=False)\nif depute_deputywatch:\n    response.write(\'\\n                <div class="depute-watch">\\n                    <h2>Deputy Watch</h2>\\n                    <div class="flex">\\n                        <img src="\', escape=False)\n    response.write(URL(\'static\',\'assets/deputywatch.png\'))\n    response.write(\'" alt="Deputy Watch">\\n                        <div>\\n                            Le site Deputy Watch tente de recenser les ant\\xc3\\xa9c\\xc3\\xa9dents judiciaires de notori\\xc3\\xa9t\\xc3\\xa9 publique des \\xc3\\xa9lus.\\n                            Nous y avons cherch\\xc3\\xa9 ce d\\xc3\\xa9put\\xc3\\xa9 et il semblerait qu\\\'il y soit list\\xc3\\xa9.<br />\\n                            <a href="\', escape=False)\n    response.write(depute_deputywatch[\'url\'])\n    response.write(\'" target="_blank">\\n                                <i class="fa fa-arrow-circle-o-right"></i> Voir le r\\xc3\\xa9sultat\\n                            </a>\\n                        </div>\\n                    </div>\\n                </div>\\n                \', escape=False)\n    pass\nresponse.write(\'\\n                \', escape=False)\nif len(depute_hatvp)>0:\n    response.write(\'\\n                <div>\\n                    <h2>D\\xc3\\xa9claration \\xc3\\xa0 la HATVP</h2>\\n                    <ul class="fa-ul">\\n                        \', escape=False)\n    for dec in depute_hatvp:\n        response.write(\'\\n                        <li>\\n                            <a href="\', escape=False)\n        response.write(dec[\'docurl\'])\n        response.write(\'" target="_blank">\\n                                <i class="fa fa-li fa-file-text-o"></i>\\n                                \', escape=False)\n        response.write("%s - %s" % (dec[\'typedoc\'], dec[\'qualite\']))\n        response.write(\'\\n                            </a>\\n                        </li>\\n                        \', escape=False)\n        pass\n    response.write(\'\\n                    </ul>\\n                </div>\\n                \', escape=False)\n    pass\nresponse.write(\'\\n            </section>\\n\\n\\t\\t\\t<section id="interventions" class="tab-content"> <!-- Interventions -->\\n                <div class="depute-interventions-recap">\\n                    Nombre d\\\'interventions : <span>\', escape=False)\nresponse.write(stats[\'nbitvs\'])\nresponse.write(\'</span>, nombre de mots : <span>\', escape=False)\nresponse.write(stats[\'nbmots\'])\nresponse.write(\'</span>\\n                </div>\\n                <div class="depute-interventions-cloud">\\n                    <div>\\n                        <h2>Ses mots</h2>\\n                        <div id="sourrounding_div_noms" class="cloud">\\n                            <canvas id="wordcanvas_noms"></canvas>\\n                        </div>\\n                    </div>\\n                    <div>\\n                        <h2>Ses verbes</h2>\\n                        <div id="sourrounding_div_verbes" class="cloud">\\n                            <canvas id="wordcanvas_verbes"></canvas>\\n                        </div>\\n                    </div>\\n                </div>\\n                <div id="itvlist">\\n                    <h2>Ses interventions</h2>\\n                    <div class="depute-interventions-search">\\n                        <input class="search" placeholder="Rechercher une intervention">\\n                        <button type="button"><i class="fa fa-search" aria-hidden="true"></i></button>\\n                    </div>\\n                    <ul id="itv-items" class="fa-ul">\\n\\n                    </ul>\\n                </div>\\n\\t\\t\\t</section>\\n\\n\\t\\t\\t<section id="votes" class="tab-content"> <!-- Votes -->\\n\\t\\t\\t\\t<div class="depute-votes-recap">\\n                    <div class="gauge">\\n                        <h2>Participation</h2>\\n                        \', escape=False)\nresponse.write(svggauge(\'vote\',stats[\'positions\'][\'exprimes\']))\nresponse.write(\'\\n                    </div>\\n                    <div class="gauge">\\n                        <h2>Contre son groupe</h2>\\n                        \', escape=False)\nresponse.write(svggauge(\'diss\',stats[\'positions\'][\'dissidence\']))\nresponse.write(\'\\n                    </div>\\n                    <div class="gauge">\\n                        <h2>FI-Compatibilit\\xc3\\xa9</h2>\\n                        \', escape=False)\nresponse.write(svggauge(\'compfi\',stats[\'compat\'][\'FI\']))\nresponse.write(\'\\n                    </div>\\n                    <div class="gauge">\\n                        <h2>EM-Compatibilit\\xc3\\xa9</h2>\\n                        \', escape=False)\nresponse.write(svggauge(\'compem\',stats[\'compat\'][\'REM\']))\nresponse.write(\'\\n                    </div>\\n                </div>\\n                <div class="depute-votes-calendar">\\n                    <h2>Calendrier des votes</h2>\\n                    <div id="calendar"></div>\\n                </div>\\n                 <div class="depute-votes-calendar">\\n                    <h2>Calendrier des votes</h2>\\n                    <div id="presenceChart"></div>\\n                </div>\\n\\n                <div class="depute-votes-list">\\n                    <h2>Ses votes</h2>\\n                    <div class="depute-votes-search">\\n                        <input class="search" placeholder="Rechercher un vote">\\n                        <button type="button"><i class="fa fa-search" aria-hidden="true"></i></button>\\n                    </div>\\n                    <ul id="vote-items">\\n\\n                    </ul>\\n                </div>\\n            </section>\\n        </div>\\n    </div>\\n\', escape=False)\nresponse.write(\'\\n    \', escape=False)\nresponse.write(\'\\n  <script src="https://cdnjs.cloudflare.com/ajax/libs/jquery/3.2.1/jquery.min.js"></script>\\n  <script src="\', escape=False)\nresponse.write(URL(\'static\',\'js/wordcloud2.js\'))\nresponse.write(\'"></script>\\n  <script src="https://d3js.org/d3.v4.min.js"></script>\\n  <script src="https://cdnjs.cloudflare.com/ajax/libs/billboard.js/1.0.1/billboard.min.js"></script>\\n  <script src="https://unpkg.com/infinite-scroll@3/dist/infinite-scroll.pkgd.min.js"></script>\\n  <script src="\', escape=False)\nresponse.write(URL(\'static\',\'js/depute.js\'))\nresponse.write(\'"></script>\\n  <script>\\n      \\n      \\n    // Interventions\\n    var itv_IS = setInfiniteScroll(id=\\\'itv-items\\\',path=\\\'\', escape=False)\nresponse.write(URL("depute","ajax_itvs"))\nresponse.write(\'\\\',args={depute_uid:"\', escape=False)\nresponse.write(depute_uid)\nresponse.write(\'"},append=\\\'.itv-item\\\');\\n    \\n    function searchitv() {\\n        itv_IS.element.innerHTML = \\\'\\\';\\n         itv_IS.destroy();\\n         search = $(\\\'.depute-interventions-search input.search\\\').val();\\n         itv_IS = setInfiniteScroll(id=\\\'itv-items\\\',path=\\\'\', escape=False)\nresponse.write(URL("depute","ajax_itvs"))\nresponse.write(\'\\\',args={depute_uid:"\', escape=False)\nresponse.write(depute_uid)\nresponse.write(\'",search:search},append=\\\'.itv-item\\\', emptyMsg=\\\'<li>Aucune intervention n\\\\\\\'a \\xc3\\xa9t\\xc3\\xa9 trouv\\xc3\\xa9e pour cette recherche.</li>\\\');\\n        itv_IS.on(\\\'append\\\', function(response) {\\n            if (itv_IS.element.childElementCount === 0) {\\n                itv_IS.element.innerHTML = \\\'<li>Aucune intervention n\\\\\\\'a \\xc3\\xa9t\\xc3\\xa9 trouv\\xc3\\xa9e pour cette recherche.</li>\\\';\\n            }\\n        });\\n    }\\n      \\n    $(\\\'.depute-interventions-search button\\\').click(function() {\\n        searchitv();\\n    });\\n    \\n    $(\\\'.depute-interventions-search\\\').keypress(function(e) {\\n    if ((e.which && e.which == 13) || (e.keyCode && e.keyCode == 13)) {\\n        e.preventDefault();\\n        searchitv();\\n    }\\n    });\\n\\n    // Votes\\n    var vote_IS = setInfiniteScroll(id=\\\'vote-items\\\',path=\\\'\', escape=False)\nresponse.write(URL("depute","ajax_votes"))\nresponse.write(\'\\\',args={depute_uid:"\', escape=False)\nresponse.write(depute_uid)\nresponse.write(\'"},append=\\\'.vote-item\\\');\\n    \\n    function searchvote() {\\n        vote_IS.element.innerHTML = \\\'\\\';\\n         vote_IS.destroy();\\n         search = $(\\\'.depute-votes-search input.search\\\').val();\\n         vote_IS = setInfiniteScroll(id=\\\'vote-items\\\',path=\\\'\', escape=False)\nresponse.write(URL("depute","ajax_votes"))\nresponse.write(\'\\\',args={depute_uid:"\', escape=False)\nresponse.write(depute_uid)\nresponse.write(\'",search:search},append=\\\'.vote-item\\\');\\n        vote_IS.on(\\\'append\\\', function(response) {\\n            if (vote_IS.element.childElementCount === 0) {\\n                vote_IS.element.innerHTML = \\\'<li>Aucun vote n\\\\\\\'a \\xc3\\xa9t\\xc3\\xa9 trouv\\xc3\\xa9 pour cette recherche.</li>\\\';\\n            }\\n        });\\n    }\\n    \\n    $(\\\'.depute-votes-search button\\\').click(function() {\\n        searchvote();\\n    });\\n      \\n    $(\\\'.depute-votes-search\\\').keypress(function(e) {\\n    if ((e.which && e.which == 13) || (e.keyCode && e.keyCode == 13)) {\\n        e.preventDefault();\\n        searchvote();\\n    }\\n    });\\n    \\n    // Init Calendrier\\n    var csv = JSON.parse(\\\'\', escape=False)\nresponse.write(XML(dates))\nresponse.write("\');\\n    // test areachart\\n   \\n\\n\\n\\n    // Init Nuages\\n    ", escape=False)\nimport json\nresponse.write(\'\\n    var wordlist = {};\\n    \', escape=False)\nif depute_nuages:\n    response.write(\'\\n    \', escape=False)\n    for lex in depute_nuages.keys():\n        response.write("\\n       wordlist[\'", escape=False)\n        response.write(lex)\n        response.write("\'] = JSON.parse(\'", escape=False)\n        response.write(XML(json.dumps(depute_nuages[lex])))\n        response.write("\');\\n    ", escape=False)\n        pass\n    response.write(\'\\n    \', escape=False)\n    pass\nresponse.write(\'\\n\\n    var svg = document.getElementById(\\\'hemicycle\\\');\\n    $(document).ready(function() {\\n        \\n        var visible = $(\\\'.tab-container input:checked\\\').val();\\n        $(\\\'#\\\' + visible).addClass(\\\'visible\\\');\\n\\n        $(\\\'.tab-container header input[name=tabs]\\\').change(function(e) {\\n            $(\\\'.tab-content\\\').removeClass(\\\'visible\\\');\\n            $(\\\'#\\\' + e.target.value).addClass(\\\'visible\\\');\\n        });\\n        \\n        /* position hemicycle */\\n        \\n        svg.addEventListener(\\\'load\\\', function () {\\n          initHemicycle("\', escape=False)\nresponse.write(depute_place)\nresponse.write(\'");\\n        });\\n        \\n        var chart = bb.generate({\\n          "data": {\\n            "columns": [\\n                JSON.parse("\', escape=False)\nresponse.write(XML(json.dumps([d[\'pct\'] for d in dates.values()])))\nresponse.write(\'")\\n            ],\\n            "types": {\\n              "data": "area"\\n            }\\n          },\\n          "bindto": "#presenceChart"\\n        });\\n                genCalendar();\\n        drawNuages();  \\n\\n        var resizeDebounce;\\n        $(window).resize(function() {\\n            clearTimeout(resizeDebounce);\\n            resizeDebounce = setTimeout(function() {\\n                window.requestAnimationFrame(function() {\\n                    drawNuages();\\n                    $(\\\'#calendar svg\\\').remove();\\n                    genCalendar();\\n                });\\n            }, 100);\\n        });\\n    });\\n</script>\\n\', escape=False)\nresponse.write(\'\\n</body>\\n</html>\\n\', escape=False)'
p7
sS'snapshot'
p8
(dp9
S'exception'
p10
(dp11
S'__getslice__'
p12
S"<method-wrapper '__getslice__' of exceptions.AttributeError object>"
p13
sS'__str__'
p14
S"<method-wrapper '__str__' of exceptions.AttributeError object>"
p15
sS'__reduce__'
p16
S'<built-in method __reduce__ of exceptions.AttributeError object>'
p17
sS'__dict__'
p18
S'{}'
p19
sS'message'
p20
S'"\'str\' object has no attribute \'values\'"'
p21
sS'__sizeof__'
p22
S'<built-in method __sizeof__ of exceptions.AttributeError object>'
p23
sS'__init__'
p24
S"<method-wrapper '__init__' of exceptions.AttributeError object>"
p25
sS'__setattr__'
p26
S"<method-wrapper '__setattr__' of exceptions.AttributeError object>"
p27
sS'__reduce_ex__'
p28
S'<built-in method __reduce_ex__ of exceptions.AttributeError object>'
p29
sS'__new__'
p30
S'<built-in method __new__ of type object>'
p31
sS'__format__'
p32
S'<built-in method __format__ of exceptions.AttributeError object>'
p33
sS'__class__'
p34
S"<type 'exceptions.AttributeError'>"
p35
sS'__doc__'
p36
S"'Attribute not found.'"
p37
sS'__getitem__'
p38
S"<method-wrapper '__getitem__' of exceptions.AttributeError object>"
p39
sS'__setstate__'
p40
S'<built-in method __setstate__ of exceptions.AttributeError object>'
p41
sS'__getattribute__'
p42
S"<method-wrapper '__getattribute__' of exceptions.AttributeError object>"
p43
sS'args'
p44
S'("\'str\' object has no attribute \'values\'",)'
p45
sS'__subclasshook__'
p46
S'<built-in method __subclasshook__ of type object>'
p47
sS'__unicode__'
p48
S'<built-in method __unicode__ of exceptions.AttributeError object>'
p49
sS'__delattr__'
p50
S"<method-wrapper '__delattr__' of exceptions.AttributeError object>"
p51
sS'__repr__'
p52
S"<method-wrapper '__repr__' of exceptions.AttributeError object>"
p53
sS'__hash__'
p54
S"<method-wrapper '__hash__' of exceptions.AttributeError object>"
p55
ssS'evalue'
p56
S"'str' object has no attribute 'values'"
p57
sS'request'
p58
cgluon.html
XML_unpickle
p59
(S's\x92q\x00\x00<div><table><tr><td style="font-weight:bold;vertical-align:top;">ajax</td><td style="vertical-align:top;">:</td><td><div>False</div></td></tr><tr><td style="font-weight:bold;vertical-align:top;">application</td><td style="vertical-align:top;">:</td><td><div>oadev</div></td></tr><tr><td style="font-weight:bold;vertical-align:top;">args</td><td style="vertical-align:top;">:</td><td><div><table></table></div></td></tr><tr><td style="font-weight:bold;vertical-align:top;">cid</td><td style="vertical-align:top;">:</td><td><div>None</div></td></tr><tr><td style="font-weight:bold;vertical-align:top;">client</td><td style="vertical-align:top;">:</td><td><div>83.203.225.71</div></td></tr><tr><td style="font-weight:bold;vertical-align:top;">controller</td><td style="vertical-align:top;">:</td><td><div>depute</div></td></tr><tr><td style="font-weight:bold;vertical-align:top;">cookies</td><td style="vertical-align:top;">:</td><td><div><table><tr><td style="font-weight:bold;vertical-align:top;">session_id_admin</td><td style="vertical-align:top;">:</td><td><div>83.203.183.214-9e4831cd-10f8-4436-b4dd-503aa7157164<table><tr><td style="font-weight:bold;vertical-align:top;">comment</td><td style="vertical-align:top;">:</td><td><div></div></td></tr><tr><td style="font-weight:bold;vertical-align:top;">domain</td><td style="vertical-align:top;">:</td><td><div></div></td></tr><tr><td style="font-weight:bold;vertical-align:top;">expires</td><td style="vertical-align:top;">:</td><td><div></div></td></tr><tr><td style="font-weight:bold;vertical-align:top;">httponly</td><td style="vertical-align:top;">:</td><td><div></div></td></tr><tr><td style="font-weight:bold;vertical-align:top;">max-age</td><td style="vertical-align:top;">:</td><td><div></div></td></tr><tr><td style="font-weight:bold;vertical-align:top;">path</td><td style="vertical-align:top;">:</td><td><div></div></td></tr><tr><td style="font-weight:bold;vertical-align:top;">secure</td><td style="vertical-align:top;">:</td><td><div></div></td></tr><tr><td style="font-weight:bold;vertical-align:top;">version</td><td style="vertical-align:top;">:</td><td><div></div></td></tr></table></div></td></tr><tr><td style="font-weight:bold;vertical-align:top;">session_id_oadev</td><td style="vertical-align:top;">:</td><td><div>83.203.225.71-d85897f9-b923-4960-bfec-4a664ada643e<table><tr><td style="font-weight:bold;vertical-align:top;">comment</td><td style="vertical-align:top;">:</td><td><div></div></td></tr><tr><td style="font-weight:bold;vertical-align:top;">domain</td><td style="vertical-align:top;">:</td><td><div></div></td></tr><tr><td style="font-weight:bold;vertical-align:top;">expires</td><td style="vertical-align:top;">:</td><td><div></div></td></tr><tr><td style="font-weight:bold;vertical-align:top;">httponly</td><td style="vertical-align:top;">:</td><td><div></div></td></tr><tr><td style="font-weight:bold;vertical-align:top;">max-age</td><td style="vertical-align:top;">:</td><td><div></div></td></tr><tr><td style="font-weight:bold;vertical-align:top;">path</td><td style="vertical-align:top;">:</td><td><div></div></td></tr><tr><td style="font-weight:bold;vertical-align:top;">secure</td><td style="vertical-align:top;">:</td><td><div></div></td></tr><tr><td style="font-weight:bold;vertical-align:top;">version</td><td style="vertical-align:top;">:</td><td><div></div></td></tr></table></div></td></tr></table></div></td></tr><tr><td style="font-weight:bold;vertical-align:top;">env</td><td style="vertical-align:top;">:</td><td><div><table><tr><td style="font-weight:bold;vertical-align:top;">CONTEXT_DOCUMENT_ROOT</td><td style="vertical-align:top;">:</td><td><div>/var/www/html</div></td></tr><tr><td style="font-weight:bold;vertical-align:top;">CONTEXT_PREFIX</td><td style="vertical-align:top;">:</td><td><div></div></td></tr><tr><td style="font-weight:bold;vertical-align:top;">DOCUMENT_ROOT</td><td style="vertical-align:top;">:</td><td><div>/var/www/html</div></td></tr><tr><td style="font-weight:bold;vertical-align:top;">GATEWAY_INTERFACE</td><td style="vertical-align:top;">:</td><td><div>CGI/1.1</div></td></tr><tr><td style="font-weight:bold;vertical-align:top;">HTTP_ACCEPT</td><td style="vertical-align:top;">:</td><td><div>text/html,application/xhtml+xml,application/xml;q=0.9,image/webp,image/apng,*/*;q=0.8</div></td></tr><tr><td style="font-weight:bold;vertical-align:top;">HTTP_ACCEPT_ENCODING</td><td style="vertical-align:top;">:</td><td><div>gzip, deflate, br</div></td></tr><tr><td style="font-weight:bold;vertical-align:top;">HTTP_ACCEPT_LANGUAGE</td><td style="vertical-align:top;">:</td><td><div>fr-FR,fr;q=0.8,en-US;q=0.6,en;q=0.4</div></td></tr><tr><td style="font-weight:bold;vertical-align:top;">HTTP_CACHE_CONTROL</td><td style="vertical-align:top;">:</td><td><div>max-age=0</div></td></tr><tr><td style="font-weight:bold;vertical-align:top;">HTTP_CONNECTION</td><td style="vertical-align:top;">:</td><td><div>keep-alive</div></td></tr><tr><td style="font-weight:bold;vertical-align:top;">HTTP_COOKIE</td><td style="vertical-align:top;">:</td><td><div>session_id_oadev=83.203.225.71-d85897f9-b923-4960-bfec-4a664ada643e; session_id_admin=83.203.183.214-9e4831cd-10f8-4436-b4dd-503aa7157164</div></td></tr><tr><td style="font-weight:bold;vertical-align:top;">HTTP_HOST</td><td style="vertical-align:top;">:</td><td><div>admin.obsas.orvdev.fr</div></td></tr><tr><td style="font-weight:bold;vertical-align:top;">HTTP_REFERER</td><td style="vertical-align:top;">:</td><td><div>https://admin.obsas.orvdev.fr/admin/edit/oadev/controllers/deputes.py?id=controllers__deputes__py</div></td></tr><tr><td style="font-weight:bold;vertical-align:top;">HTTP_UPGRADE_INSECURE_REQUESTS</td><td style="vertical-align:top;">:</td><td><div>1</div></td></tr><tr><td style="font-weight:bold;vertical-align:top;">HTTP_USER_AGENT</td><td style="vertical-align:top;">:</td><td><div>Mozilla/5.0 (X11; Linux x86_64) AppleWebKit/537.36 (KHTML, like Gecko) Chrome/60.0.3112.101 Safari/537.36</div></td></tr><tr><td style="font-weight:bold;vertical-align:top;">PATH_INFO</td><td style="vertical-align:top;">:</td><td><div>/oadev/depute</div></td></tr><tr><td style="font-weight:bold;vertical-align:top;">PATH_TRANSLATED</td><td style="vertical-align:top;">:</td><td><div>/home/www-data/web2py/wsgihandler.py/oadev/depute</div></td></tr><tr><td style="font-weight:bold;vertical-align:top;">QUERY_STRING</td><td style="vertical-align:top;">:</td><td><div></div></td></tr><tr><td style="font-weight:bold;vertical-align:top;">REMOTE_ADDR</td><td style="vertical-align:top;">:</td><td><div>83.203.225.71</div></td></tr><tr><td style="font-weight:bold;vertical-align:top;">REMOTE_PORT</td><td style="vertical-align:top;">:</td><td><div>45137</div></td></tr><tr><td style="font-weight:bold;vertical-align:top;">REQUEST_METHOD</td><td style="vertical-align:top;">:</td><td><div>GET</div></td></tr><tr><td style="font-weight:bold;vertical-align:top;">REQUEST_SCHEME</td><td style="vertical-align:top;">:</td><td><div>https</div></td></tr><tr><td style="font-weight:bold;vertical-align:top;">REQUEST_URI</td><td style="vertical-align:top;">:</td><td><div>/oadev/depute</div></td></tr><tr><td style="font-weight:bold;vertical-align:top;">SCRIPT_FILENAME</td><td style="vertical-align:top;">:</td><td><div>/home/www-data/web2py/wsgihandler.py</div></td></tr><tr><td style="font-weight:bold;vertical-align:top;">SCRIPT_NAME</td><td style="vertical-align:top;">:</td><td><div></div></td></tr><tr><td style="font-weight:bold;vertical-align:top;">SERVER_ADDR</td><td style="vertical-align:top;">:</td><td><div>151.80.57.169</div></td></tr><tr><td style="font-weight:bold;vertical-align:top;">SERVER_ADMIN</td><td style="vertical-align:top;">:</td><td><div>[no address given]</div></td></tr><tr><td style="font-weight:bold;vertical-align:top;">SERVER_NAME</td><td style="vertical-align:top;">:</td><td><div>admin.obsas.orvdev.fr</div></td></tr><tr><td style="font-weight:bold;vertical-align:top;">SERVER_PORT</td><td style="vertical-align:top;">:</td><td><div>443</div></td></tr><tr><td style="font-weight:bold;vertical-align:top;">SERVER_PROTOCOL</td><td style="vertical-align:top;">:</td><td><div>HTTP/1.1</div></td></tr><tr><td style="font-weight:bold;vertical-align:top;">SERVER_SIGNATURE</td><td style="vertical-align:top;">:</td><td><div>&lt;address&gt;Apache/2.4.18 (Ubuntu) Server at admin.obsas.orvdev.fr Port 443&lt;/address&gt;\n</div></td></tr><tr><td style="font-weight:bold;vertical-align:top;">SERVER_SOFTWARE</td><td style="vertical-align:top;">:</td><td><div>Apache/2.4.18 (Ubuntu)</div></td></tr><tr><td style="font-weight:bold;vertical-align:top;">SSL_TLS_SNI</td><td style="vertical-align:top;">:</td><td><div>admin.obsas.orvdev.fr</div></td></tr><tr><td style="font-weight:bold;vertical-align:top;">apache.version</td><td style="vertical-align:top;">:</td><td><div><table><tr><td><div>2</div></td></tr><tr><td><div>4</div></td></tr><tr><td><div>18</div></td></tr></table></div></td></tr><tr><td style="font-weight:bold;vertical-align:top;">apache_version</td><td style="vertical-align:top;">:</td><td><div><table><tr><td><div>2</div></td></tr><tr><td><div>4</div></td></tr><tr><td><div>18</div></td></tr></table></div></td></tr><tr><td style="font-weight:bold;vertical-align:top;">app_folders</td><td style="vertical-align:top;">:</td><td><div>set([&#x27;/home/www-data/web2py/applications/observatoireassemblee/&#x27;, &#x27;/home/www-data/web2py/applications/obsas_dev/&#x27;, &#x27;/home/www-data/web2py/applications/admin/&#x27;, &#x27;/home/www-data/web2py/applications/oadev/&#x27;])</div></td></tr><tr><td style="font-weight:bold;vertical-align:top;">applications_parent</td><td style="vertical-align:top;">:</td><td><div>/home/www-data/web2py</div></td></tr><tr><td style="font-weight:bold;vertical-align:top;">context_document_root</td><td style="vertical-align:top;">:</td><td><div>/var/www/html</div></td></tr><tr><td style="font-weight:bold;vertical-align:top;">context_prefix</td><td style="vertical-align:top;">:</td><td><div></div></td></tr><tr><td style="font-weight:bold;vertical-align:top;">db_sessions</td><td style="vertical-align:top;">:</td><td><div>set([])</div></td></tr><tr><td style="font-weight:bold;vertical-align:top;">debugging</td><td style="vertical-align:top;">:</td><td><div>True</div></td></tr><tr><td style="font-weight:bold;vertical-align:top;">document_root</td><td style="vertical-align:top;">:</td><td><div>/var/www/html</div></td></tr><tr><td style="font-weight:bold;vertical-align:top;">gateway_interface</td><td style="vertical-align:top;">:</td><td><div>CGI/1.1</div></td></tr><tr><td style="font-weight:bold;vertical-align:top;">gluon_parent</td><td style="vertical-align:top;">:</td><td><div>/home/www-data/web2py</div></td></tr><tr><td style="font-weight:bold;vertical-align:top;">http_accept</td><td style="vertical-align:top;">:</td><td><div>text/html,application/xhtml+xml,application/xml;q=0.9,image/webp,image/apng,*/*;q=0.8</div></td></tr><tr><td style="font-weight:bold;vertical-align:top;">http_accept_encoding</td><td style="vertical-align:top;">:</td><td><div>gzip, deflate, br</div></td></tr><tr><td style="font-weight:bold;vertical-align:top;">http_accept_language</td><td style="vertical-align:top;">:</td><td><div>fr-FR,fr;q=0.8,en-US;q=0.6,en;q=0.4</div></td></tr><tr><td style="font-weight:bold;vertical-align:top;">http_cache_control</td><td style="vertical-align:top;">:</td><td><div>max-age=0</div></td></tr><tr><td style="font-weight:bold;vertical-align:top;">http_connection</td><td style="vertical-align:top;">:</td><td><div>keep-alive</div></td></tr><tr><td style="font-weight:bold;vertical-align:top;">http_cookie</td><td style="vertical-align:top;">:</td><td><div>session_id_oadev=83.203.225.71-d85897f9-b923-4960-bfec-4a664ada643e; session_id_admin=83.203.183.214-9e4831cd-10f8-4436-b4dd-503aa7157164</div></td></tr><tr><td style="font-weight:bold;vertical-align:top;">http_host</td><td style="vertical-align:top;">:</td><td><div>admin.obsas.orvdev.fr</div></td></tr><tr><td style="font-weight:bold;vertical-align:top;">http_referer</td><td style="vertical-align:top;">:</td><td><div>https://admin.obsas.orvdev.fr/admin/edit/oadev/controllers/deputes.py?id=controllers__deputes__py</div></td></tr><tr><td style="font-weight:bold;vertical-align:top;">http_upgrade_insecure_requests</td><td style="vertical-align:top;">:</td><td><div>1</div></td></tr><tr><td style="font-weight:bold;vertical-align:top;">http_user_agent</td><td style="vertical-align:top;">:</td><td><div>Mozilla/5.0 (X11; Linux x86_64) AppleWebKit/537.36 (KHTML, like Gecko) Chrome/60.0.3112.101 Safari/537.36</div></td></tr><tr><td style="font-weight:bold;vertical-align:top;">is_jython</td><td style="vertical-align:top;">:</td><td><div>False</div></td></tr><tr><td style="font-weight:bold;vertical-align:top;">is_py2</td><td style="vertical-align:top;">:</td><td><div>True</div></td></tr><tr><td style="font-weight:bold;vertical-align:top;">is_pypy</td><td style="vertical-align:top;">:</td><td><div>False</div></td></tr><tr><td style="font-weight:bold;vertical-align:top;">is_source</td><td style="vertical-align:top;">:</td><td><div>True</div></td></tr><tr><td style="font-weight:bold;vertical-align:top;">local_hosts</td><td style="vertical-align:top;">:</td><td><div><table><tr><td><div>vps433020</div></td></tr><tr><td><div>::ffff:127.0.0.1</div></td></tr><tr><td><div>::1</div></td></tr><tr><td><div>151.80.57.169</div></td></tr><tr><td><div>vps433020.ovh.net</div></td></tr><tr><td><div>127.0.1.1</div></td></tr><tr><td><div>admin.obsas.orvdev.fr</div></td></tr><tr><td><div>127.0.0.1</div></td></tr></table></div></td></tr><tr><td style="font-weight:bold;vertical-align:top;">mod_wsgi.application_group</td><td style="vertical-align:top;">:</td><td><div></div></td></tr><tr><td style="font-weight:bold;vertical-align:top;">mod_wsgi.callable_object</td><td style="vertical-align:top;">:</td><td><div>application</div></td></tr><tr><td style="font-weight:bold;vertical-align:top;">mod_wsgi.daemon_connects</td><td style="vertical-align:top;">:</td><td><div>1</div></td></tr><tr><td style="font-weight:bold;vertical-align:top;">mod_wsgi.daemon_restarts</td><td style="vertical-align:top;">:</td><td><div>0</div></td></tr><tr><td style="font-weight:bold;vertical-align:top;">mod_wsgi.daemon_start</td><td style="vertical-align:top;">:</td><td><div>1505854087405721</div></td></tr><tr><td style="font-weight:bold;vertical-align:top;">mod_wsgi.enable_sendfile</td><td style="vertical-align:top;">:</td><td><div>0</div></td></tr><tr><td style="font-weight:bold;vertical-align:top;">mod_wsgi.handler_script</td><td style="vertical-align:top;">:</td><td><div></div></td></tr><tr><td style="font-weight:bold;vertical-align:top;">mod_wsgi.input_chunked</td><td style="vertical-align:top;">:</td><td><div>0</div></td></tr><tr><td style="font-weight:bold;vertical-align:top;">mod_wsgi.listener_host</td><td style="vertical-align:top;">:</td><td><div></div></td></tr><tr><td style="font-weight:bold;vertical-align:top;">mod_wsgi.listener_port</td><td style="vertical-align:top;">:</td><td><div>443</div></td></tr><tr><td style="font-weight:bold;vertical-align:top;">mod_wsgi.process_group</td><td style="vertical-align:top;">:</td><td><div>obsasadm</div></td></tr><tr><td style="font-weight:bold;vertical-align:top;">mod_wsgi.queue_start</td><td style="vertical-align:top;">:</td><td><div>1505854087405547</div></td></tr><tr><td style="font-weight:bold;vertical-align:top;">mod_wsgi.request_handler</td><td style="vertical-align:top;">:</td><td><div>wsgi-script</div></td></tr><tr><td style="font-weight:bold;vertical-align:top;">mod_wsgi.request_start</td><td style="vertical-align:top;">:</td><td><div>1505854087405256</div></td></tr><tr><td style="font-weight:bold;vertical-align:top;">mod_wsgi.script_reloading</td><td style="vertical-align:top;">:</td><td><div>1</div></td></tr><tr><td style="font-weight:bold;vertical-align:top;">mod_wsgi.script_start</td><td style="vertical-align:top;">:</td><td><div>1505854087405761</div></td></tr><tr><td style="font-weight:bold;vertical-align:top;">mod_wsgi.version</td><td style="vertical-align:top;">:</td><td><div><table><tr><td><div>4</div></td></tr><tr><td><div>3</div></td></tr><tr><td><div>0</div></td></tr></table></div></td></tr><tr><td style="font-weight:bold;vertical-align:top;">mod_wsgi_application_group</td><td style="vertical-align:top;">:</td><td><div></div></td></tr><tr><td style="font-weight:bold;vertical-align:top;">mod_wsgi_callable_object</td><td style="vertical-align:top;">:</td><td><div>application</div></td></tr><tr><td style="font-weight:bold;vertical-align:top;">mod_wsgi_daemon_connects</td><td style="vertical-align:top;">:</td><td><div>1</div></td></tr><tr><td style="font-weight:bold;vertical-align:top;">mod_wsgi_daemon_restarts</td><td style="vertical-align:top;">:</td><td><div>0</div></td></tr><tr><td style="font-weight:bold;vertical-align:top;">mod_wsgi_daemon_start</td><td style="vertical-align:top;">:</td><td><div>1505854087405721</div></td></tr><tr><td style="font-weight:bold;vertical-align:top;">mod_wsgi_enable_sendfile</td><td style="vertical-align:top;">:</td><td><div>0</div></td></tr><tr><td style="font-weight:bold;vertical-align:top;">mod_wsgi_handler_script</td><td style="vertical-align:top;">:</td><td><div></div></td></tr><tr><td style="font-weight:bold;vertical-align:top;">mod_wsgi_input_chunked</td><td style="vertical-align:top;">:</td><td><div>0</div></td></tr><tr><td style="font-weight:bold;vertical-align:top;">mod_wsgi_listener_host</td><td style="vertical-align:top;">:</td><td><div></div></td></tr><tr><td style="font-weight:bold;vertical-align:top;">mod_wsgi_listener_port</td><td style="vertical-align:top;">:</td><td><div>443</div></td></tr><tr><td style="font-weight:bold;vertical-align:top;">mod_wsgi_process_group</td><td style="vertical-align:top;">:</td><td><div>obsasadm</div></td></tr><tr><td style="font-weight:bold;vertical-align:top;">mod_wsgi_queue_start</td><td style="vertical-align:top;">:</td><td><div>1505854087405547</div></td></tr><tr><td style="font-weight:bold;vertical-align:top;">mod_wsgi_request_handler</td><td style="vertical-align:top;">:</td><td><div>wsgi-script</div></td></tr><tr><td style="font-weight:bold;vertical-align:top;">mod_wsgi_request_start</td><td style="vertical-align:top;">:</td><td><div>1505854087405256</div></td></tr><tr><td style="font-weight:bold;vertical-align:top;">mod_wsgi_script_reloading</td><td style="vertical-align:top;">:</td><td><div>1</div></td></tr><tr><td style="font-weight:bold;vertical-align:top;">mod_wsgi_script_start</td><td style="vertical-align:top;">:</td><td><div>1505854087405761</div></td></tr><tr><td style="font-weight:bold;vertical-align:top;">mod_wsgi_version</td><td style="vertical-align:top;">:</td><td><div><table><tr><td><div>4</div></td></tr><tr><td><div>3</div></td></tr><tr><td><div>0</div></td></tr></table></div></td></tr><tr><td style="font-weight:bold;vertical-align:top;">nokeepalive</td><td style="vertical-align:top;">:</td><td><div>ssl-unclean-shutdown</div></td></tr><tr><td style="font-weight:bold;vertical-align:top;">path_info</td><td style="vertical-align:top;">:</td><td><div>/oadev/depute</div></td></tr><tr><td style="font-weight:bold;vertical-align:top;">path_translated</td><td style="vertical-align:top;">:</td><td><div>/home/www-data/web2py/wsgihandler.py/oadev/depute</div></td></tr><tr><td style="font-weight:bold;vertical-align:top;">query_string</td><td style="vertical-align:top;">:</td><td><div></div></td></tr><tr><td style="font-weight:bold;vertical-align:top;">remote_addr</td><td style="vertical-align:top;">:</td><td><div>83.203.225.71</div></td></tr><tr><td style="font-weight:bold;vertical-align:top;">remote_port</td><td style="vertical-align:top;">:</td><td><div>45137</div></td></tr><tr><td style="font-weight:bold;vertical-align:top;">request_method</td><td style="vertical-align:top;">:</td><td><div>GET</div></td></tr><tr><td style="font-weight:bold;vertical-align:top;">request_scheme</td><td style="vertical-align:top;">:</td><td><div>https</div></td></tr><tr><td style="font-weight:bold;vertical-align:top;">request_uri</td><td style="vertical-align:top;">:</td><td><div>/oadev/depute/index</div></td></tr><tr><td style="font-weight:bold;vertical-align:top;">script_filename</td><td style="vertical-align:top;">:</td><td><div>/home/www-data/web2py/wsgihandler.py</div></td></tr><tr><td style="font-weight:bold;vertical-align:top;">script_name</td><td style="vertical-align:top;">:</td><td><div></div></td></tr><tr><td style="font-weight:bold;vertical-align:top;">server_addr</td><td style="vertical-align:top;">:</td><td><div>151.80.57.169</div></td></tr><tr><td style="font-weight:bold;vertical-align:top;">server_admin</td><td style="vertical-align:top;">:</td><td><div>[no address given]</div></td></tr><tr><td style="font-weight:bold;vertical-align:top;">server_name</td><td style="vertical-align:top;">:</td><td><div>admin.obsas.orvdev.fr</div></td></tr><tr><td style="font-weight:bold;vertical-align:top;">server_port</td><td style="vertical-align:top;">:</td><td><div>443</div></td></tr><tr><td style="font-weight:bold;vertical-align:top;">server_protocol</td><td style="vertical-align:top;">:</td><td><div>HTTP/1.1</div></td></tr><tr><td style="font-weight:bold;vertical-align:top;">server_signature</td><td style="vertical-align:top;">:</td><td><div>&lt;address&gt;Apache/2.4.18 (Ubuntu) Server at admin.obsas.orvdev.fr Port 443&lt;/address&gt;\n</div></td></tr><tr><td style="font-weight:bold;vertical-align:top;">server_software</td><td style="vertical-align:top;">:</td><td><div>Apache/2.4.18 (Ubuntu)</div></td></tr><tr><td style="font-weight:bold;vertical-align:top;">ssl_tls_sni</td><td style="vertical-align:top;">:</td><td><div>admin.obsas.orvdev.fr</div></td></tr><tr><td style="font-weight:bold;vertical-align:top;">web2py_original_uri</td><td style="vertical-align:top;">:</td><td><div>/oadev/depute</div></td></tr><tr><td style="font-weight:bold;vertical-align:top;">web2py_path</td><td style="vertical-align:top;">:</td><td><div>/home/www-data/web2py</div></td></tr><tr><td style="font-weight:bold;vertical-align:top;">web2py_version</td><td style="vertical-align:top;">:</td><td><div>2.15.1-stable+timestamp.2017.07.10.21.25.06</div></td></tr><tr><td style="font-weight:bold;vertical-align:top;">wsgi.errors</td><td style="vertical-align:top;">:</td><td><div>&lt;mod_wsgi.Log object at 0x7f399a1765d0&gt;</div></td></tr><tr><td style="font-weight:bold;vertical-align:top;">wsgi.file_wrapper</td><td style="vertical-align:top;">:</td><td><div>&lt;type &#x27;mod_wsgi.FileWrapper&#x27;&gt;</div></td></tr><tr><td style="font-weight:bold;vertical-align:top;">wsgi.input</td><td style="vertical-align:top;">:</td><td><div>&lt;mod_wsgi.Input object at 0x7f399c6f2f70&gt;</div></td></tr><tr><td style="font-weight:bold;vertical-align:top;">wsgi.multiprocess</td><td style="vertical-align:top;">:</td><td><div>False</div></td></tr><tr><td style="font-weight:bold;vertical-align:top;">wsgi.multithread</td><td style="vertical-align:top;">:</td><td><div>True</div></td></tr><tr><td style="font-weight:bold;vertical-align:top;">wsgi.run_once</td><td style="vertical-align:top;">:</td><td><div>False</div></td></tr><tr><td style="font-weight:bold;vertical-align:top;">wsgi.url_scheme</td><td style="vertical-align:top;">:</td><td><div>https</div></td></tr><tr><td style="font-weight:bold;vertical-align:top;">wsgi.version</td><td style="vertical-align:top;">:</td><td><div><table><tr><td><div>1</div></td></tr><tr><td><div>0</div></td></tr></table></div></td></tr><tr><td style="font-weight:bold;vertical-align:top;">wsgi_errors</td><td style="vertical-align:top;">:</td><td><div>&lt;mod_wsgi.Log object at 0x7f399a1765d0&gt;</div></td></tr><tr><td style="font-weight:bold;vertical-align:top;">wsgi_file_wrapper</td><td style="vertical-align:top;">:</td><td><div>&lt;type &#x27;mod_wsgi.FileWrapper&#x27;&gt;</div></td></tr><tr><td style="font-weight:bold;vertical-align:top;">wsgi_input</td><td style="vertical-align:top;">:</td><td><div>&lt;mod_wsgi.Input object at 0x7f399c6f2f70&gt;</div></td></tr><tr><td style="font-weight:bold;vertical-align:top;">wsgi_multiprocess</td><td style="vertical-align:top;">:</td><td><div>False</div></td></tr><tr><td style="font-weight:bold;vertical-align:top;">wsgi_multithread</td><td style="vertical-align:top;">:</td><td><div>True</div></td></tr><tr><td style="font-weight:bold;vertical-align:top;">wsgi_run_once</td><td style="vertical-align:top;">:</td><td><div>False</div></td></tr><tr><td style="font-weight:bold;vertical-align:top;">wsgi_url_scheme</td><td style="vertical-align:top;">:</td><td><div>https</div></td></tr><tr><td style="font-weight:bold;vertical-align:top;">wsgi_version</td><td style="vertical-align:top;">:</td><td><div><table><tr><td><div>1</div></td></tr><tr><td><div>0</div></td></tr></table></div></td></tr></table></div></td></tr><tr><td style="font-weight:bold;vertical-align:top;">extension</td><td style="vertical-align:top;">:</td><td><div>html</div></td></tr><tr><td style="font-weight:bold;vertical-align:top;">folder</td><td style="vertical-align:top;">:</td><td><div>/home/www-data/web2py/applications/oadev/</div></td></tr><tr><td style="font-weight:bold;vertical-align:top;">function</td><td style="vertical-align:top;">:</td><td><div>index</div></td></tr><tr><td style="font-weight:bold;vertical-align:top;">global_settings</td><td style="vertical-align:top;">:</td><td><div><table><tr><td style="font-weight:bold;vertical-align:top;">app_folders</td><td style="vertical-align:top;">:</td><td><div>set([&#x27;/home/www-data/web2py/applications/observatoireassemblee/&#x27;, &#x27;/home/www-data/web2py/applications/obsas_dev/&#x27;, &#x27;/home/www-data/web2py/applications/admin/&#x27;, &#x27;/home/www-data/web2py/applications/oadev/&#x27;])</div></td></tr><tr><td style="font-weight:bold;vertical-align:top;">applications_parent</td><td style="vertical-align:top;">:</td><td><div>/home/www-data/web2py</div></td></tr><tr><td style="font-weight:bold;vertical-align:top;">db_sessions</td><td style="vertical-align:top;">:</td><td><div>set([])</div></td></tr><tr><td style="font-weight:bold;vertical-align:top;">debugging</td><td style="vertical-align:top;">:</td><td><div>True</div></td></tr><tr><td style="font-weight:bold;vertical-align:top;">gluon_parent</td><td style="vertical-align:top;">:</td><td><div>/home/www-data/web2py</div></td></tr><tr><td style="font-weight:bold;vertical-align:top;">is_jython</td><td style="vertical-align:top;">:</td><td><div>False</div></td></tr><tr><td style="font-weight:bold;vertical-align:top;">is_py2</td><td style="vertical-align:top;">:</td><td><div>True</div></td></tr><tr><td style="font-weight:bold;vertical-align:top;">is_pypy</td><td style="vertical-align:top;">:</td><td><div>False</div></td></tr><tr><td style="font-weight:bold;vertical-align:top;">is_source</td><td style="vertical-align:top;">:</td><td><div>True</div></td></tr><tr><td style="font-weight:bold;vertical-align:top;">local_hosts</td><td style="vertical-align:top;">:</td><td><div><table><tr><td><div>vps433020</div></td></tr><tr><td><div>::ffff:127.0.0.1</div></td></tr><tr><td><div>::1</div></td></tr><tr><td><div>151.80.57.169</div></td></tr><tr><td><div>vps433020.ovh.net</div></td></tr><tr><td><div>127.0.1.1</div></td></tr><tr><td><div>admin.obsas.orvdev.fr</div></td></tr><tr><td><div>127.0.0.1</div></td></tr></table></div></td></tr><tr><td style="font-weight:bold;vertical-align:top;">web2py_version</td><td style="vertical-align:top;">:</td><td><div>2.15.1-stable+timestamp.2017.07.10.21.25.06</div></td></tr></table></div></td></tr><tr><td style="font-weight:bold;vertical-align:top;">is_https</td><td style="vertical-align:top;">:</td><td><div>True</div></td></tr><tr><td style="font-weight:bold;vertical-align:top;">is_local</td><td style="vertical-align:top;">:</td><td><div>False</div></td></tr><tr><td style="font-weight:bold;vertical-align:top;">is_restful</td><td style="vertical-align:top;">:</td><td><div>False</div></td></tr><tr><td style="font-weight:bold;vertical-align:top;">is_scheduler</td><td style="vertical-align:top;">:</td><td><div>False</div></td></tr><tr><td style="font-weight:bold;vertical-align:top;">is_shell</td><td style="vertical-align:top;">:</td><td><div>False</div></td></tr><tr><td style="font-weight:bold;vertical-align:top;">now</td><td style="vertical-align:top;">:</td><td><div>datetime.datetime(2017, 9, 19, 22, 48, 7, 406030)</div></td></tr><tr><td style="font-weight:bold;vertical-align:top;">url</td><td style="vertical-align:top;">:</td><td><div>/oadev/depute</div></td></tr><tr><td style="font-weight:bold;vertical-align:top;">utcnow</td><td style="vertical-align:top;">:</td><td><div>datetime.datetime(2017, 9, 19, 20, 48, 7, 406062)</div></td></tr><tr><td style="font-weight:bold;vertical-align:top;">wsgi</td><td style="vertical-align:top;">:</td><td><div>&lt;gluon.main.LazyWSGI object at 0x7f39992bd890&gt;</div></td></tr></table></div>'
tRp60
sS'frames'
p61
(lp62
(dp63
S'file'
p64
S'/home/www-data/web2py/gluon/restricted.py'
p65
sS'dump'
p66
(dp67
S'environment'
p68
S"{'A': <class 'gluon.html.A'>, 'ANY_OF': <class 'gluon.validators.ANY_OF'>, 'ASSIGNJS': <function ASSIGNJS>, 'AppCache': <class __restricted__.AppCache>, 'AppConfig': <function AppConfig>, 'Auth': <class 'gluon.tools.Auth'>, 'B': <class 'gluon.html.B'>, 'BEAUTIFY': <class 'gluon.html.BEAUTIFY'>, 'BODY': <class 'gluon.html.BODY'>, 'BR': <class 'gluon.html.BR'>, ...}"
p69
sS'ccode'
p70
S'\'response.write(\\\'<!DOCTYPE html>\\\\n<html lang="fr"...ponse.write(\\\'\\\\n</body>\\\\n</html>\\\\n\\\', escape=False)\''
p71
ssS'lnum'
p72
I219
sS'lines'
p73
(dp74
I214
S'    if environment is None:'
p75
sI215
S'        environment = {}'
p76
sI216
S"    environment['__file__'] = layer"
p77
sI217
S"    environment['__name__'] = '__restricted__'"
p78
sI218
S'    try:'
p79
sI219
S'        exec(ccode, environment)'
p80
sI220
S'    except HTTP:'
p81
sI221
S'        raise'
p82
sI222
S'    except RestrictedError:'
p83
sI223
S'        # do not encapsulate (obfuscate) the original RestrictedError'
p84
ssS'call'
p85
S'(ccode=\'response.write(\\\'<!DOCTYPE html>\\\\n<html lang="fr"...ponse.write(\\\'\\\\n</body>\\\\n</html>\\\\n\\\', escape=False)\', environment={\'A\': <class \'gluon.html.A\'>, \'ANY_OF\': <class \'gluon.validators.ANY_OF\'>, \'ASSIGNJS\': <function ASSIGNJS>, \'AppCache\': <class __restricted__.AppCache>, \'AppConfig\': <function AppConfig>, \'Auth\': <class \'gluon.tools.Auth\'>, \'B\': <class \'gluon.html.B\'>, \'BEAUTIFY\': <class \'gluon.html.BEAUTIFY\'>, \'BODY\': <class \'gluon.html.BODY\'>, \'BR\': <class \'gluon.html.BR\'>, ...}, layer=\'/home/www-data/web2py/applications/oadev/views/depute/index.html\')'
p86
sS'func'
p87
S'restricted'
p88
sa(dp89
g64
S'/home/www-data/web2py/<string>'
p90
sg66
(dp91
sg72
I170
sg73
(dp92
sg85
S'()'
p93
sg87
S'<module>'
p94
sasS'pyver'
p95
S'Python 2.7.12: /home/www-data/web2py/applications/obsas_dev/.pyenv/bin/python (prefix: /home/www-data/web2py/applications/obsas_dev/.pyenv)'
p96
sS'session'
p97
g59
(S's\x1a\x00\x00\x00<div><table></table></div>'
tRp98
sS'etype'
p99
S"<type 'exceptions.AttributeError'>"
p100
sS'date'
p101
S'Tue Sep 19 22:48:08 2017'
p102
sS'response'
p103
g59
(S's\x16>\x00\x00<div><table><tr><td style="font-weight:bold;vertical-align:top;">body</td><td style="vertical-align:top;">:</td><td><div>&lt;cStringIO.StringO object at 0x7f399a2fd8f0&gt;</div></td></tr><tr><td style="font-weight:bold;vertical-align:top;">cookies</td><td style="vertical-align:top;">:</td><td><div><table><tr><td style="font-weight:bold;vertical-align:top;">session_id_oadev</td><td style="vertical-align:top;">:</td><td><div>83.203.225.71-af73ca63-0d23-43af-8717-1e77689e782f<table><tr><td style="font-weight:bold;vertical-align:top;">comment</td><td style="vertical-align:top;">:</td><td><div></div></td></tr><tr><td style="font-weight:bold;vertical-align:top;">domain</td><td style="vertical-align:top;">:</td><td><div></div></td></tr><tr><td style="font-weight:bold;vertical-align:top;">expires</td><td style="vertical-align:top;">:</td><td><div></div></td></tr><tr><td style="font-weight:bold;vertical-align:top;">httponly</td><td style="vertical-align:top;">:</td><td><div></div></td></tr><tr><td style="font-weight:bold;vertical-align:top;">max-age</td><td style="vertical-align:top;">:</td><td><div></div></td></tr><tr><td style="font-weight:bold;vertical-align:top;">path</td><td style="vertical-align:top;">:</td><td><div>/</div></td></tr><tr><td style="font-weight:bold;vertical-align:top;">secure</td><td style="vertical-align:top;">:</td><td><div></div></td></tr><tr><td style="font-weight:bold;vertical-align:top;">version</td><td style="vertical-align:top;">:</td><td><div></div></td></tr></table></div></td></tr></table></div></td></tr><tr><td style="font-weight:bold;vertical-align:top;">delimiters</td><td style="vertical-align:top;">:</td><td><div><table><tr><td><div>{{</div></td></tr><tr><td><div>}}</div></td></tr></table></div></td></tr><tr><td style="font-weight:bold;vertical-align:top;">files</td><td style="vertical-align:top;">:</td><td><div><table></table></div></td></tr><tr><td style="font-weight:bold;vertical-align:top;">flash</td><td style="vertical-align:top;">:</td><td><div></div></td></tr><tr><td style="font-weight:bold;vertical-align:top;">form_label_separator</td><td style="vertical-align:top;">:</td><td><div></div></td></tr><tr><td style="font-weight:bold;vertical-align:top;">formstyle</td><td style="vertical-align:top;">:</td><td><div>bootstrap3_inline</div></td></tr><tr><td style="font-weight:bold;vertical-align:top;">generic_patterns</td><td style="vertical-align:top;">:</td><td><div><table><tr><td><div>*.json</div></td></tr></table></div></td></tr><tr><td style="font-weight:bold;vertical-align:top;">google_analytics_id</td><td style="vertical-align:top;">:</td><td><div>None</div></td></tr><tr><td style="font-weight:bold;vertical-align:top;">headers</td><td style="vertical-align:top;">:</td><td><div><table><tr><td style="font-weight:bold;vertical-align:top;">X-Powered-By</td><td style="vertical-align:top;">:</td><td><div>web2py</div></td></tr></table></div></td></tr><tr><td style="font-weight:bold;vertical-align:top;">logo</td><td style="vertical-align:top;">:</td><td><div><a class="navbar-brand" href="http://www.web2py.com/" id="web2py-logo"><b>web<span>2</span>py</b>&trade;&nbsp;</a></div></td></tr><tr><td style="font-weight:bold;vertical-align:top;">menu</td><td style="vertical-align:top;">:</td><td><div><table><tr><td><div><table><tr><td><div>Accueil</div></td></tr><tr><td><div>False</div></td></tr><tr><td><div>/oadev</div></td></tr><tr><td><div><table></table></div></td></tr></table></div></td></tr><tr><td><div><table><tr><td><div>Mes sites</div></td></tr><tr><td><div>False</div></td></tr><tr><td><div>/admin/site</div></td></tr></table></div></td></tr><tr><td><div><table><tr><td><div>Cette Appli</div></td></tr><tr><td><div>False</div></td></tr><tr><td><div>#</div></td></tr><tr><td><div><table><tr><td><div><table><tr><td><div>Design</div></td></tr><tr><td><div>False</div></td></tr><tr><td><div>/admin/design/oadev</div></td></tr></table></div></td></tr><tr><td><div><li class="divider"></li></div></td></tr><tr><td><div><table><tr><td><div>Contr\xc3\xb4leur</div></td></tr><tr><td><div>False</div></td></tr><tr><td><div>/admin/edit/oadev/controllers/depute.py</div></td></tr></table></div></td></tr><tr><td><div><table><tr><td><div>Pr\xc3\xa9sentation</div></td></tr><tr><td><div>False</div></td></tr><tr><td><div>/admin/edit/oadev/views/depute/index.html</div></td></tr></table></div></td></tr><tr><td><div><table><tr><td><div>Mod\xc3\xa8le BD</div></td></tr><tr><td><div>False</div></td></tr><tr><td><div>/admin/edit/oadev/models/db.py</div></td></tr></table></div></td></tr><tr><td><div><table><tr><td><div>Menu mod\xc3\xa8le</div></td></tr><tr><td><div>False</div></td></tr><tr><td><div>/admin/edit/oadev/models/menu.py</div></td></tr></table></div></td></tr><tr><td><div><table><tr><td><div>Config.ini</div></td></tr><tr><td><div>False</div></td></tr><tr><td><div>/admin/edit/oadev/private/appconfig.ini</div></td></tr></table></div></td></tr><tr><td><div><table><tr><td><div>Mise en page</div></td></tr><tr><td><div>False</div></td></tr><tr><td><div>/admin/edit/oadev/views/layout.html</div></td></tr></table></div></td></tr><tr><td><div><table><tr><td><div>Feuille de style</div></td></tr><tr><td><div>False</div></td></tr><tr><td><div>/admin/edit/oadev/static/css/web2py-bootstrap3.css</div></td></tr></table></div></td></tr><tr><td><div><table><tr><td><div>base de donn\xc3\xa9es</div></td></tr><tr><td><div>False</div></td></tr><tr><td><div>/oadev/appadmin</div></td></tr></table></div></td></tr><tr><td><div><table><tr><td><div>Erreurs</div></td></tr><tr><td><div>False</div></td></tr><tr><td><div>/admin/errors/oadev</div></td></tr></table></div></td></tr><tr><td><div><table><tr><td><div>\xc3\x80 propos</div></td></tr><tr><td><div>False</div></td></tr><tr><td><div>/admin/about/oadev</div></td></tr></table></div></td></tr></table></div></td></tr></table></div></td></tr><tr><td><div><table><tr><td><div>web2py.com</div></td></tr><tr><td><div>False</div></td></tr><tr><td><div>#</div></td></tr><tr><td><div><table><tr><td><div><table><tr><td><div>T\xc3\xa9l\xc3\xa9chargement</div></td></tr><tr><td><div>False</div></td></tr><tr><td><div>http://www.web2py.com/examples/default/download</div></td></tr></table></div></td></tr><tr><td><div><table><tr><td><div>Soutien</div></td></tr><tr><td><div>False</div></td></tr><tr><td><div>http://www.web2py.com/examples/default/support</div></td></tr></table></div></td></tr><tr><td><div><table><tr><td><div>D\xc3\xa9mo</div></td></tr><tr><td><div>False</div></td></tr><tr><td><div>http://web2py.com/demo_admin</div></td></tr></table></div></td></tr><tr><td><div><table><tr><td><div>Exemples Rapides</div></td></tr><tr><td><div>False</div></td></tr><tr><td><div>http://web2py.com/examples/default/examples</div></td></tr></table></div></td></tr><tr><td><div><table><tr><td><div>FAQ</div></td></tr><tr><td><div>False</div></td></tr><tr><td><div>http://web2py.com/AlterEgo</div></td></tr></table></div></td></tr><tr><td><div><table><tr><td><div>Vid\xc3\xa9os</div></td></tr><tr><td><div>False</div></td></tr><tr><td><div>http://www.web2py.com/examples/default/videos/</div></td></tr></table></div></td></tr><tr><td><div><table><tr><td><div>Applications gratuites</div></td></tr><tr><td><div>False</div></td></tr><tr><td><div>http://web2py.com/appliances</div></td></tr></table></div></td></tr><tr><td><div><table><tr><td><div>Plugiciels</div></td></tr><tr><td><div>False</div></td></tr><tr><td><div>http://web2py.com/plugins</div></td></tr></table></div></td></tr><tr><td><div><table><tr><td><div>Recettes</div></td></tr><tr><td><div>False</div></td></tr><tr><td><div>http://web2pyslices.com/</div></td></tr></table></div></td></tr></table></div></td></tr></table></div></td></tr><tr><td><div><table><tr><td><div>Documentation</div></td></tr><tr><td><div>False</div></td></tr><tr><td><div>#</div></td></tr><tr><td><div><table><tr><td><div><table><tr><td><div>Online book</div></td></tr><tr><td><div>False</div></td></tr><tr><td><div>http://www.web2py.com/book</div></td></tr></table></div></td></tr><tr><td><div><li class="divider"></li></div></td></tr><tr><td><div><table><tr><td><div>Pr\xc3\xa9face</div></td></tr><tr><td><div>False</div></td></tr><tr><td><div>http://www.web2py.com/book/default/chapter/00</div></td></tr></table></div></td></tr><tr><td><div><table><tr><td><div>Pr\xc3\xa9sentation</div></td></tr><tr><td><div>False</div></td></tr><tr><td><div>http://www.web2py.com/book/default/chapter/01</div></td></tr></table></div></td></tr><tr><td><div><table><tr><td><div>Python</div></td></tr><tr><td><div>False</div></td></tr><tr><td><div>http://www.web2py.com/book/default/chapter/02</div></td></tr></table></div></td></tr><tr><td><div><table><tr><td><div>Pr\xc3\xa9sentation</div></td></tr><tr><td><div>False</div></td></tr><tr><td><div>http://www.web2py.com/book/default/chapter/03</div></td></tr></table></div></td></tr><tr><td><div><table><tr><td><div>Le noyau</div></td></tr><tr><td><div>False</div></td></tr><tr><td><div>http://www.web2py.com/book/default/chapter/04</div></td></tr></table></div></td></tr><tr><td><div><table><tr><td><div>Les Vues</div></td></tr><tr><td><div>False</div></td></tr><tr><td><div>http://www.web2py.com/book/default/chapter/05</div></td></tr></table></div></td></tr><tr><td><div><table><tr><td><div>base de donn\xc3\xa9es</div></td></tr><tr><td><div>False</div></td></tr><tr><td><div>http://www.web2py.com/book/default/chapter/06</div></td></tr></table></div></td></tr><tr><td><div><table><tr><td><div>Formulaires et Validateurs</div></td></tr><tr><td><div>False</div></td></tr><tr><td><div>http://www.web2py.com/book/default/chapter/07</div></td></tr></table></div></td></tr><tr><td><div><table><tr><td><div>Courriel et texto</div></td></tr><tr><td><div>False</div></td></tr><tr><td><div>http://www.web2py.com/book/default/chapter/08</div></td></tr></table></div></td></tr><tr><td><div><table><tr><td><div>Contr\xc3\xb4le d\'acc\xc3\xa8s</div></td></tr><tr><td><div>False</div></td></tr><tr><td><div>http://www.web2py.com/book/default/chapter/09</div></td></tr></table></div></td></tr><tr><td><div><table><tr><td><div>Services</div></td></tr><tr><td><div>False</div></td></tr><tr><td><div>http://www.web2py.com/book/default/chapter/10</div></td></tr></table></div></td></tr><tr><td><div><table><tr><td><div>Recettes Ajax</div></td></tr><tr><td><div>False</div></td></tr><tr><td><div>http://www.web2py.com/book/default/chapter/11</div></td></tr></table></div></td></tr><tr><td><div><table><tr><td><div>Composants et Plugiciels</div></td></tr><tr><td><div>False</div></td></tr><tr><td><div>http://www.web2py.com/book/default/chapter/12</div></td></tr></table></div></td></tr><tr><td><div><table><tr><td><div>Recettes de d\xc3\xa9ploiement</div></td></tr><tr><td><div>False</div></td></tr><tr><td><div>http://www.web2py.com/book/default/chapter/13</div></td></tr></table></div></td></tr><tr><td><div><table><tr><td><div>Autres recettes</div></td></tr><tr><td><div>False</div></td></tr><tr><td><div>http://www.web2py.com/book/default/chapter/14</div></td></tr></table></div></td></tr><tr><td><div><table><tr><td><div>Aider web2py</div></td></tr><tr><td><div>False</div></td></tr><tr><td><div>http://www.web2py.com/book/default/chapter/15</div></td></tr></table></div></td></tr><tr><td><div><table><tr><td><div>Buy web2py\'s book</div></td></tr><tr><td><div>False</div></td></tr><tr><td><div>http://stores.lulu.com/web2py</div></td></tr></table></div></td></tr></table></div></td></tr></table></div></td></tr><tr><td><div><table><tr><td><div>Communaut\xc3\xa9</div></td></tr><tr><td><div>False</div></td></tr><tr><td><div>None</div></td></tr><tr><td><div><table><tr><td><div><table><tr><td><div>Groupes</div></td></tr><tr><td><div>False</div></td></tr><tr><td><div>http://www.web2py.com/examples/default/usergroups</div></td></tr></table></div></td></tr><tr><td><div><table><tr><td><div>Twitter</div></td></tr><tr><td><div>False</div></td></tr><tr><td><div>http://twitter.com/web2py</div></td></tr></table></div></td></tr><tr><td><div><table><tr><td><div>Clavardage en direct</div></td></tr><tr><td><div>False</div></td></tr><tr><td><div>http://webchat.freenode.net/?channels=web2py</div></td></tr></table></div></td></tr></table></div></td></tr></table></div></td></tr></table></div></td></tr><tr><td style="font-weight:bold;vertical-align:top;">meta</td><td style="vertical-align:top;">:</td><td><div><table><tr><td style="font-weight:bold;vertical-align:top;">author</td><td style="vertical-align:top;">:</td><td><div>Your Name &lt;you@example.com&gt;</div></td></tr><tr><td style="font-weight:bold;vertical-align:top;">description</td><td style="vertical-align:top;">:</td><td><div>a cool new app</div></td></tr><tr><td style="font-weight:bold;vertical-align:top;">generator</td><td style="vertical-align:top;">:</td><td><div>Web2py Web Framework</div></td></tr><tr><td style="font-weight:bold;vertical-align:top;">keywords</td><td style="vertical-align:top;">:</td><td><div><table><tr><td><div>web2py</div></td></tr><tr><td><div>python</div></td></tr><tr><td><div>framework</div></td></tr></table></div></td></tr></table></div></td></tr><tr><td style="font-weight:bold;vertical-align:top;">models_to_run</td><td style="vertical-align:top;">:</td><td><div><table><tr><td><div>^\\w+\\.py$</div></td></tr><tr><td><div>^depute/\\w+\\.py$</div></td></tr><tr><td><div>^depute/index/\\w+\\.py$</div></td></tr></table></div></td></tr><tr><td style="font-weight:bold;vertical-align:top;">postprocessing</td><td style="vertical-align:top;">:</td><td><div><table></table></div></td></tr><tr><td style="font-weight:bold;vertical-align:top;">session_client</td><td style="vertical-align:top;">:</td><td><div>83.203.225.71</div></td></tr><tr><td style="font-weight:bold;vertical-align:top;">session_cookie_compression_level</td><td style="vertical-align:top;">:</td><td><div>None</div></td></tr><tr><td style="font-weight:bold;vertical-align:top;">session_cookie_expires</td><td style="vertical-align:top;">:</td><td><div>None</div></td></tr><tr><td style="font-weight:bold;vertical-align:top;">session_data_name</td><td style="vertical-align:top;">:</td><td><div>session_data_oadev</div></td></tr><tr><td style="font-weight:bold;vertical-align:top;">session_file</td><td style="vertical-align:top;">:</td><td><div>None</div></td></tr><tr><td style="font-weight:bold;vertical-align:top;">session_filename</td><td style="vertical-align:top;">:</td><td><div>/home/www-data/web2py/applications/oadev/sessions/83.203.225.71-af73ca63-0d23-43af-8717-1e77689e782f</div></td></tr><tr><td style="font-weight:bold;vertical-align:top;">session_hash</td><td style="vertical-align:top;">:</td><td><div>c0762cbf4baf7f9af97c051e7fcb8083</div></td></tr><tr><td style="font-weight:bold;vertical-align:top;">session_id</td><td style="vertical-align:top;">:</td><td><div>83.203.225.71-af73ca63-0d23-43af-8717-1e77689e782f</div></td></tr><tr><td style="font-weight:bold;vertical-align:top;">session_id_name</td><td style="vertical-align:top;">:</td><td><div>session_id_oadev</div></td></tr><tr><td style="font-weight:bold;vertical-align:top;">session_masterapp</td><td style="vertical-align:top;">:</td><td><div>oadev</div></td></tr><tr><td style="font-weight:bold;vertical-align:top;">session_new</td><td style="vertical-align:top;">:</td><td><div>True</div></td></tr><tr><td style="font-weight:bold;vertical-align:top;">session_storage_type</td><td style="vertical-align:top;">:</td><td><div>file</div></td></tr><tr><td style="font-weight:bold;vertical-align:top;">status</td><td style="vertical-align:top;">:</td><td><div>200</div></td></tr><tr><td style="font-weight:bold;vertical-align:top;">subtitle</td><td style="vertical-align:top;">:</td><td><div></div></td></tr><tr><td style="font-weight:bold;vertical-align:top;">title</td><td style="vertical-align:top;">:</td><td><div>Oadev</div></td></tr><tr><td style="font-weight:bold;vertical-align:top;">view</td><td style="vertical-align:top;">:</td><td><div>depute/index.html</div></td></tr></table></div>'
tRp104
sS'locals'
p105
(dp106
S'Service'
p107
S"<class 'gluon.tools.Service'>"
p108
sS'PY2'
p109
S'True'
p110
sS'OBJECT'
p111
S"<class 'gluon.html.OBJECT'>"
p112
sS'SQLDB'
p113
S"<class 'pydal.base.DAL'>"
p114
sS'colors'
p115
S"{'FI': 'rgba(12,195,214,1)', 'GDR': 'rgba(192,0,0,1)', 'LC': 'rgba(112,48,160,1)', 'LR': 'rgba(47,85,151,1)', 'MODEM': 'rgba(237,125,49,1)', 'NG': 'rgba(234,52,208,1)', 'NI': 'rgba(191,191,191,1)', 'REM': 'rgba(255,192,0,1)'}"
p116
sg97
S'<Storage {}>'
p117
sS'LINK'
p118
S"<class 'gluon.html.LINK'>"
p119
sS'BR'
p120
S"<class 'gluon.html.BR'>"
p121
sS'local_import'
p122
S'<function <lambda>>'
p123
sVdepute_suppleant
p124
S"u'Mme Corinne Benabdallah'"
p125
sVdepute_dateelec
p126
S"u'18/06/2017'"
p127
sS'__package__'
p128
S'None'
p129
sS'PRE'
p130
S"<class 'gluon.html.PRE'>"
p131
sS'IS_INT_IN_RANGE'
p132
S"<class 'gluon.validators.IS_INT_IN_RANGE'>"
p133
sS'to_bytes'
p134
S'<function to_bytes>'
p135
sS'IS_LOWER'
p136
S"<class 'gluon.validators.IS_LOWER'>"
p137
sS'IS_STRONG'
p138
S"<class 'gluon.validators.IS_STRONG'>"
p139
sS'cache'
p140
S'<gluon.cache.Cache object>'
p141
sS'vide'
p142
S'<function vide>'
p143
sS'IS_IN_DB'
p144
S"<class 'gluon.validators.IS_IN_DB'>"
p145
sS'TAG'
p146
S'<gluon.html.__TAG__ object>'
p147
sVdeputes_nuages
p148
g19
sS'CRYPT'
p149
S"<class 'gluon.validators.CRYPT'>"
p150
sS'SQLField'
p151
S"<class 'pydal.objects.Field'>"
p152
sS'mail'
p153
S'<gluon.tools.Mail object>'
p154
sS'_c'
p155
S"{u'_id': ObjectId('59b9502b6d8669a2045562b2'), u'carte': u'france', u'd': u'm 641.02844,307.45655 0.0556,-1.28078 0.89898,....90479,-0.73802 1.22395,0.0888 -0.46804,-1.645 z', u'dep': u'094', u'desc': u'Cantons de : Choisy-le-Roi, Cr\\xe9teil Ouest, Cr\\xe9teil Sud, Orly', u'h': u'10.099029541015625', u'id': u'094-02', u'paris': True, u'title': u'Deuxi\\xe8me circonscription du Val-de-Marne', u'ville': False, ...}"
p156
sS'BODY'
p157
S"<class 'gluon.html.BODY'>"
p158
sS'IS_DATE_IN_RANGE'
p159
S"<class 'gluon.validators.IS_DATE_IN_RANGE'>"
p160
sVdepute_circo
p161
S"u'7'"
p162
sS'IFRAME'
p163
S"<class 'gluon.html.IFRAME'>"
p164
sS'URL'
p165
S'<function URL>'
p166
sS'__file__'
p167
S"'/home/www-data/web2py/applications/oadev/views/svg/gauge.svg'"
p168
sS'db'
p169
S'<DAL uri="sqlite://storage.sqlite">'
p170
sS'hashlib'
p171
S"<module 'hashlib' from '/usr/lib/python2.7/hashlib.pyc'>"
p172
sS'auth'
p173
S'<gluon.tools.Auth object>'
p174
sS'nuages_excl'
p175
S"('ministre', 'monsieur', u'coll\\xe8gue', 'madame', 'premier', 'cher', 'effet', 'commission', 'parlementaire', u'd\\xe9put\\xe9', 'deux', 'amendement', 'sujet', 'texte', 'an', 'fois', 'lieu', 'trois', 'mois', 'rapporteur', ...)"
p176
sVdepute_departement_id
p177
S"u'093'"
p178
sS'P'
S"<class 'gluon.html.P'>"
p179
sS'TFOOT'
p180
S"<class 'gluon.html.TFOOT'>"
p181
sS'iteritems'
p182
S'<function <lambda>>'
p183
sVdepute_contacts
p184
S"[{u'lien': u'mailto:alexis.corbiere@assemblee-nationale.fr', u'type': u'mail'}, {u'lien': u'http://www.alexis-corbiere.com', u'type': u'site'}, {u'lien': u'https://fr-fr.facebook.com/Alexiscorbiere/', u'type': u'facebook'}, {u'lien': u'https://twitter.com/@alexiscorbiere/', u'type': u'twitter'}]"
p185
sS'XHTML'
p186
S"<class 'gluon.html.XHTML'>"
p187
sS'datetime'
p188
S"<module 'datetime' (built-in)>"
p189
sS'ON'
p190
g110
sS'THEAD'
p191
S"<class 'gluon.html.THEAD'>"
p192
sS'OL'
p193
S"<class 'gluon.html.OL'>"
p194
sVgroupe_qualite
p195
S"u'membre'"
p196
sS'TEXTAREA'
p197
S"<class 'gluon.html.TEXTAREA'>"
p198
sS'MENU'
p199
S"<class 'gluon.html.MENU'>"
p200
sS'AppCache'
p201
S'<class __restricted__.AppCache>'
p202
sS'IS_IPADDRESS'
p203
S"<class 'gluon.validators.IS_IPADDRESS'>"
p204
sS'IS_IMAGE'
p205
S"<class 'gluon.validators.IS_IMAGE'>"
p206
sS'EM'
p207
S"<class 'gluon.html.EM'>"
p208
sS'CODE'
p209
S"<class 'gluon.html.CODE'>"
p210
sS'HTTP'
p211
S"<class 'gluon.http.HTTP'>"
p212
sS'locale'
p213
S"<module 'locale' from '/home/www-data/web2py/app...tions/obsas_dev/.pyenv/lib/python2.7/locale.pyc'>"
p214
sS'IS_DATETIME'
p215
S"<class 'gluon.validators.IS_DATETIME'>"
p216
sS'reduce'
p217
S'<built-in function reduce>'
p218
sS'STYLE'
p219
S"<class 'gluon.html.STYLE'>"
p220
sS'tinyurl'
p221
S'<__restricted__.TinyURL instance>'
p222
sS'LABEL'
p223
S"<class 'gluon.html.LABEL'>"
p224
sS'OPTGROUP'
p225
S"<class 'gluon.html.OPTGROUP'>"
p226
sS'CLEANUP'
p227
S"<class 'gluon.validators.CLEANUP'>"
p228
sS'departements_ids'
p229
S"{u'Ain': '001', u'Aisne': '002', u'Allier': '003', u'Alpes-Maritimes': '006', u'Alpes-de-Haute-Provence': '004', u'Ardennes': '008', u'Ard\\xe8che': '007', u'Ari\\xe8ge': '009', u'Aube': '010', u'Aude': '011', ...}"
p230
sS'svgcirco'
p231
S'<function svgcirco>'
p232
sS'plugins'
p233
S'<gluon.tools.PluginManager object>'
p234
sS'SELECT'
p235
S"<class 'gluon.html.SELECT'>"
p236
sVstats
p237
S"{u'compat': {u'FI': 100.0, u'GDR': 89.552, u'LC': 16.418, u'LR': 14.925, u'MODEM': 7.463, u'NG': 64.179, u'NI': 47.761, u'REM': 1.493}, u'compat_sort': [{u'g': u'FI', u'p': 100.0}, {u'g': u'GDR', u'p': 89.552}, {u'g': u'NG', u'p': 64.179}, {u'g': u'NI', u'p': 47.761}, {u'g': u'LC', u'p': 16.418}, {u'g': u'LR', u'p': 14.925}, {u'g': u'MODEM', u'p': 7.463}, {u'g': u'REM', u'p': 1.493}], u'nbitvs': 275, u'nbmots': 13943, u'positions': {u'absent': 43.697, u'abstention': 9.244, u'contre': 7.563, u'dissidence': 0.0, u'exprimes': 56.303, u'pour': 39.496}, u'ranks': {u'absent': 481, u'abstention': 11, u'compatFI': 16, u'compatGDR': 23, u'compatLC': 563, u'compatLR': 567, u'compatMODEM': 549, u'compatNG': 77, u'compatNI': 135, u'compatREM': 560, ...}}"
p238
sS'CENTER'
p239
S"<class 'gluon.html.CENTER'>"
p240
sS'axes'
p241
S'{\'ages\': {\'elements\': \'G\', \'libelle\': "Classes d\'age", \'source\': {\'filtre\': {}, \'key\': \'classeage\', \'label\': \'classeage\', \'nom\': \'acteurs\'}, \'titre\': "Votes par classe d\'age", \'tri_defaut\': (\'alpha\', False), \'votes\': {\'field\': \'classeage\'}}, \'assemblee\': {\'elements\': \'G\', \'hidechart\': False, \'libelle\': \'Assembl\\xc3\\xa9e\', \'source\': {\'filtre\': {\'actif\': True, \'codeType\': \'ASSEMBLEE\'}, \'key\': \'libelleAbrev\', \'label\': \'libelle\', \'nom\': \'organes\'}, \'titre\': "Votes de l\'Assembl\\xc3\\xa9e", \'tri_defaut\': (\'alpha\', False), \'votes\': {\'field\': \'organes\'}}, \'commissions\': {\'elements\': \'G\', \'libelle\': \'Commissions\', \'source\': {\'filtre\': {\'$and\': [{\'$or\': [...]}, {\'actif\': True}]}, \'key\': \'uid\', \'label\': \'libelle\', \'nom\': \'organes\'}, \'titre\': \'Votes par Commissions\', \'tri_defaut\': (\'alpha\', False), \'votes\': {\'field\': \'commissions\'}}, \'csp\': {\'elements\': \'G\', \'libelle\': \'Cat\\xc3\\xa9gorie Socio-professionnelle\', \'source\': {\'filtre\': {}, \'key\': \'csp\', \'label\': \'csp\', \'nom\': \'acteurs\'}, \'titre\': \'Votes par Cat\\xc3\\xa9gorie Socio-professionnelle\', \'tri_defaut\': (\'alpha\', False), \'votes\': {\'field\': \'csp\'}}, \'departements\': {\'elements\': \'G\', \'libelle\': \'D\\xc3\\xa9partements\', \'source\': {\'filtre\': {}, \'key\': \'departement\', \'label\': \'departement\', \'nom\': \'acteurs\'}, \'titre\': \'Votes par D\\xc3\\xa9partements\', \'tri_defaut\': (\'alpha\', False), \'votes\': {\'field\': \'departement\'}}, \'depute\': {\'elements\': \'P\', \'libelle\': \'D\\xc3\\xa9put\\xc3\\xa9s\', \'source\': {\'filtre\': {}, \'key\': \'uid\', \'label\': \'prenomnom\', \'nom\': \'acteurs\'}, \'titre\': \'Votes par d\\xc3\\xa9put\\xc3\\xa9\', \'tri_defaut\': (\'alphanom\', False), \'votes\': {\'field\': \'uid\'}}, \'dossierleg\': {\'elements\': \'G\', \'libelle\': \'Dossier l\\xc3\\xa9gislatif\', \'source\': {\'filtre\': {}, \'key\': \'scrutin_dossier\', \'label\': \'scrutin_dossierLibelle\', \'nom\': \'scrutins\'}, \'titre\': \'Votes par dossier l\\xc3\\xa9gislatif\', \'tri_defaut\': (\'alpha\', False), \'votes\': {\'field\': \'scrutin_dossier\'}}, \'groupes\': {\'elements\': \'G\', \'hidechart\': False, \'libelle\': \'Groupes\', \'source\': {\'filtre\': {\'actif\': True, \'codeType\': \'GP\'}, \'key\': \'uid\', \'label\': \'libelle\', \'nom\': \'organes\'}, \'titre\': \'Votes par Groupe parlementaire\', \'tri_defaut\': (\'alpha\', False), \'votes\': {\'field\': \'groupe\'}}, \'regions\': {\'elements\': \'G\', \'libelle\': \'R\\xc3\\xa9gions\', \'source\': {\'filtre\': {}, \'key\': \'region\', \'label\': \'region\', \'nom\': \'acteurs\'}, \'titre\': \'Votes par R\\xc3\\xa9gions\', \'tri_defaut\': (\'alpha\', False), \'votes\': {\'field\': \'region\'}}, \'scrutin\': {\'elements\': \'G\', \'libelle\': \'Scrutins\', \'source\': {\'filtre\': {}, \'key\': \'scrutin_id\', \'label\': \'scrutin_fulldesc\', \'nom\': \'scrutins\'}, \'titre\': \'Votes par scrutin\', \'tri_defaut\': (\'datescrutin\', True), \'tris\': [\'datescrutin\'], \'votes\': {\'field\': \'scrutin_id\'}}, ...}'
p242
sS'Auth'
p243
S"<class 'gluon.tools.Auth'>"
p244
sS'DEVELOPMENT_MENU'
p245
g110
sS'__builtins__'
p246
S"{'ArithmeticError': <type 'exceptions.ArithmeticError'>, 'AssertionError': <type 'exceptions.AssertionError'>, 'AttributeError': <type 'exceptions.AttributeError'>, 'BaseException': <type 'exceptions.BaseException'>, 'BufferError': <type 'exceptions.BufferError'>, 'BytesWarning': <type 'exceptions.BytesWarning'>, 'DeprecationWarning': <type 'exceptions.DeprecationWarning'>, 'EOFError': <type 'exceptions.EOFError'>, 'Ellipsis': Ellipsis, 'EnvironmentError': <type 'exceptions.EnvironmentError'>, ...}"
p247
sS'HTML'
p248
S"<class 'gluon.html.HTML'>"
p249
sS'filtresitm_order'
p250
S"['participation', 'ficompat', 'emcompat']"
p251
sS'SQLFORM'
p252
S"<class 'gluon.sqlhtml.SQLFORM'>"
p253
sVdepute_id
p254
S"u'm.alexiscorbiere'"
p255
sS'LOAD'
p256
S'<function LOAD>'
p257
sS'redirect'
p258
S'<function redirect>'
p259
sS'FIELDSET'
p260
S"<class 'gluon.html.FIELDSET'>"
p261
sS'embed64'
p262
S'<function embed64>'
p263
sS'IS_EQUAL_TO'
p264
S"<class 'gluon.validators.IS_EQUAL_TO'>"
p265
sS'sortfcts_order'
p266
S"['participation', 'pctpour', 'pctcontre', 'pctabs', 'alpha', 'ficompat', 'emcompat']"
p267
sVdepute_age
p268
S'49'
p269
sS'filtresitm'
p270
S"{'emcompat': {'fct': <function <lambda>>, 'libelle': 'Taux de EM-compatibilit\\xc3\\xa9', 'max': 100, 'min': 0}, 'ficompat': {'fct': <function <lambda>>, 'libelle': 'Taux de FI-compatibilit\\xc3\\xa9', 'max': 100, 'min': 0}, 'participation': {'fct': <function <lambda>>, 'libelle': 'Taux de participation', 'max': 100, 'min': 0}}"
p271
sS'TinyURL'
p272
S'<class __restricted__.TinyURL>'
p273
sVdepute_compat
p274
S"{u'FI': 67, u'GDR': 60, u'LC': 11, u'LR': 10, u'MODEM': 5, u'NG': 43, u'NI': 32, u'REM': 1}"
p275
sS'IS_LIST_OF'
p276
S"<class 'gluon.validators.IS_LIST_OF'>"
p277
sS'lex'
p278
S"u'verbes'"
p279
sS'__name__'
p280
S"'__restricted__'"
p281
sS'EMBED'
p282
S"<class 'gluon.html.EMBED'>"
p283
sS'_'
S'<function _>'
p284
sVdepute_circo_id
p285
S"u'093-07'"
p286
sS'c'
S"{u'_id': ObjectId('59b9502b6d8669a204556286'), u'carte': u'france', u'd': u'm 632.51559,294.45652 -0.54915,-1.35362 0.2561...53,-0.23211 -1.03389,-0.49171 -1.64654,-0.0524 z', u'dep': u'075', u'desc': u'1er, 2e et 8e arrondissements', u'h': u'3.995513916015625', u'id': u'075-01', u'paris': True, u'title': u'Premi\\xe8re circonscription de Paris', u'ville': True, ...}"
p287
sVdepute_uid
p288
S"u'PA721210'"
p289
sS'myconf'
p290
S"{'forms': {'formstyle': 'bootstrap3_inline', 'se...': {'names': 'localhost:*, 127.0.0.1:*, *:*, *'}}"
p291
sS'IS_NOT_IN_DB'
p292
S"<class 'gluon.validators.IS_NOT_IN_DB'>"
p293
sS'H2'
p294
S"<class 'gluon.html.H2'>"
p295
sS'H3'
p296
S"<class 'gluon.html.H3'>"
p297
sS'AppConfig'
p298
S'<function AppConfig>'
p299
sS'H1'
p300
S"<class 'gluon.html.H1'>"
p301
sS'H6'
p302
S"<class 'gluon.html.H6'>"
p303
sVdepute_typeregion
p304
S"u'M\\xe9tropolitain'"
p305
sS'H4'
p306
S"<class 'gluon.html.H4'>"
p307
sS'H5'
p308
S"<class 'gluon.html.H5'>"
p309
sS'UL'
p310
S"<class 'gluon.html.UL'>"
p311
sS'IS_UPPER'
p312
S"<class 'gluon.validators.IS_UPPER'>"
p313
sVdepute_autresmandats
p314
S'[]'
p315
sS'xmlescape'
p316
S'<function xmlescape>'
p317
sS'IS_TIME'
p318
S"<class 'gluon.validators.IS_TIME'>"
p319
sS'svggauge'
p320
S'<function svggauge>'
p321
sS'co'
p322
S"u'M. Thomas Mettey'"
p323
sS'OPTION'
p324
S"<class 'gluon.html.OPTION'>"
p325
sS'TITLE'
p326
S"<class 'gluon.html.TITLE'>"
p327
sS'color'
p328
S"'#82cde2'"
p329
sS'short_url'
p330
S"<module 'short_url' from '/home/www-data/web2py/.../python2.7/site-packages/short_url/__init__.pyc'>"
p331
sS'IS_EMPTY_OR'
p332
S"<class 'gluon.validators.IS_EMPTY_OR'>"
p333
sS'MARKMIN'
p334
S"<class 'gluon.html.MARKMIN'>"
p335
sVdepute_ddn
p336
S"u'17/08/1968'"
p337
sS'pct'
p338
S'1'
sS'INPUT'
p339
S"<class 'gluon.html.INPUT'>"
p340
sS'STRONG'
p341
S"<class 'gluon.html.STRONG'>"
p342
sS'COL'
p343
S"<class 'gluon.html.COL'>"
p344
sS'unit'
p345
S"'%'"
p346
sVdepute_votes
p347
S"{u'absent': 52, u'abstention': 11, u'compat': {u'FI': 84, u'GDR': 66, u'LC': 54, u'LR': 51, u'MODEM': 46, u'NG': 52, u'NI': 57, u'REM': 45, u'assemblee': 52}, u'contre': 9, u'exprimes': 67, u'pour': 47, u'total': 119, u'votants': 0}"
p348
sS'service'
p349
S'<gluon.tools.Service object>'
p350
sS'SCRIPT'
p351
S"<class 'gluon.html.SCRIPT'>"
p352
sVdepute_deputywatch
p353
S'None'
p354
sS'HR'
p355
S"<class 'gluon.html.HR'>"
p356
sVdepute_mandat_debut
p357
S"u'21/06/2017'"
p358
sVdepute_actif
p359
g110
sS'mdb'
p360
S"Database(MongoClient(host=['localhost:27017'], d...s=dict, tz_aware=False, connect=True), u'obsass')"
p361
sS'json'
p362
S"<module 'json' from '/usr/lib/python2.7/json/__init__.pyc'>"
p363
sVgroupe_abrev
p364
S"u'FI'"
p365
sVdepute_hatvp
p366
S"[{u'civilite': u'M.', u'classement': u'CORBI\\xc8RE Alexis13089', u'date_depot': u'', u'date_publication': u'', u'departement': u'93', u'docurl': u'http://www.hatvp.fr/livraison/dossiers/', u'id_origine': u'721210', u'nom': u'CORBI\\xc8RE', u'nom_fichier': u'', u'open_data': u'', ...}]"
p367
sVdepute_classeage
p368
S"u'40-50 ans'"
p369
sS'TABLE'
p370
S"<class 'gluon.html.TABLE'>"
p371
sVdepute_naissance
p372
S"u'N\\xe9\\n\\t\\t\\t le 17 ao\\xfbt 1968 \\xe0 B\\xe9ziers\\xa0(H\\xe9rault)'"
p373
sS'IS_IPV4'
p374
S"<class 'gluon.validators.IS_IPV4'>"
p375
sS'IS_LENGTH'
p376
S"<class 'gluon.validators.IS_LENGTH'>"
p377
sS'IS_IPV6'
p378
S"<class 'gluon.validators.IS_IPV6'>"
p379
sS'XML'
p380
S"<class 'gluon.html.XML'>"
p381
sVdepute_collaborateurs
p382
S"[u'Mme Delphine Vannier', u'M. Thomas Mettey']"
p383
sS'B'
S"<class 'gluon.html.B'>"
p384
sS'IMG'
p385
S"<class 'gluon.html.IMG'>"
p386
sS'SQLTABLE'
p387
S"<class 'gluon.sqlhtml.SQLTABLE'>"
p388
sVdepute_region
p389
S"u'Ile-de-France'"
p390
sS'IS_MATCH'
p391
S"<class 'gluon.validators.IS_MATCH'>"
p392
sVdepute_bureau
p393
S'None'
p394
sS'dates'
p395
S'\'[{"date": "2017-07-04", "pct": 1.0}, {"date": "2... "pct": 0.2}, {"date": "2017-08-09", "pct": 0.5}]\''
p396
sVdepute_mandats
p397
S"{u'commissions': [{u'id': u'PO59046', u'lien': u'http://www2.assemblee-nationale.fr/instances/fiche/OMC_PO59046', u'nom': u'Commission de la d\\xe9fense nationale et des forces arm\\xe9es', u'qualite': u'Membre'}], u'delegations_bureau': [], u'delegations_office': []}"
p398
sVdeputes_mots
p399
S'None'
p400
sVdepute_sexe
p401
S"u'Femme'"
p402
sVdepute_mots
p403
S"{u'noms': {u'abaissant': 1, u'abandon': 1, u'abandonn\\xe9': 1, u'abat': 1, u'aberrant': 2, u'abject': 2, u'aboli': 3, u'abolition': 3, u'abonn\\xe9': 1, u'abord': 49, ...}, u'verbes': {u'abaisser': 2, u'abandonner': 6, u'abolir': 3, u'abonder': 4, u'aborder': 28, u'aboutir': 10, u'abroger': 2, u'abstenir': 5, u'abuser': 2, u'ab\\xeemer': 2, ...}}"
p404
sS'CAT'
p405
S"<class 'gluon.html.CAT'>"
p406
sS'getVoteData_fct'
p407
S'<function getVoteData_fct>'
p408
sS'axes_order'
p409
S"['assemblee', 'groupes', 'commissions', 'typeregion', 'regions', 'departements', 'ages', 'csp', 'sexe', 'depute', 'scrutin', 'typescrutin', 'dossierleg']"
p410
sVdepute_nom_tri
p411
S"u'CORBI\\xc8RE'"
p412
sS'SPAN'
p413
S"<class 'gluon.html.SPAN'>"
p414
sS'IS_JSON'
p415
S"<class 'gluon.validators.IS_JSON'>"
p416
sS'dep'
p417
S"u'093'"
p418
sS'IS_SLUG'
p419
S"<class 'gluon.validators.IS_SLUG'>"
p420
sVdepute_departement
p421
S"u'Seine-Saint-Denis'"
p422
sVdepute_nuages
p423
S"{u'noms': [[u'loi', 322], [u'travail', 264], [u'entreprise', 200], [u'salari\\xe9', 187], [u'politique', 186], [u'\\xe9tat', 172], [u'public', 157], [u'droit', 153], [u'social', 129], [u'projet', 124], [u'd\\xe9bat', 122], [u'temps', 106], [u'confiance', 100], [u'vie', 98], [u'grand', 95], [u'r\\xe9publique', 88], [u'groupe', 87], [u'gouvernement', 85], [u'raison', 83], [u'int\\xe9r\\xeat', 83], ...], u'verbes': [[u'pouvoir', 597], [u'faire', 481], [u'falloir', 296], [u'vouloir', 281], [u'permettre', 177], [u'proposer', 174], [u'agir', 168], [u'voter', 137], [u'devoir', 129], [u'prendre', 119], [u'penser', 117], [u'aller', 116], [u'voir', 110], [u'venir', 109], [u'demander', 99], [u'mettre', 98], [u'viser', 97], [u'comprendre', 86], [u'croire', 83], [u'supprimer', 82], ...]}"
p424
sVdepute_shortid
p425
S"u'alexiscorbiere'"
p426
sS'META'
p427
S"<class 'gluon.html.META'>"
p428
sS'client'
p429
S"MongoClient(host=['localhost:27017'], document_class=dict, tz_aware=False, connect=True)"
p430
sVdepute_commissions
p431
S"[{u'id': u'PO59046', u'lien': u'http://www2.assemblee-nationale.fr/instances/fiche/OMC_PO59046', u'nom': u'Commission de la d\\xe9fense nationale et des forces arm\\xe9es', u'qualite': u'Membre'}]"
p432
sS'dec'
p433
S"{u'civilite': u'M.', u'classement': u'CORBI\\xc8RE Alexis13089', u'date_depot': u'', u'date_publication': u'', u'departement': u'93', u'docurl': u'http://www.hatvp.fr/livraison/dossiers/', u'id_origine': u'721210', u'nom': u'CORBI\\xc8RE', u'nom_fichier': u'', u'open_data': u'', ...}"
p434
sS'pickle'
p435
S"<module 'pickle' from '/usr/lib/python2.7/pickle.pyc'>"
p436
sS'BUTTON'
p437
S"<class 'gluon.html.BUTTON'>"
p438
sVdepute_mandat_fin_cause
p439
S'None'
p440
sVdepute_nom
p441
S"u'M. Alexis Corbi\\xe8re'"
p442
sS'IS_DATE'
p443
S"<class 'gluon.validators.IS_DATE'>"
p444
sS'IS_EMAIL'
p445
S"<class 'gluon.validators.IS_EMAIL'>"
p446
sS'mandats'
p447
S'[]'
p448
sS'IS_NOT_EMPTY'
p449
S"<class 'gluon.validators.IS_NOT_EMPTY'>"
p450
sS'xrange'
p451
S"<type 'xrange'>"
p452
sVgroupe_libelle
p453
S"u'La France insoumise'"
p454
sS'BEAUTIFY'
p455
S"<class 'gluon.html.BEAUTIFY'>"
p456
sS'transp'
p457
S"'0.33'"
p458
sS'TBODY'
p459
S"<class 'gluon.html.TBODY'>"
p460
sS'appcache'
p461
S'<__restricted__.AppCache instance>'
p462
sS'Field'
p463
S"<class 'pydal.objects.Field'>"
p464
sS'stroke'
p465
S"'light'"
p466
sVmots
p467
S'None'
p468
sS'circo'
p469
S"{u'_id': ObjectId('59b9502b6d8669a2045562ab'), u'carte': u'france', u'd': u'm 642.08612,293.20926 0.58302,-0.59423 0.82502...2509,0.0122 -0.0875,-0.77421 -0.17494,-2.33893 z', u'dep': u'093', u'desc': u'Cantons de : Bagnolet, Montreuil Est, Montreuil Nord, Montreuil Ouest', u'h': u'3.861785888671875', u'id': u'093-07', u'paris': True, u'title': u'Septi\\xe8me circonscription de Seine-Saint-Denis', u'ville': False, ...}"
p470
sS'IS_LIST_OF_EMAILS'
p471
S"<class 'gluon.validators.IS_LIST_OF_EMAILS'>"
p472
sg58
S"<Storage {'_vars': None, 'function': 'index', 'c...r': '/home/www-data/web2py/applications/oadev/'}>"
p473
sS'DIV'
p474
S"<class 'gluon.html.DIV'>"
p475
sS'LEGEND'
p476
S"<class 'gluon.html.LEGEND'>"
p477
sS'sortfcts'
p478
S"{'alpha': {'fct': <function <lambda>>, 'libelle': 'Ordre Alphab\\xc3\\xa9tique'}, 'alphanom': {'fct': <function <lambda>>, 'libelle': 'Ordre Alphab\\xc3\\xa9tique (nom prenom)'}, 'datescrutin': {'fct': <function <lambda>>, 'libelle': 'par N\\xc2\\xb0 de scrutin'}, 'emcompat': {'fct': <function <lambda>>, 'libelle': 'EM-Compatibilit\\xc3\\xa9'}, 'ficompat': {'fct': <function <lambda>>, 'libelle': 'FI-Compatibilit\\xc3\\xa9'}, 'participation': {'fct': <function <lambda>>, 'libelle': 'Participation'}, 'pctabs': {'fct': <function <lambda>>, 'libelle': '% Votes abstention'}, 'pctcontre': {'fct': <function <lambda>>, 'libelle': '% Votes contre'}, 'pctpour': {'fct': <function <lambda>>, 'libelle': '% Votes pour'}}"
p479
sS'strokewidth'
p480
S'5.05078125'
p481
sS'svgtop'
p482
S'<function svgtop>'
p483
sS'to_native'
p484
S'<function to_native>'
p485
sS'COLGROUP'
p486
S"<class 'gluon.html.COLGROUP'>"
p487
sS'DAL'
p488
S"<class 'pydal.base.DAL'>"
p489
sS'ASSIGNJS'
p490
S'<function ASSIGNJS>'
p491
sS'TR'
p492
S"<class 'gluon.html.TR'>"
p493
sS'LI'
p494
S"<class 'gluon.html.LI'>"
p495
sVgroupe_uid
p496
S"u'PO730958'"
p497
sS'TH'
p498
S"<class 'gluon.html.TH'>"
p499
sS'TD'
p500
S"<class 'gluon.html.TD'>"
p501
sS'PluginManager'
p502
S"<class 'gluon.tools.PluginManager'>"
p503
sS'IS_URL'
p504
S"<class 'gluon.validators.IS_URL'>"
p505
sVdepute_place
p506
S"u'603'"
p507
sS'A'
S"<class 'gluon.html.A'>"
p508
sS'HEAD'
p509
S"<class 'gluon.html.HEAD'>"
p510
sS'IS_DATETIME_IN_RANGE'
p511
S"<class 'gluon.validators.IS_DATETIME_IN_RANGE'>"
p512
sS'FORM'
p513
S"<class 'gluon.html.FORM'>"
p514
sS'I'
S"<class 'gluon.html.I'>"
p515
sS'symbol'
p516
S'<g\n     transform="translate(100,65),scale(0.14)...ill-opacity:1;stroke-width:0.97821659" />\n  </g>\n'
p517
sS'm'
S"{u'id': u'PO59046', u'lien': u'http://www2.assemblee-nationale.fr/instances/fiche/OMC_PO59046', u'nom': u'Commission de la d\\xe9fense nationale et des forces arm\\xe9es', u'qualite': u'Membre'}"
p518
sS'IS_ALPHANUMERIC'
p519
S"<class 'gluon.validators.IS_ALPHANUMERIC'>"
p520
sS'pymongo'
p521
S"<module 'pymongo' from '/home/www-data/web2py/ap...ib/python2.7/site-packages/pymongo/__init__.pyc'>"
p522
sVdepute_mandat_fin
p523
S'None'
p524
sVdepute_positions
p525
S"{u'absent': 52, u'abstention': 11, u'contre': 9, u'dissidence': 0, u'exprimes': 67, u'pour': 47, u'total': 119}"
p526
sS'typ'
p527
S"u'delegations_office'"
p528
sg103
S"<Storage {'body': <cStringIO.StringO object at 0...at 0x7f39a803cf50>, 'view': 'depute/index.html'}>"
p529
sVdepute_profession
p530
S"u'Professeur de lyc\\xe9e professionnel'"
p531
sS'ANY_OF'
p532
S"<class 'gluon.validators.ANY_OF'>"
p533
sS'IS_NULL_OR'
p534
S"<class 'gluon.validators.IS_EMPTY_OR'>"
p535
sS'circos'
p536
S'[{u\'_id\': ObjectId(\'59b9502b6d8669a20455625b\'), u\'carte\': u\'france\', u\'d\': u\'m 667.45589,331.87454 1.07547,-0.59691 0.20829...41,-0.34974 -0.41072,-2.66502 -1.06044,-0.7512 z\', u\'dep\': u\'077\', u\'desc\': u\'Cantons de : Melun Nord, Melun Sud, Perthes\', u\'h\': u\'29.574462890625\', u\'id\': u\'077-01\', u\'paris\': True, u\'title\': u\'Premi\\xe8re circonscription de Seine-et-Marne\', u\'ville\': False, ...}, {u\'_id\': ObjectId(\'59b9502b6d8669a20455625c\'), u\'carte\': u\'france\', u\'d\': u\'m 645.395,373.30693 -0.62061,-0.51943 -0.37152...0699,-0.85596 -0.65514,-0.5701 -1.47139,0.6214 z\', u\'dep\': u\'077\', u\'desc\': u\'Cantons de : La Chapelle-la-Reine, Ch\\xe2teau-...ntainebleau, Lorrez-le-Bocage-Pr\\xe9aux, Nemours\', u\'h\': u\'48.35894775390625\', u\'id\': u\'077-02\', u\'paris\': True, u\'title\': u\'Deuxi\\xe8me circonscription de Seine-et-Marne\', u\'ville\': False, ...}, {u\'_id\': ObjectId(\'59b9502b6d8669a20455625d\'), u\'carte\': u\'france\', u\'d\': u\'m 666.34145,343.69657 -1.31524,-0.29301 -0.663....10946,-0.3483 -0.3413,-0.1261 -3.97911,0.7124 z\', u\'dep\': u\'077\', u\'desc\': u\'Cantons de : Le Ch\\xe2telet-en-Brie, Montereau-Fault-Yonne, Moret-sur-Loing, Mormant\', u\'h\': u\'50.554290771484375\', u\'id\': u\'077-03\', u\'paris\': True, u\'title\': u\'Troisi\\xe8me circonscription de Seine-et-Marne\', u\'ville\': False, ...}, {u\'_id\': ObjectId(\'59b9502b6d8669a20455625e\'), u\'carte\': u\'france\', u\'d\': u\'m 721.98467,356.88599 -0.45716,0.68907 -0.8320....6457,0.44462 0.0178,-0.84565 -0.41468,-0.0214 z\', u\'dep\': u\'077\', u\'desc\': u\'Cantons de : Bray-sur-Seine, Donnemarie-Dontil...s, Rebais, Rozay-en-Brie, Villiers-Saint-Georges\', u\'h\': u\'74.54544067382812\', u\'id\': u\'077-04\', u\'paris\': True, u\'title\': u\'Quatri\\xe8me circonscription de Seine-et-Marne\', u\'ville\': False, ...}, {u\'_id\': ObjectId(\'59b9502b6d8669a20455625f\'), u\'carte\': u\'france\', u\'d\': u\'m 701.38895,294.47783 0.0788,-0.80121 1.18954,...185,-0.4438 -0.0426,-0.89066 -1.21101,-2.29433 z\', u\'dep\': u\'077\', u\'desc\': u\'Cantons de : Coulommiers, Cr\\xe9cy-la-Chapelle...: Bailly-Romainvilliers, Magny-le-Hongre, Serris\', u\'h\': u\'38.09814453125\', u\'id\': u\'077-05\', u\'paris\': True, u\'title\': u\'Cinqui\\xe8me circonscription de Seine-et-Marne\', u\'ville\': False, ...}, {u\'_id\': ObjectId(\'59b9502b6d8669a204556260\'), u\'carte\': u\'france\', u\'d\': u\'m 672.59081,274.77961 -0.76645,0.13197 -0.6351...311,-0.58102 0.0965,-0.39261 -0.24979,-0.32874 z\', u\'dep\': u\'077\', u\'desc\': u"Cantons de : Lizy-sur-Ourcq, Meaux Nord, Meaux...nt-Mard, Saint-Pathus, Saint-Soupplets, Vinantes", u\'h\': u\'28.127716064453125\', u\'id\': u\'077-06\', u\'paris\': True, u\'title\': u\'Sixi\\xe8me circonscription de Seine-et-Marne\', u\'ville\': False, ...}, {u\'_id\': ObjectId(\'59b9502b6d8669a204556262\'), u\'carte\': u\'france\', u\'d\': u\'m 663.56282,308.78722 -1.23841,0.32959 -0.5055....53573,0.0792 -1.065,0.53536 -0.69221,-1.09519 z\', u\'dep\': u\'077\', u\'desc\': u\'Cantons de : Roissy-en-Brie, Thorigny-sur-Marn...omainvilliers, Magny-le-Hongre et Serris), Torcy\', u\'h\': u\'24.436370849609375\', u\'id\': u\'077-08\', u\'paris\': True, u\'title\': u\'Huiti\\xe8me circonscription de Seine-et-Marne\', u\'ville\': False, ...}, {u\'_id\': ObjectId(\'59b9502b6d8669a204556263\'), u\'carte\': u\'france\', u\'d\': u\'m 656.33807,316.89363 -0.74182,-0.32792 0.5120...54,-0.88974 0.80047,-0.11571 -0.31476,-1.59068 z\', u\'dep\': u\'077\', u\'desc\': u\'Cantons de : Brie-Comte-Robert, Pontault-Combault, Tournan-en-Brie , Commune de Combs-la-Ville\', u\'h\': u\'27.680633544921875\', u\'id\': u\'077-09\', u\'paris\': True, u\'title\': u\'Neuvi\\xe8me circonscription de Seine-et-Marne\', u\'ville\': False, ...}, {u\'_id\': ObjectId(\'59b9502b6d8669a204556264\'), u\'carte\': u\'france\', u\'d\': u\'m 655.28194,294.08196 0.21606,-1.64589 -0.9447...3929,-0.36498 0.40939,-1.13987 -1.6482,-0.1216 z\', u\'dep\': u\'077\', u\'desc\': u\'Cantons de : Champs-sur-Marne, Chelles, Noisiel, Vaires-sur-Marne\', u\'h\': u\'13.545928955078125\', u\'id\': u\'077-10\', u\'paris\': True, u\'title\': u\'Dixi\\xe8me circonscription de Seine-et-Marne\', u\'ville\': False, ...}, {u\'_id\': ObjectId(\'59b9502b6d8669a204556266\'), u\'carte\': u\'france\', u\'d\': u\'m 612.71548,308.22576 -1.25211,-1.39623 -0.323...19,0.45922 -0.82119,-0.12754 -0.86326,-0.36062 z\', u\'dep\': u\'078\', u\'desc\': u"Cantons de : Montigny-le-Bretonneux, Versaille...e0 la limite du canton de Versailles Nord-Ouest)", u\'h\': u\'9.772796630859375\', u\'id\': u\'078-01\', u\'paris\': True, u\'title\': u\'Premi\\xe8re circonscription des Yvelines\', u\'ville\': False, ...}, {u\'_id\': ObjectId(\'59b9502b6d8669a204556267\'), u\'carte\': u\'france\', u\'d\': u\'m 603.62676,320.17275 -1.36037,1.03679 -1.3456...56,0.21099 -0.50775,-0.67089 -1.71835,-0.32799 z\', u\'dep\': u\'078\', u\'desc\': u\'Cantons de : Chevreuse (moins la commune du Me... comprise dans la 1re circonscription), Viroflay\', u\'h\': u\'20.72149658203125\', u\'id\': u\'078-02\', u\'paris\': True, u\'title\': u\'Deuxi\\xe8me circonscription des Yvelines\', u\'ville\': False, ...}, {u\'_id\': ObjectId(\'59b9502b6d8669a204556268\'), u\'carte\': u\'france\', u\'d\': u\'m 617.08567,296.38439 -0.7554,-0.22202 -0.0242...2648,1.55498 -0.78867,1.50166 -0.22596,0.32494 z\', u\'dep\': u\'078\', u\'desc\': u\'Cantons de : La Celle-Saint-Cloud, Le Chesnay,...-la-Bret\\xe8che, commune de Les Clayes-sous-Bois\', u\'h\': u\'13.098175048828125\', u\'id\': u\'078-03\', u\'paris\': True, u\'title\': u\'Troisi\\xe8me circonscription des Yvelines\', u\'ville\': False, ...}, {u\'_id\': ObjectId(\'59b9502b6d8669a204556269\'), u\'carte\': u\'france\', u\'d\': u\'m 619.22516,291.83727 -0.79771,-0.2534 -0.5274....85475,0.22591 0.83932,1.59107 -0.0787,1.32914 z\', u\'dep\': u\'078\', u\'desc\': u\'Cantons de : Chatou, Houilles, Marly-le-Roi\', u\'h\': u\'12.36639404296875\', u\'id\': u\'078-04\', u\'paris\': True, u\'title\': u\'Quatri\\xe8me circonscription des Yvelines\', u\'ville\': False, ...}, {u\'_id\': ObjectId(\'59b9502b6d8669a20455626a\'), u\'carte\': u\'france\', u\'d\': u\'m 617.77167,284.0848 -0.43091,0.13191 -0.0466,...527,-0.18101 -1.10609,1.22092 -0.56294,1.64169 z\', u\'dep\': u\'078\', u\'desc\': u\'Cantons de Maisons-Laffitte, Sartrouville, Le V\\xe9sinet\', u\'h\': u\'11.4881591796875\', u\'id\': u\'078-05\', u\'paris\': True, u\'title\': u\'Cinqui\\xe8me circonscription des Yvelines\', u\'ville\': False, ...}, {u\'_id\': ObjectId(\'59b9502b6d8669a20455626b\'), u\'carte\': u\'france\', u\'d\': u\'m 610.91292,283.63939 -0.92583,1.55439 -1.2054...51,-0.67419 -1.80049,-1.39944 -0.14762,1.35858 z\', u\'dep\': u\'078\', u\'desc\': u\'Cantons de : Le Pecq, Saint-Germain-en-Laye No...res-sous-Poissy, M\\xe9dan et Villennes-sur-Seine\', u\'h\': u\'14.968231201171875\', u\'id\': u\'078-06\', u\'paris\': True, u\'title\': u\'Sixi\\xe8me circonscription des Yvelines\', u\'ville\': False, ...}, {u\'_id\': ObjectId(\'59b9502b6d8669a20455626c\'), u\'carte\': u\'france\', u\'d\': u\'m 612.99174,276.49054 -0.61831,-0.84396 -1.525...13591,1.2239 -1.95715,-0.7285 -1.12537,1.68442 z\', u\'dep\': u\'078\', u\'desc\': u\'Cantons de: Andr\\xe9sy, Conflans-Sainte-Honori...munes des Mureaux et de Chapet), Triel-sur-Seine\', u\'h\': u\'13.85333251953125\', u\'id\': u\'078-07\', u\'paris\': True, u\'title\': u\'Septi\\xe8me circonscription des Yvelines\', u\'ville\': False, ...}, {u\'_id\': ObjectId(\'59b9502b6d8669a20455626d\'), u\'carte\': u\'france\', u\'d\': u\'m 585.71236,270.44723 -1.32238,-0.0595 -0.3040...6266,-0.71556 -0.68548,1.06771 -0.0161,0.88974 z\', u\'dep\': u\'078\', u\'desc\': u\'Cantons de: Limay, Mantes-la-Jolie, Mantes-la-Ville\', u\'h\': u\'15.44677734375\', u\'id\': u\'078-08\', u\'paris\': True, u\'title\': u\'Huiti\\xe8me circonscription des Yvelines\', u\'ville\': False, ...}, {u\'_id\': ObjectId(\'59b9502b6d8669a20455626e\'), u\'carte\': u\'france\', u\'d\': u\'m 591.36689,279.89542 -0.91581,0.57882 -1.2414...3684,0.29235 -2.26761,0.80261 -0.91287,0.77589 z\', u\'dep\': u\'078\', u\'desc\': u\'Cantons de: Aubergenville, Bonni\\xe8res-sur-Se...ille, Houdan., Communes de : Les Mureaux, Chapet\', u\'h\': u\'51.524017333984375\', u\'id\': u\'078-09\', u\'paris\': True, u\'title\': u\'Neuvi\\xe8me circonscription des Yvelines\', u\'ville\': False, ...}, {u\'_id\': ObjectId(\'59b9502b6d8669a20455626f\'), u\'carte\': u\'france\', u\'d\': u\'m 595.92506,302.73657 -2.50346,-0.187 0.52311,...0.85763,-0.095 -0.27223,0.82762 -0.1238,-0.068 z\', u\'dep\': u\'078\', u\'desc\': u"Cantons de : Maurepas (moins les communes d\'El...ription), Rambouillet, Saint-Arnoult-en-Yvelines", u\'h\': u\'52.679046630859375\', u\'id\': u\'078-10\', u\'paris\': True, u\'title\': u\'Dixi\\xe8me circonscription des Yvelines\', u\'ville\': False, ...}, {u\'_id\': ObjectId(\'59b9502b6d8669a204556271\'), u\'carte\': u\'france\', u\'d\': u\'m 587.99884,298.45066 -0.39212,0.069 -1.04831,...9509,-0.25708 0.046,-1.54391 -0.61031,-0.25714 z\', u\'dep\': u\'078\', u\'desc\': u"Cantons de : Plaisir (moins la commune de Les ... (partie comprise dans le canton de Poissy Nord)", u\'h\': u\'21.736724853515625\', u\'id\': u\'078-12\', u\'paris\': True, u\'title\': u\'Douzi\\xe8me circonscription des Yvelines\', u\'ville\': False, ...}, ...]'
p537
sS'IS_FLOAT_IN_RANGE'
p538
S"<class 'gluon.validators.IS_FLOAT_IN_RANGE'>"
p539
sS'IS_EXPR'
p540
S"<class 'gluon.validators.IS_EXPR'>"
p541
sS'T'
S'<gluon.languages.translator object>'
p542
sS'IS_IN_SET'
p543
S"<class 'gluon.validators.IS_IN_SET'>"
p544
sS'contact'
p545
S"{u'lien': u'https://twitter.com/@alexiscorbiere/', u'type': u'twitter'}"
p546
sS'IS_UPLOAD_FILENAME'
p547
S"<class 'gluon.validators.IS_UPLOAD_FILENAME'>"
p548
sS'getdot'
p549
S'<function getdot>'
p550
sV_id
p551
S"ObjectId('59af32496d8669a20452a2a8')"
p552
sVdepute_csp
p553
S"u'Cadres et professions intellectuelles sup\\xe9rieures'"
p554
sS'TT'
p555
S"<class 'gluon.html.TT'>"
p556
sS'IS_DECIMAL_IN_RANGE'
p557
S"<class 'gluon.validators.IS_DECIMAL_IN_RANGE'>"
p558
sssS'traceback'
p559
S'Traceback (most recent call last):\n  File "/home/www-data/web2py/gluon/restricted.py", line 219, in restricted\n    exec(ccode, environment)\n  File "<string>", line 170, in <module>\nAttributeError: \'str\' object has no attribute \'values\'\n'
p560
s.