(dp1
S'output'
p2
S"<type 'exceptions.NameError'> name 'icon' is not defined"
p3
sS'layer'
p4
S'/home/www-data/web2py/applications/oadev/views/depute/index.html'
p5
sS'code'
p6
S'response.write(\'<!DOCTYPE html>\\n<html lang="fr">\\n<head>\\n    <meta charset="utf-8">\\n    <meta http-equiv="x-ua-compatible" content="ie=edge">\\n    <title>ObsAss</title>\\n    <meta name="description" content="">\\n    <meta name="viewport" content="width=device-width, initial-scale=1">\\n\\n    <link href="https://fonts.googleapis.com/css?family=Montserrat:400,600,700" rel="stylesheet">\\n    <link href="https://maxcdn.bootstrapcdn.com/font-awesome/4.7.0/css/font-awesome.min.css" rel="stylesheet">\\n    <link rel="stylesheet" href="\', escape=False)\nresponse.write(URL(\'static\',\'css/main.css\'))\nresponse.write(\'" rel="stylesheet">\\n</head>\\n<body>\\n    <nav id="main-nav" class="flex">\\n        <img src="\', escape=False)\nresponse.write(URL(\'static\',\'assets/logo.png\'))\nresponse.write(\'" alt="Observatoire Insoumis">\\n        <ul>\\n            <li>Programme Pr\\xc3\\xa9sidentiel</li>\\n            <li>Gouvernement</li>\\n            <li>Assembl\\xc3\\xa9e Nationale</li>\\n        </ul>\\n    </nav>\\n    <header id="header">\\n        Header super chouette sisi !\\n    </header>\\n    <nav id="sub-nav">\\n        <ul>\\n            <li><i class="fa fa-users" aria-hidden="true"></i> Groupes</li>\\n            <li><i class="fa fa-user-circle-o" aria-hidden="true"></i> D\\xc3\\xa9put\\xc3\\xa9s</li>\\n            <li><i class="fa fa-thumbs-up" aria-hidden="true"></i> Suivi FI</li>\\n        </ul>\\n    </nav>\\n    \', escape=False)\nresponse.write(\'\\n    <div id="depute-template" class="container">\\n        <div class="depute-header">\\n            <div class="depute-photo">\\n                <img src="http://www2.assemblee-nationale.fr/static/tribun/15/photos/\', escape=False)\nresponse.write(depute_uid[2:])\nresponse.write(\'.jpg"/>\\n            </div>\\n            <div class="depute-identite">\\n                <header>\\n                    <h2><span>\', escape=False)\nresponse.write("%s / %s / %se circ" % (depute_region,depute_departement,depute_circo))\nresponse.write(\'</span></h2>\\n                    <h1>\', escape=False)\nresponse.write(depute_nom)\nresponse.write(\'</h1>\\n                </header>\\n\\n                <div class="depute-contacts">\\n                    \', escape=False)\nfor contact in depute_contacts:\n    if (contact[\'type\']==u\'mail\'):\n        response.write(\'<a class="depute-contact" href="mailto:\', escape=False)\n        response.write(contact[\'lien\'])\n        response.write(\'"><i class="fa fa-envelope-o"></i></a>\\n                    \', escape=False)\n    elif (contact[\'type\']==\'twitter\'):\n        response.write(\'<a class="depute-contact" href="https://twitter.com/\', escape=False)\n        response.write(contact[\'lien\'][2:])\n        response.write(\'"><i class="fa fa-twitter"></i></a>\\n                    \', escape=False)\n    elif (contact[\'type\']==\'facebook\'):\n        response.write(\'<a class="depute-contact" href="https://fr-fr.facebook.com/\', escape=False)\n        response.write(contact[\'lien\'])\n        response.write(\'"><i class="fa fa-facebook-square"></i></a>\\n                    \', escape=False)\n    elif (contact[\'type\']==\'site\'):\n        response.write(\'<a class="depute-contact" href="http://\', escape=False)\n        response.write(contact[\'lien\'])\n        response.write(\'"><i class="fa fa-globe"></i></a>\\n                    \', escape=False)\n        pass\n    response.write(\'\\n                    \', escape=False)\n    pass\nresponse.write(\'\\n                </div>\\n\\n                <div class="depute-groupe \', escape=False)\nresponse.write(groupe_abrev)\nresponse.write(\'"><i class="fa fa-group"></i> <a href="\', escape=False)\nresponse.write(URL(\'groupe\',\'index\',args=[groupe_abrev]))\nresponse.write(\'">\', escape=False)\nresponse.write(groupe_libelle)\nresponse.write(\'</a></div>\\n                <div class="depute-infos"><span>\', escape=False)\nresponse.write("%s, %s" % (depute_profession, depute_naissance))\nresponse.write(\'</span></div>\\n                <div class="depute-infos"><span>Participation : \', escape=False)\nresponse.write("%s/%s" % (stats[\'ranks\'][\'exprimes\'] or \'-\', 577))\nresponse.write(\'</span><br /><span>Dissidence : \', escape=False)\nresponse.write("%s/%s" % (stats[\'ranks\'][\'dissidence\'] or \'-\', 577))\nresponse.write(\'</span></div>\\n                <div class="depute-infos"><span>Suppl\\xc3\\xa9ant : \', escape=False)\nresponse.write(depute_suppleant)\nresponse.write(\'</span></div>\\n            </div>\\n        </div>\\n\\n        <div class="tab-container">\\n            <header>\\n                <input id="tab1" type="radio" name="tabs" value="presentation">\\n                <label for="tab1"><i class="fa fa-id-card-o"></i><span>Pr\\xc3\\xa9sentation</span></label>\\n\\n                <input id="tab2" type="radio" name="tabs" value="interventions">\\n                <label for="tab2"><i class="fa fa-comment-o"></i><span>Interventions</span></label>\\n\\n                <input id="tab3" type="radio" name="tabs" value="votes" checked>\\n                <label for="tab3"><i class="fa fa-hand-paper-o"></i><span>Votes</span></label>\\n            </header>\\n\\n            <section id="presentation" class="tab-content"> <!-- Pr\\xc3\\xa9sentation -->\\n                <div class="depute-hemicycle">\\n                    <object id="hemicycle" data="\', escape=False)\nresponse.write(URL(\'static\',\'images/hemicyclelight.svg\'))\nresponse.write(\'" type="image/svg+xml"></object>\\n                    \', escape=False)\nresponse.write(svgcirco(depute_circo_id))\nresponse.write(\'\\n                </div>\\n                <div class="depute-fonctions">\\n                    <h2>Fonctions / Mandats</h2>\\n                    <ul class="fa-ul">\\n                        <li><i class="fa fa-li fa-arrow-circle-o-right"></i> Membre de l\\\'Assembl\\xc3\\xa9e \', escape=False)\nif \'depute_actif\':\n    response.write(\'depuis le \', escape=False)\n    response.write(depute_mandat_debut)\nelse:\n    response.write(\'du %s au %s\' % (depute_mandat_debut,depute_mandat_fin))\n    pass\nresponse.write(\'</li>\\n                        \', escape=False)\nif depute_bureau:\n    response.write(\'<li><i class="fa fa-li fa-arrow-circle-o-right"></i> \', escape=False)\n    response.write(depute_bureau)\n    response.write(\'</li>\', escape=False)\n    pass\nresponse.write(\'\\n                        \', escape=False)\nfor typ,mandats in depute_mandats.iteritems():\n    for m in mandats:\n        response.write(\'\\n                        <li>\\n                            <i class="fa fa-li fa-arrow-circle-o-right"></i> <a href="\', escape=False)\n        response.write(m[\'lien\'])\n        response.write(\'">\', escape=False)\n        response.write(m[\'nom\'])\n        response.write(\'</a> (\', escape=False)\n        response.write(m[\'qualite\'])\n        response.write(\')\\n                        </li>\\n                        \', escape=False)\n        pass\n    pass\nresponse.write(\'\\n                    </ul>\\n                    \', escape=False)\nif depute_autresmandats:\n    response.write(\'\\n                    <h2>Autres Mandats</h2>\\n                    <ul class="fa-ul">\\n                        \', escape=False)\n    for am in depute_autresmandats:\n        response.write(\'\\n                        <li>\\n                            <i class="fa fa-li fa-arrow-circle-o-right"></i> \', escape=False)\n        response.write(am)\n        response.write(\'\\n                        </li>\', escape=False)\n        pass\n    response.write(\'\\n                    </ul>\\n                    \', escape=False)\n    pass\nresponse.write(\'\\n                    \', escape=False)\nif depute_collaborateurs:\n    response.write(\'\\n                    <h2>Collaborateurs</h2>\\n                    <ul class="fa-ul">\\n                        \', escape=False)\n    for co in depute_collaborateurs:\n        response.write(\'\\n                        <li>\\n                            <i class="fa fa-li fa-arrow-circle-o-right"></i> \', escape=False)\n        response.write(co)\n        response.write(\'\\n                        </li>\', escape=False)\n        pass\n    response.write(\'\\n                    </ul>\\n                    \', escape=False)\n    pass\nresponse.write(\'\\n                </div>\\n                \', escape=False)\nif depute_deputywatch:\n    response.write(\'\\n                <div class="depute-watch">\\n                    <h2>Deputy Watch</h2>\\n                    <div class="flex">\\n                        <img src="\', escape=False)\n    response.write(URL(\'static\',\'assets/deputywatch.png\'))\n    response.write(\'" alt="Deputy Watch">\\n                        <div>\\n                            Le site Deputy Watch tente de recenser les ant\\xc3\\xa9c\\xc3\\xa9dents judiciaires de notori\\xc3\\xa9t\\xc3\\xa9 publique des \\xc3\\xa9lus.\\n                            Nous y avons cherch\\xc3\\xa9 ce d\\xc3\\xa9put\\xc3\\xa9 et il semblerait qu\\\'il y soit list\\xc3\\xa9.<br />\\n                            <a href="\', escape=False)\n    response.write(depute_deputywatch[\'url\'])\n    response.write(\'" target="_blank">\\n                                <i class="fa fa-arrow-circle-o-right"></i> Voir le r\\xc3\\xa9sultat\\n                            </a>\\n                        </div>\\n                    </div>\\n                </div>\\n                \', escape=False)\n    pass\nresponse.write(\'\\n                \', escape=False)\nif len(depute_hatvp)>0:\n    response.write(\'\\n                <div>\\n                    <h2>D\\xc3\\xa9claration \\xc3\\xa0 la HATVP</h2>\\n                    <ul class="fa-ul">\\n                        \', escape=False)\n    for dec in depute_hatvp:\n        response.write(\'\\n                        <li>\\n                            <a href="\', escape=False)\n        response.write(dec[\'docurl\'])\n        response.write(\'" target="_blank">\\n                                <i class="fa fa-li fa-file-text-o"></i>\\n                                \', escape=False)\n        response.write("%s - %s" % (dec[\'typedoc\'], dec[\'qualite\']))\n        response.write(\'\\n                            </a>\\n                        </li>\\n                        \', escape=False)\n        pass\n    response.write(\'\\n                    </ul>\\n                </div>\\n                \', escape=False)\n    pass\nresponse.write(\'\\n            </section>\\n\\n\\t\\t\\t<section id="interventions" class="tab-content"> <!-- Interventions -->\\n                <div class="depute-interventions-recap">\\n                    Nombre d\\\'interventions : <span>\', escape=False)\nresponse.write(stats[\'nbitvs\'])\nresponse.write(\'</span>, nombre de mots : <span>\', escape=False)\nresponse.write(stats[\'nbmots\'])\nresponse.write(\'</span>\\n                </div>\\n                <div class="depute-interventions-cloud">\\n                    <div>\\n                        <h2>Ses mots</h2>\\n                        <div id="sourrounding_div_noms" class="cloud">\\n                            <canvas id="wordcanvas_noms"></canvas>\\n                        </div>\\n                    </div>\\n                    <div>\\n                        <h2>Ses verbes</h2>\\n                        <div id="sourrounding_div_verbes" class="cloud">\\n                            <canvas id="wordcanvas_verbes"></canvas>\\n                        </div>\\n                    </div>\\n                </div>\\n                <div id="itvlist">\\n                    <h2>Ses interventions</h2>\\n                    <div class="depute-interventions-search">\\n                        <label for="search"><i class="fa fa-search" aria-hidden="true"></i></label>\\n                        <input class="search" placeholder="Rechercher une intervention">\\n                    </div>\\n                    <ul class="fa-ul">\\n                        \', escape=False)\nfor iv in itvs:\n    response.write(\'\\n                        <li>\\n                            <i class="fa fa-list fa-comment"></i>\\n                            <a href="\', escape=False)\n    response.write(iv[\'itv_url\'])\n    response.write(\'" target="_blank">\\n                                <h3>\', escape=False)\n    response.write(\' / \'.join(iv[\'itv_ctx\']))\n    response.write(\'</h3>\\n                            </a>\\n                            <blockquote>\', escape=False)\n    response.write(XML(iv[\'itv_contenu\']))\n    response.write(\'</blockquote>\\n                        </li>\', escape=False)\n    pass\nresponse.write(\'\\n                    </ul>\\n                </div>\\n\\t\\t\\t</section>\\n\\n\\t\\t\\t<section id="votes" class="tab-content"> <!-- Votes -->\\n\\t\\t\\t\\t<div class="depute-votes-recap">\\n                    <div class="gauge">\\n                        <h2>Participation</h2>\\n                        \', escape=False)\nresponse.write(svggauge(\'vote\',stats[\'positions\'][\'exprimes\']))\nresponse.write(\'\\n                    </div>\\n                    <div class="gauge">\\n                        <h2>Contre son groupe</h2>\\n                        \', escape=False)\nresponse.write(svggauge(\'diss\',stats[\'positions\'][\'dissidence\']))\nresponse.write(\'\\n                    </div>\\n                    <div class="gauge">\\n                        <h2>FI-Compatibilit\\xc3\\xa9</h2>\\n                        \', escape=False)\nresponse.write(svggauge(\'compfi\',stats[\'compat\'][\'FI\']))\nresponse.write(\'\\n                    </div>\\n                    <div class="gauge">\\n                        <h2>EM-Compatibilit\\xc3\\xa9</h2>\\n                        \', escape=False)\nresponse.write(svggauge(\'compem\',stats[\'compat\'][\'REM\']))\nresponse.write(\'\\n                    </div>\\n                </div>\\n                <div class="depute-votes-calendar">\\n                    <h2>Calendrier des votes</h2>\\n                    <div id="calendar"></div>\\n                </div>\\n\\n                <div class="depute-votes-list">\\n                    <h2>Ses votes</h2>\\n                    <div class="depute-votes-search">\\n                        <label for="search"><i class="fa fa-search" aria-hidden="true"></i></label>\\n                        <input class="search" placeholder="Rechercher un vote">\\n                    </div>\\n                    <ul>\\n                        \', escape=False)\ngenres = {\'loi\':\'e\',\'motion\':\'e\'}\nresponse.write(\'\\n                        \', escape=False)\nicons = {\'pour\':\'fa-thumbs-up\',\'contre\':\'fa-thumbs-down\',\'abstention\':\'fa-microphone-slash\',\'absent\':\'fa-question\'}\nresponse.write(\'\\n                        \', escape=False)\nfor v in votes:\n    response.write(\'\\n                        <li>\\n                            <div class="ico \', escape=False)\n    response.write(v[\'vote_position\'])\n    response.write(\'">\\n                                <i class="fa fa-book"></i>\\n                            </div>\\n                            <div>\\n                                <header>\\n                                    <div>\\n                                        <h3><span>\', escape=False)\n    response.write(v[\'scrutin_dossierLibelle\'])\n    response.write(\' - \', escape=False)\n    response.write(v[\'scrutin_typedetail\'][0].upper()+v[\'scrutin_typedetail\'][1:])\n    if v[\'scrutin_groupe\']:\n        response.write(\'propos\\xc3\\xa9\', escape=False)\n        response.write(genres.get(v[\'scrutin_typedetail\'],\'\'))\n        response.write(\' par le groupe \', escape=False)\n        response.write(v[\'scrutin_groupe\'])\n        pass\n    response.write(\'</span></h3>\\n                                        <a href="\', escape=False)\n    response.write(URL(\'scrutin\',\'index\',args=[v[\'scrutin_id\']]))\n    response.write(\'">Scrutin n\\xc2\\xb0\', escape=False)\n    response.write("%d du %s (%s)" % (v[\'scrutin_num\'],v[\'scrutin_date\'],v[\'scrutin_sort\']))\n    response.write(\'</a>\\n                                    </div>\\n                                    <div class="vote \', escape=False)\n    response.write(v[\'vote_position\'])\n    response.write(\'"><i class="fa \', escape=False)\n    response.write(icon[v[\'vote_position\']])\n    response.write(\'"></i> \', escape=False)\n    response.write(v[\'vote_position\'][0].upper()+v[\'vote_position\'][1:])\n    response.write(\'</div>\\n                                </header>\\n                                <p><i class="fa fa-arrow-circle-o-right"></i> \', escape=False)\n    response.write(v[\'scrutin_desc\'])\n    response.write(\'</p>\\n                            </div>\\n                        </li>\\n                        \', escape=False)\n    pass\nresponse.write(\'\\n                        <li>\\n                            <div class="ico abstention">\\n                                <i class="fa fa-book"></i>\\n                            </div>\\n                            <div>\\n                                <header>\\n                                    <div>\\n                                        <h3><span>Pouvoirs publics : confiance dans l&#x27;action publique - Loi propos\\xc3\\xa9e par LREM</span></h3>\\n                                        <a href="/obsas_dev/fiches/scrutin?id=15_119">Scrutin n\\xc2\\xb0119 du 09/08/2017 (adopt\\xc3\\xa9)</a>\\n                                    </div>\\n                                    <div class="vote abstention"><i class="fa fa-microphone-slash"></i> Abstention</div>\\n                                </header>\\n                                <p><i class="fa fa-arrow-circle-o-right"></i> l&#x27;ensemble du projet de loi organique pour la confiance dans la vie politique (lecture d\\xc3\\xa9finitive).</p>\\n                            </div>\\n                        </li>\\n                        <li>\\n                            <div class="ico contre">\\n                                <i class="fa fa-pencil-square"></i>\\n                            </div>\\n                            <div>\\n                                <header>\\n                                    <div>\\n                                        <h3><span>Pouvoirs publics : confiance dans l&#x27;action publique - Amendement propos\\xc3\\xa9 par LFI</span></h3>\\n                                        <a href="/obsas_dev/fiches/scrutin?id=15_118">Scrutin n\\xc2\\xb0118 du 09/08/2017 (rejet\\xc3\\xa9)</a>\\n                                    </div>\\n                                    <div class="vote contre"><i class="fa fa-thumbs-down"></i> Contre</div>\\n                                </header>\\n                                <p><i class="fa fa-arrow-circle-o-right"></i> l&#x27;amendement n\\xc2\\xb0 1 de M. Saddier et les amendements identiques suivants au projet de loi organique pour la confiance dans la vie politique (lecture d\\xc3\\xa9finitive).</p>\\n                            </div>\\n                        </li>\\n                        <li>\\n                            <div class="ico pour">\\n                                <i class="fa fa-file"></i>\\n                            </div>\\n                            <div>\\n                                <header>\\n                                    <div>\\n                                        <h3><span>Pouvoirs publics : confiance dans l&#x27;action publique - Loi propos\\xc3\\xa9e par LR</span></h3>\\n                                        <a href="/obsas_dev/fiches/scrutin?id=15_117">Scrutin n\\xc2\\xb0117 du 03/08/2017 (adopt\\xc3\\xa9)</a>\\n                                    </div>\\n                                    <div class="vote pour"><i class="fa fa-thumbs-up"></i> Pour</div>\\n                                </header>\\n                                <p><i class="fa fa-arrow-circle-o-right"></i> l&#x27;ensemble du projet de loi organique pour la confiance dans la vie politique (nouvelle lecture).</p>\\n                            </div>\\n                        </li>\\n                        <li>\\n                            <div class="ico absent">\\n                                <i class="fa fa-undo"></i>\\n                            </div>\\n                            <div>\\n                                <header>\\n                                    <div>\\n                                        <h3><span>Pouvoirs publics : confiance dans l&#x27;action publique - Motion propos\\xc3\\xa9e par le PCF</span></h3>\\n                                        <a href="/obsas_dev/fiches/scrutin?id=15_116">Scrutin n\\xc2\\xb0116 du 03/08/2017 (rejet\\xc3\\xa9)</a>\\n                                    </div>\\n                                    <div class="vote absent"><i class="fa fa-question"></i> Absent</div>\\n                                </header>\\n                                <p><i class="fa fa-arrow-circle-o-right"></i> l&#x27;amendement n\\xc2\\xb0 59 de Mme Batho \\xc3\\xa0 l&#x27;article 12 du projet de loi organique pour la confiance dans la vie politique (nouvelle lecture).</p>\\n                            </div>\\n                        </li>\\n                        <li>\\n                            <div class="ico absent">\\n                                <i class="fa fa-microphone"></i>\\n                            </div>\\n                            <div>\\n                                <header>\\n                                    <div>\\n                                        <h3><span>Pouvoirs publics : confiance dans l&#x27;action publique - D\\xc3\\xa9claration</span></h3>\\n                                        <a href="/obsas_dev/fiches/scrutin?id=15_116">Scrutin n\\xc2\\xb0116 du 03/08/2017 (rejet\\xc3\\xa9)</a>\\n                                    </div>\\n                                    <div class="vote absent"><i class="fa fa-question"></i> Absent</div>\\n                                </header>\\n                                <p><i class="fa fa-arrow-circle-o-right"></i> l&#x27;amendement n\\xc2\\xb0 59 de Mme Batho \\xc3\\xa0 l&#x27;article 12 du projet de loi organique pour la confiance dans la vie politique (nouvelle lecture).</p>\\n                            </div>\\n                        </li>\\n                        <li>\\n                            <div class="ico absent">\\n                                <i class="fa fa-undo"></i>\\n                            </div>\\n                            <div>\\n                                <header>\\n                                    <div>\\n                                        <h3><span>Pouvoirs publics : confiance dans l&#x27;action publique - Motion propos\\xc3\\xa9e par le MODEM</span></h3>\\n                                        <a href="/obsas_dev/fiches/scrutin?id=15_116">Scrutin n\\xc2\\xb0116 du 03/08/2017 (rejet\\xc3\\xa9)</a>\\n                                    </div>\\n                                    <div class="vote absent"><i class="fa fa-question"></i> Absent</div>\\n                                </header>\\n                                <p><i class="fa fa-arrow-circle-o-right"></i> l&#x27;amendement n\\xc2\\xb0 59 de Mme Batho \\xc3\\xa0 l&#x27;article 12 du projet de loi organique pour la confiance dans la vie politique (nouvelle lecture).</p>\\n                            </div>\\n                        </li>\\n                        <li>\\n                            <div class="ico absent">\\n                                <i class="fa fa-undo"></i>\\n                            </div>\\n                            <div>\\n                                <header>\\n                                    <div>\\n                                        <h3><span>Pouvoirs publics : confiance dans l&#x27;action publique - Motion propos\\xc3\\xa9e par le PS</span></h3>\\n                                        <a href="/obsas_dev/fiches/scrutin?id=15_116">Scrutin n\\xc2\\xb0116 du 03/08/2017 (rejet\\xc3\\xa9)</a>\\n                                    </div>\\n                                    <div class="vote absent"><i class="fa fa-question"></i> Absent</div>\\n                                </header>\\n                                <p><i class="fa fa-arrow-circle-o-right"></i> l&#x27;amendement n\\xc2\\xb0 59 de Mme Batho \\xc3\\xa0 l&#x27;article 12 du projet de loi organique pour la confiance dans la vie politique (nouvelle lecture).</p>\\n                            </div>\\n                        </li>\\n                    </ul>\\n                </div>\\n            </section>\\n        </div>\\n    </div>\\n\', escape=False)\nresponse.write(\'\\n    \', escape=False)\nresponse.write(\'\\n  <script src="https://cdnjs.cloudflare.com/ajax/libs/jquery/3.2.1/jquery.min.js"></script>\\n  <script src="\', escape=False)\nresponse.write(URL(\'static\',\'js/wordcloud2.js\'))\nresponse.write(\'"></script>\\n  <script src="https://d3js.org/d3.v4.min.js"></script>\\n  <script>\\n    $(document).ready(function() {\\n        var visible = $(\\\'.tab-container input:checked\\\').val();\\n        $(\\\'#\\\' + visible).addClass(\\\'visible\\\');\\n\\n        $(\\\'.tab-container input\\\').change(function(e) {\\n            $(\\\'.tab-content\\\').removeClass(\\\'visible\\\');\\n            $(\\\'#\\\' + e.target.value).addClass(\\\'visible\\\');\\n        });\\n        /* position hemicycle */\\n        var svg = document.getElementById(\\\'hemicycle\\\');\\n        svg.addEventListener(\\\'load\\\', function () {\\n          //var svg = document.getElementById(\\\'hemicycle\\\');\\n          var svgDoc = svg.contentDocument;\\n          $.each(svgDoc.getElementsByTagName(\\\'a\\\'), function() {\\n              $(this).attr(\\\'href\\\',"depute/index/"+$(this).attr(\\\'href\\\'));\\n          });\\n          var styleElement = svgDoc.createElementNS("http://www.w3.org/2000/svg", "style");\\n          styleElement.textContent = "#p\', escape=False)\nresponse.write(depute_place)\nresponse.write(\' { fill:  black; stroke-width:5px; stroke: black;}"; // add whatever you need here\\n          svgDoc.getElementById(\\\'defs\\\').appendChild(styleElement);\\n\\n        });\\n        // Nuages\\n        \', escape=False)\nimport json\nresponse.write(\'\\n        var wordlist = {};\\n        \', escape=False)\nif depute_nuages:\n    response.write(\'\\n        \', escape=False)\n    for lex in depute_nuages.keys():\n        response.write("\\n           wordlist[\'", escape=False)\n        response.write(lex)\n        response.write("\'] = JSON.parse(\'", escape=False)\n        response.write(XML(json.dumps(depute_nuages[lex])))\n        response.write("\');\\n        ", escape=False)\n        pass\n    response.write(\'\\n        \', escape=False)\n    pass\nresponse.write(\'\\n        \\n\\n        function showNuage(lex) {\\n            if (lex==\\\'verbatim\\\') {\\n                return\\n            }\\n            var div = document.getElementById("sourrounding_div_"+lex);\\n            var canvas = document.getElementById("wordcanvas_"+lex);\\n\\n            canvas.height = div.offsetHeight;\\n            canvas.width  = div.offsetWidth;\\n\\n            WordCloud(document.getElementById(\\\'wordcanvas_\\\'+lex), {\\n                gridSize: Math.round(16 * document.getElementById(\\\'wordcanvas_\\\'+lex).offsetWidth / 1024),\\n                weightFactor: function (size) {\\n                    return 0.3*size;\\n                },\\n                list: wordlist[lex],\\n                color: function(word, weight) {\\n                    if (weight < 50) {\\n                        return \\\'#82cde2\\\';\\n                    } else if (weight < 130) {\\n                        return \\\'#213558\\\';\\n                    }\\n                    return \\\'#ff0052\\\';\\n                },\\n                backgroundColor: \\\'transparent\\\'\\n            });\\n        }\\n\\n        function drawNuages() {\\n            showNuage(\\\'noms\\\');\\n            showNuage(\\\'verbes\\\');\\n        }\\n\\n        // Calendrier\\n        function genCalendar() {\\n            var width = document.getElementById(\\\'calendar\\\').offsetWidth+20,\\n                yearHeight = width / 7,\\n                height = yearHeight,\\n                cellSize = yearHeight / 8;\\n\\n            var percent = d3.format(".1%"),\\n                format = d3.timeFormat("%Y-%m-%d");\\n\\n            var color = d3.scaleQuantize()\\n                .domain([.0, 1.0])\\n                .range(d3.range(5).map(function(d) { return "q" + d + "-5"; }));\\n\\n            var svgcal = d3.select("#calendar").selectAll("svg")\\n                .data(d3.range(2017, 2018))\\n              .enter().append("svg")\\n                .attr("width", width)\\n                .attr("height", height+20)\\n                .attr("class", "RdYlGn")\\n              .append("g")\\n                .attr("transform", "translate(" + ((width - cellSize * 53) / 2) + "," + (20+height - cellSize * 7 - 1) + ")");\\n\\n            svgcal.append("text")\\n                .attr("transform", "translate(-6," + cellSize * 3.5 + ")rotate(-90)")\\n                .style("text-anchor", "middle")\\n                .text(function(d) { return d; });\\n\\n            var rect = svgcal.selectAll(".day")\\n                .data(function(d) { return d3.timeDays(new Date(d, 0, 1), new Date(d + 1, 0, 1)); })\\n              .enter().append("rect")\\n                .attr("class", "day")\\n                .attr("width", cellSize)\\n                .attr("height", cellSize)\\n                .attr("x", function(d) { return d3.timeMonday.count(d3.timeYear(d), d) * cellSize; })\\n                .attr("y", function(d) { return ((d.getDay()+6)%7) * cellSize; })\\n                .datum(format);\\n\\n            rect.append("title")\\n                .text(function(d) { return d; });\\n\\n            svgcal.selectAll(".month")\\n                .data(function(d) { return d3.timeMonths(new Date(d, 0, 1), new Date(d + 1, 0, 1)); })\\n              .enter().append("text").text(monthLabel).style("font-size:10px;", "middle").attr("transform",monthLabelTransform);\\n            function monthLabel(t0) {\\n                return Array(\\\'JAN\\\',\\\'FEV\\\',\\\'MAR\\\',\\\'AVR\\\',\\\'MAI\\\',\\\'JUN\\\',\\\'JUI\\\',\\\'AOU\\\',\\\'SEP\\\',\\\'OCT\\\',\\\'NOV\\\',\\\'DEC\\\')[t0.getMonth()];\\n            }\\n            function monthLabelTransform(t0) {\\n              var t1 = new Date(t0.getFullYear(), t0.getMonth() + 1, 0),\\n                  d0 = ((t0.getDay()+6)%7), w0 = d3.timeMonday.count(d3.timeYear(t0), t0)\\n                  d1 = ((t1.getDay()+6)%7), w1 = d3.timeMonday.count(d3.timeYear(t1), t1);\\n              return "translate("+(2+w0)*cellSize+",-5)";\\n            }\\n\\n            svgcal.selectAll(".month")\\n                .data(function(d) { return d3.timeMonths(new Date(d, 0, 1), new Date(d + 1, 0, 1)); })\\n              .enter().append("path")\\n                .attr("class", "month")\\n                .attr("d", monthPath);\\n\\n\\n            var csv = JSON.parse(\\\'[{"date": "2017-07-04", "pct": 1.0}, {"date": "2017-07-06", "pct": 0.0}, {"date": "2017-07-10", "pct": 1.0}, {"date": "2017-07-11", "pct": 0.9411764705882353}, {"date": "2017-07-12", "pct": 0.6666666666666666}, {"date": "2017-07-13", "pct": 0.8333333333333334}, {"date": "2017-07-18", "pct": 0.5}, {"date": "2017-07-19", "pct": 0.0}, {"date": "2017-07-24", "pct": 1.0}, {"date": "2017-07-25", "pct": 0.23076923076923078}, {"date": "2017-07-26", "pct": 0.0}, {"date": "2017-07-27", "pct": 0.375}, {"date": "2017-07-28", "pct": 0.6}, {"date": "2017-08-01", "pct": 1.0}, {"date": "2017-08-03", "pct": 0.5454545454545454}, {"date": "2017-08-09", "pct": 1.0}]\\\');\\n            var data = d3.nest()\\n                .key(function(d) { return d.date; })\\n                .rollup(function(d) { return d[0].pct; })\\n                .map(csv);\\n\\n              rect.filter(function(d) { return data.has(d); })\\n                  .attr("class", function(d) { return "day " + color(data.get(d)); })\\n                .select("title")\\n                  .text(function(d) { return d + ": " + percent(data.get(d)); });\\n\\n            function monthPath(t0) {\\n              var t1 = new Date(t0.getFullYear(), t0.getMonth() + 1, 0),\\n                  d0 = ((t0.getDay()+6)%7), w0 = d3.timeMonday.count(d3.timeYear(t0), t0)\\n                  d1 = ((t1.getDay()+6)%7), w1 = d3.timeMonday.count(d3.timeYear(t1), t1);\\n              return "M" + (w0 + 1) * cellSize + "," + d0 * cellSize\\n                  + "H" + w0 * cellSize + "V" + 7 * cellSize\\n                  + "H" + w1 * cellSize + "V" + (d1 + 1) * cellSize\\n                  + "H" + (w1 + 1) * cellSize + "V" + 0\\n                  + "H" + (w0 + 1) * cellSize + "Z";\\n            }\\n        }\\n\\n        drawNuages();\\n        genCalendar();\\n        var resizeDebounce;\\n        $(window).resize(function() {\\n            clearTimeout(resizeDebounce);\\n            resizeDebounce = setTimeout(function() {\\n                window.requestAnimationFrame(function() {\\n                    drawNuages();\\n                    $(\\\'#calendar svg\\\').remove();\\n                    genCalendar();\\n                });\\n            }, 100);\\n        });\\n    });\\n    </script>\\n\', escape=False)\nresponse.write(\'\\n</body>\\n</html>\\n\', escape=False)'
p7
sS'snapshot'
p8
(dp9
S'exception'
p10
(dp11
S'__getslice__'
p12
S"<method-wrapper '__getslice__' of exceptions.NameError object>"
p13
sS'__str__'
p14
S"<method-wrapper '__str__' of exceptions.NameError object>"
p15
sS'__reduce__'
p16
S'<built-in method __reduce__ of exceptions.NameError object>'
p17
sS'__dict__'
p18
S'{}'
p19
sS'message'
p20
S'"name \'icon\' is not defined"'
p21
sS'__sizeof__'
p22
S'<built-in method __sizeof__ of exceptions.NameError object>'
p23
sS'__init__'
p24
S"<method-wrapper '__init__' of exceptions.NameError object>"
p25
sS'__setattr__'
p26
S"<method-wrapper '__setattr__' of exceptions.NameError object>"
p27
sS'__reduce_ex__'
p28
S'<built-in method __reduce_ex__ of exceptions.NameError object>'
p29
sS'__new__'
p30
S'<built-in method __new__ of type object>'
p31
sS'__format__'
p32
S'<built-in method __format__ of exceptions.NameError object>'
p33
sS'__class__'
p34
S"<type 'exceptions.NameError'>"
p35
sS'__doc__'
p36
S"'Name not found globally.'"
p37
sS'__getitem__'
p38
S"<method-wrapper '__getitem__' of exceptions.NameError object>"
p39
sS'__setstate__'
p40
S'<built-in method __setstate__ of exceptions.NameError object>'
p41
sS'__getattribute__'
p42
S"<method-wrapper '__getattribute__' of exceptions.NameError object>"
p43
sS'args'
p44
S'("name \'icon\' is not defined",)'
p45
sS'__subclasshook__'
p46
S'<built-in method __subclasshook__ of type object>'
p47
sS'__unicode__'
p48
S'<built-in method __unicode__ of exceptions.NameError object>'
p49
sS'__delattr__'
p50
S"<method-wrapper '__delattr__' of exceptions.NameError object>"
p51
sS'__repr__'
p52
S"<method-wrapper '__repr__' of exceptions.NameError object>"
p53
sS'__hash__'
p54
S"<method-wrapper '__hash__' of exceptions.NameError object>"
p55
ssS'evalue'
p56
S"name 'icon' is not defined"
p57
sS'request'
p58
cgluon.html
XML_unpickle
p59
(S'sZz\x00\x00<div><table><tr><td style="font-weight:bold;vertical-align:top;">ajax</td><td style="vertical-align:top;">:</td><td><div>False</div></td></tr><tr><td style="font-weight:bold;vertical-align:top;">application</td><td style="vertical-align:top;">:</td><td><div>oadev</div></td></tr><tr><td style="font-weight:bold;vertical-align:top;">args</td><td style="vertical-align:top;">:</td><td><div><table><tr><td><div>loicprudhomme</div></td></tr></table></div></td></tr><tr><td style="font-weight:bold;vertical-align:top;">cid</td><td style="vertical-align:top;">:</td><td><div>None</div></td></tr><tr><td style="font-weight:bold;vertical-align:top;">client</td><td style="vertical-align:top;">:</td><td><div>83.203.181.3</div></td></tr><tr><td style="font-weight:bold;vertical-align:top;">controller</td><td style="vertical-align:top;">:</td><td><div>depute</div></td></tr><tr><td style="font-weight:bold;vertical-align:top;">cookies</td><td style="vertical-align:top;">:</td><td><div><table><tr><td style="font-weight:bold;vertical-align:top;">session_id_admin</td><td style="vertical-align:top;">:</td><td><div>83.203.170.106-62f39627-f7d7-4927-a80b-f6a1100be47c<table><tr><td style="font-weight:bold;vertical-align:top;">comment</td><td style="vertical-align:top;">:</td><td><div></div></td></tr><tr><td style="font-weight:bold;vertical-align:top;">domain</td><td style="vertical-align:top;">:</td><td><div></div></td></tr><tr><td style="font-weight:bold;vertical-align:top;">expires</td><td style="vertical-align:top;">:</td><td><div></div></td></tr><tr><td style="font-weight:bold;vertical-align:top;">httponly</td><td style="vertical-align:top;">:</td><td><div></div></td></tr><tr><td style="font-weight:bold;vertical-align:top;">max-age</td><td style="vertical-align:top;">:</td><td><div></div></td></tr><tr><td style="font-weight:bold;vertical-align:top;">path</td><td style="vertical-align:top;">:</td><td><div></div></td></tr><tr><td style="font-weight:bold;vertical-align:top;">secure</td><td style="vertical-align:top;">:</td><td><div></div></td></tr><tr><td style="font-weight:bold;vertical-align:top;">version</td><td style="vertical-align:top;">:</td><td><div></div></td></tr></table></div></td></tr><tr><td style="font-weight:bold;vertical-align:top;">session_id_oadev</td><td style="vertical-align:top;">:</td><td><div>83.203.181.3-1111a3c7-66ca-45ba-861f-c44bf4d32102<table><tr><td style="font-weight:bold;vertical-align:top;">comment</td><td style="vertical-align:top;">:</td><td><div></div></td></tr><tr><td style="font-weight:bold;vertical-align:top;">domain</td><td style="vertical-align:top;">:</td><td><div></div></td></tr><tr><td style="font-weight:bold;vertical-align:top;">expires</td><td style="vertical-align:top;">:</td><td><div></div></td></tr><tr><td style="font-weight:bold;vertical-align:top;">httponly</td><td style="vertical-align:top;">:</td><td><div></div></td></tr><tr><td style="font-weight:bold;vertical-align:top;">max-age</td><td style="vertical-align:top;">:</td><td><div></div></td></tr><tr><td style="font-weight:bold;vertical-align:top;">path</td><td style="vertical-align:top;">:</td><td><div></div></td></tr><tr><td style="font-weight:bold;vertical-align:top;">secure</td><td style="vertical-align:top;">:</td><td><div></div></td></tr><tr><td style="font-weight:bold;vertical-align:top;">version</td><td style="vertical-align:top;">:</td><td><div></div></td></tr></table></div></td></tr><tr><td style="font-weight:bold;vertical-align:top;">session_id_obsas_dev</td><td style="vertical-align:top;">:</td><td><div>83.203.181.3-57a24510-38a1-4c30-964a-208f8cd44b77<table><tr><td style="font-weight:bold;vertical-align:top;">comment</td><td style="vertical-align:top;">:</td><td><div></div></td></tr><tr><td style="font-weight:bold;vertical-align:top;">domain</td><td style="vertical-align:top;">:</td><td><div></div></td></tr><tr><td style="font-weight:bold;vertical-align:top;">expires</td><td style="vertical-align:top;">:</td><td><div></div></td></tr><tr><td style="font-weight:bold;vertical-align:top;">httponly</td><td style="vertical-align:top;">:</td><td><div></div></td></tr><tr><td style="font-weight:bold;vertical-align:top;">max-age</td><td style="vertical-align:top;">:</td><td><div></div></td></tr><tr><td style="font-weight:bold;vertical-align:top;">path</td><td style="vertical-align:top;">:</td><td><div></div></td></tr><tr><td style="font-weight:bold;vertical-align:top;">secure</td><td style="vertical-align:top;">:</td><td><div></div></td></tr><tr><td style="font-weight:bold;vertical-align:top;">version</td><td style="vertical-align:top;">:</td><td><div></div></td></tr></table></div></td></tr><tr><td style="font-weight:bold;vertical-align:top;">session_id_observatoireassemblee</td><td style="vertical-align:top;">:</td><td><div>83.203.170.41-820d7db2-0294-4aae-b786-6391edb8bfee<table><tr><td style="font-weight:bold;vertical-align:top;">comment</td><td style="vertical-align:top;">:</td><td><div></div></td></tr><tr><td style="font-weight:bold;vertical-align:top;">domain</td><td style="vertical-align:top;">:</td><td><div></div></td></tr><tr><td style="font-weight:bold;vertical-align:top;">expires</td><td style="vertical-align:top;">:</td><td><div></div></td></tr><tr><td style="font-weight:bold;vertical-align:top;">httponly</td><td style="vertical-align:top;">:</td><td><div></div></td></tr><tr><td style="font-weight:bold;vertical-align:top;">max-age</td><td style="vertical-align:top;">:</td><td><div></div></td></tr><tr><td style="font-weight:bold;vertical-align:top;">path</td><td style="vertical-align:top;">:</td><td><div></div></td></tr><tr><td style="font-weight:bold;vertical-align:top;">secure</td><td style="vertical-align:top;">:</td><td><div></div></td></tr><tr><td style="font-weight:bold;vertical-align:top;">version</td><td style="vertical-align:top;">:</td><td><div></div></td></tr></table></div></td></tr></table></div></td></tr><tr><td style="font-weight:bold;vertical-align:top;">env</td><td style="vertical-align:top;">:</td><td><div><table><tr><td style="font-weight:bold;vertical-align:top;">CONTEXT_DOCUMENT_ROOT</td><td style="vertical-align:top;">:</td><td><div>/var/www/html</div></td></tr><tr><td style="font-weight:bold;vertical-align:top;">CONTEXT_PREFIX</td><td style="vertical-align:top;">:</td><td><div></div></td></tr><tr><td style="font-weight:bold;vertical-align:top;">DOCUMENT_ROOT</td><td style="vertical-align:top;">:</td><td><div>/var/www/html</div></td></tr><tr><td style="font-weight:bold;vertical-align:top;">GATEWAY_INTERFACE</td><td style="vertical-align:top;">:</td><td><div>CGI/1.1</div></td></tr><tr><td style="font-weight:bold;vertical-align:top;">HTTP_ACCEPT</td><td style="vertical-align:top;">:</td><td><div>text/html,application/xhtml+xml,application/xml;q=0.9,image/webp,image/apng,*/*;q=0.8</div></td></tr><tr><td style="font-weight:bold;vertical-align:top;">HTTP_ACCEPT_ENCODING</td><td style="vertical-align:top;">:</td><td><div>gzip, deflate, br</div></td></tr><tr><td style="font-weight:bold;vertical-align:top;">HTTP_ACCEPT_LANGUAGE</td><td style="vertical-align:top;">:</td><td><div>fr-FR,fr;q=0.8,en-US;q=0.6,en;q=0.4</div></td></tr><tr><td style="font-weight:bold;vertical-align:top;">HTTP_CACHE_CONTROL</td><td style="vertical-align:top;">:</td><td><div>max-age=0</div></td></tr><tr><td style="font-weight:bold;vertical-align:top;">HTTP_CONNECTION</td><td style="vertical-align:top;">:</td><td><div>keep-alive</div></td></tr><tr><td style="font-weight:bold;vertical-align:top;">HTTP_COOKIE</td><td style="vertical-align:top;">:</td><td><div>session_id_observatoireassemblee=83.203.170.41-820d7db2-0294-4aae-b786-6391edb8bfee; session_id_obsas_dev=83.203.181.3-57a24510-38a1-4c30-964a-208f8cd44b77; session_id_admin=83.203.170.106-62f39627-f7d7-4927-a80b-f6a1100be47c; session_id_oadev=83.203.181.3-1111a3c7-66ca-45ba-861f-c44bf4d32102</div></td></tr><tr><td style="font-weight:bold;vertical-align:top;">HTTP_HOST</td><td style="vertical-align:top;">:</td><td><div>admin.obsas.orvdev.fr</div></td></tr><tr><td style="font-weight:bold;vertical-align:top;">HTTP_UPGRADE_INSECURE_REQUESTS</td><td style="vertical-align:top;">:</td><td><div>1</div></td></tr><tr><td style="font-weight:bold;vertical-align:top;">HTTP_USER_AGENT</td><td style="vertical-align:top;">:</td><td><div>Mozilla/5.0 (X11; Linux x86_64) AppleWebKit/537.36 (KHTML, like Gecko) Chrome/60.0.3112.101 Safari/537.36</div></td></tr><tr><td style="font-weight:bold;vertical-align:top;">PATH_INFO</td><td style="vertical-align:top;">:</td><td><div>/oadev/depute/index/loicprudhomme</div></td></tr><tr><td style="font-weight:bold;vertical-align:top;">PATH_TRANSLATED</td><td style="vertical-align:top;">:</td><td><div>/home/www-data/web2py/wsgihandler.py/oadev/depute/index/loicprudhomme</div></td></tr><tr><td style="font-weight:bold;vertical-align:top;">QUERY_STRING</td><td style="vertical-align:top;">:</td><td><div></div></td></tr><tr><td style="font-weight:bold;vertical-align:top;">REMOTE_ADDR</td><td style="vertical-align:top;">:</td><td><div>83.203.181.3</div></td></tr><tr><td style="font-weight:bold;vertical-align:top;">REMOTE_PORT</td><td style="vertical-align:top;">:</td><td><div>33297</div></td></tr><tr><td style="font-weight:bold;vertical-align:top;">REQUEST_METHOD</td><td style="vertical-align:top;">:</td><td><div>GET</div></td></tr><tr><td style="font-weight:bold;vertical-align:top;">REQUEST_SCHEME</td><td style="vertical-align:top;">:</td><td><div>https</div></td></tr><tr><td style="font-weight:bold;vertical-align:top;">REQUEST_URI</td><td style="vertical-align:top;">:</td><td><div>/oadev/depute/index/loicprudhomme</div></td></tr><tr><td style="font-weight:bold;vertical-align:top;">SCRIPT_FILENAME</td><td style="vertical-align:top;">:</td><td><div>/home/www-data/web2py/wsgihandler.py</div></td></tr><tr><td style="font-weight:bold;vertical-align:top;">SCRIPT_NAME</td><td style="vertical-align:top;">:</td><td><div></div></td></tr><tr><td style="font-weight:bold;vertical-align:top;">SERVER_ADDR</td><td style="vertical-align:top;">:</td><td><div>151.80.57.169</div></td></tr><tr><td style="font-weight:bold;vertical-align:top;">SERVER_ADMIN</td><td style="vertical-align:top;">:</td><td><div>[no address given]</div></td></tr><tr><td style="font-weight:bold;vertical-align:top;">SERVER_NAME</td><td style="vertical-align:top;">:</td><td><div>admin.obsas.orvdev.fr</div></td></tr><tr><td style="font-weight:bold;vertical-align:top;">SERVER_PORT</td><td style="vertical-align:top;">:</td><td><div>443</div></td></tr><tr><td style="font-weight:bold;vertical-align:top;">SERVER_PROTOCOL</td><td style="vertical-align:top;">:</td><td><div>HTTP/1.1</div></td></tr><tr><td style="font-weight:bold;vertical-align:top;">SERVER_SIGNATURE</td><td style="vertical-align:top;">:</td><td><div>&lt;address&gt;Apache/2.4.18 (Ubuntu) Server at admin.obsas.orvdev.fr Port 443&lt;/address&gt;\n</div></td></tr><tr><td style="font-weight:bold;vertical-align:top;">SERVER_SOFTWARE</td><td style="vertical-align:top;">:</td><td><div>Apache/2.4.18 (Ubuntu)</div></td></tr><tr><td style="font-weight:bold;vertical-align:top;">SSL_TLS_SNI</td><td style="vertical-align:top;">:</td><td><div>admin.obsas.orvdev.fr</div></td></tr><tr><td style="font-weight:bold;vertical-align:top;">apache.version</td><td style="vertical-align:top;">:</td><td><div><table><tr><td><div>2</div></td></tr><tr><td><div>4</div></td></tr><tr><td><div>18</div></td></tr></table></div></td></tr><tr><td style="font-weight:bold;vertical-align:top;">apache_version</td><td style="vertical-align:top;">:</td><td><div><table><tr><td><div>2</div></td></tr><tr><td><div>4</div></td></tr><tr><td><div>18</div></td></tr></table></div></td></tr><tr><td style="font-weight:bold;vertical-align:top;">app_folders</td><td style="vertical-align:top;">:</td><td><div>set([&#x27;/home/www-data/web2py/applications/admin/&#x27;, &#x27;/home/www-data/web2py/applications/oadev/&#x27;])</div></td></tr><tr><td style="font-weight:bold;vertical-align:top;">applications_parent</td><td style="vertical-align:top;">:</td><td><div>/home/www-data/web2py</div></td></tr><tr><td style="font-weight:bold;vertical-align:top;">context_document_root</td><td style="vertical-align:top;">:</td><td><div>/var/www/html</div></td></tr><tr><td style="font-weight:bold;vertical-align:top;">context_prefix</td><td style="vertical-align:top;">:</td><td><div></div></td></tr><tr><td style="font-weight:bold;vertical-align:top;">db_sessions</td><td style="vertical-align:top;">:</td><td><div>set([])</div></td></tr><tr><td style="font-weight:bold;vertical-align:top;">debugging</td><td style="vertical-align:top;">:</td><td><div>False</div></td></tr><tr><td style="font-weight:bold;vertical-align:top;">document_root</td><td style="vertical-align:top;">:</td><td><div>/var/www/html</div></td></tr><tr><td style="font-weight:bold;vertical-align:top;">gateway_interface</td><td style="vertical-align:top;">:</td><td><div>CGI/1.1</div></td></tr><tr><td style="font-weight:bold;vertical-align:top;">gluon_parent</td><td style="vertical-align:top;">:</td><td><div>/home/www-data/web2py</div></td></tr><tr><td style="font-weight:bold;vertical-align:top;">http_accept</td><td style="vertical-align:top;">:</td><td><div>text/html,application/xhtml+xml,application/xml;q=0.9,image/webp,image/apng,*/*;q=0.8</div></td></tr><tr><td style="font-weight:bold;vertical-align:top;">http_accept_encoding</td><td style="vertical-align:top;">:</td><td><div>gzip, deflate, br</div></td></tr><tr><td style="font-weight:bold;vertical-align:top;">http_accept_language</td><td style="vertical-align:top;">:</td><td><div>fr-FR,fr;q=0.8,en-US;q=0.6,en;q=0.4</div></td></tr><tr><td style="font-weight:bold;vertical-align:top;">http_cache_control</td><td style="vertical-align:top;">:</td><td><div>max-age=0</div></td></tr><tr><td style="font-weight:bold;vertical-align:top;">http_connection</td><td style="vertical-align:top;">:</td><td><div>keep-alive</div></td></tr><tr><td style="font-weight:bold;vertical-align:top;">http_cookie</td><td style="vertical-align:top;">:</td><td><div>session_id_observatoireassemblee=83.203.170.41-820d7db2-0294-4aae-b786-6391edb8bfee; session_id_obsas_dev=83.203.181.3-57a24510-38a1-4c30-964a-208f8cd44b77; session_id_admin=83.203.170.106-62f39627-f7d7-4927-a80b-f6a1100be47c; session_id_oadev=83.203.181.3-1111a3c7-66ca-45ba-861f-c44bf4d32102</div></td></tr><tr><td style="font-weight:bold;vertical-align:top;">http_host</td><td style="vertical-align:top;">:</td><td><div>admin.obsas.orvdev.fr</div></td></tr><tr><td style="font-weight:bold;vertical-align:top;">http_upgrade_insecure_requests</td><td style="vertical-align:top;">:</td><td><div>1</div></td></tr><tr><td style="font-weight:bold;vertical-align:top;">http_user_agent</td><td style="vertical-align:top;">:</td><td><div>Mozilla/5.0 (X11; Linux x86_64) AppleWebKit/537.36 (KHTML, like Gecko) Chrome/60.0.3112.101 Safari/537.36</div></td></tr><tr><td style="font-weight:bold;vertical-align:top;">is_jython</td><td style="vertical-align:top;">:</td><td><div>False</div></td></tr><tr><td style="font-weight:bold;vertical-align:top;">is_py2</td><td style="vertical-align:top;">:</td><td><div>True</div></td></tr><tr><td style="font-weight:bold;vertical-align:top;">is_pypy</td><td style="vertical-align:top;">:</td><td><div>False</div></td></tr><tr><td style="font-weight:bold;vertical-align:top;">is_source</td><td style="vertical-align:top;">:</td><td><div>True</div></td></tr><tr><td style="font-weight:bold;vertical-align:top;">local_hosts</td><td style="vertical-align:top;">:</td><td><div><table><tr><td><div>vps433020</div></td></tr><tr><td><div>::ffff:127.0.0.1</div></td></tr><tr><td><div>::1</div></td></tr><tr><td><div>151.80.57.169</div></td></tr><tr><td><div>vps433020.ovh.net</div></td></tr><tr><td><div>127.0.1.1</div></td></tr><tr><td><div>admin.obsas.orvdev.fr</div></td></tr><tr><td><div>127.0.0.1</div></td></tr></table></div></td></tr><tr><td style="font-weight:bold;vertical-align:top;">mod_wsgi.application_group</td><td style="vertical-align:top;">:</td><td><div></div></td></tr><tr><td style="font-weight:bold;vertical-align:top;">mod_wsgi.callable_object</td><td style="vertical-align:top;">:</td><td><div>application</div></td></tr><tr><td style="font-weight:bold;vertical-align:top;">mod_wsgi.daemon_connects</td><td style="vertical-align:top;">:</td><td><div>1</div></td></tr><tr><td style="font-weight:bold;vertical-align:top;">mod_wsgi.daemon_restarts</td><td style="vertical-align:top;">:</td><td><div>0</div></td></tr><tr><td style="font-weight:bold;vertical-align:top;">mod_wsgi.daemon_start</td><td style="vertical-align:top;">:</td><td><div>1505689616693559</div></td></tr><tr><td style="font-weight:bold;vertical-align:top;">mod_wsgi.enable_sendfile</td><td style="vertical-align:top;">:</td><td><div>0</div></td></tr><tr><td style="font-weight:bold;vertical-align:top;">mod_wsgi.handler_script</td><td style="vertical-align:top;">:</td><td><div></div></td></tr><tr><td style="font-weight:bold;vertical-align:top;">mod_wsgi.input_chunked</td><td style="vertical-align:top;">:</td><td><div>0</div></td></tr><tr><td style="font-weight:bold;vertical-align:top;">mod_wsgi.listener_host</td><td style="vertical-align:top;">:</td><td><div></div></td></tr><tr><td style="font-weight:bold;vertical-align:top;">mod_wsgi.listener_port</td><td style="vertical-align:top;">:</td><td><div>443</div></td></tr><tr><td style="font-weight:bold;vertical-align:top;">mod_wsgi.process_group</td><td style="vertical-align:top;">:</td><td><div>obsasadm</div></td></tr><tr><td style="font-weight:bold;vertical-align:top;">mod_wsgi.queue_start</td><td style="vertical-align:top;">:</td><td><div>1505689616693352</div></td></tr><tr><td style="font-weight:bold;vertical-align:top;">mod_wsgi.request_handler</td><td style="vertical-align:top;">:</td><td><div>wsgi-script</div></td></tr><tr><td style="font-weight:bold;vertical-align:top;">mod_wsgi.request_start</td><td style="vertical-align:top;">:</td><td><div>1505689616692441</div></td></tr><tr><td style="font-weight:bold;vertical-align:top;">mod_wsgi.script_reloading</td><td style="vertical-align:top;">:</td><td><div>1</div></td></tr><tr><td style="font-weight:bold;vertical-align:top;">mod_wsgi.script_start</td><td style="vertical-align:top;">:</td><td><div>1505689616693612</div></td></tr><tr><td style="font-weight:bold;vertical-align:top;">mod_wsgi.version</td><td style="vertical-align:top;">:</td><td><div><table><tr><td><div>4</div></td></tr><tr><td><div>3</div></td></tr><tr><td><div>0</div></td></tr></table></div></td></tr><tr><td style="font-weight:bold;vertical-align:top;">mod_wsgi_application_group</td><td style="vertical-align:top;">:</td><td><div></div></td></tr><tr><td style="font-weight:bold;vertical-align:top;">mod_wsgi_callable_object</td><td style="vertical-align:top;">:</td><td><div>application</div></td></tr><tr><td style="font-weight:bold;vertical-align:top;">mod_wsgi_daemon_connects</td><td style="vertical-align:top;">:</td><td><div>1</div></td></tr><tr><td style="font-weight:bold;vertical-align:top;">mod_wsgi_daemon_restarts</td><td style="vertical-align:top;">:</td><td><div>0</div></td></tr><tr><td style="font-weight:bold;vertical-align:top;">mod_wsgi_daemon_start</td><td style="vertical-align:top;">:</td><td><div>1505689616693559</div></td></tr><tr><td style="font-weight:bold;vertical-align:top;">mod_wsgi_enable_sendfile</td><td style="vertical-align:top;">:</td><td><div>0</div></td></tr><tr><td style="font-weight:bold;vertical-align:top;">mod_wsgi_handler_script</td><td style="vertical-align:top;">:</td><td><div></div></td></tr><tr><td style="font-weight:bold;vertical-align:top;">mod_wsgi_input_chunked</td><td style="vertical-align:top;">:</td><td><div>0</div></td></tr><tr><td style="font-weight:bold;vertical-align:top;">mod_wsgi_listener_host</td><td style="vertical-align:top;">:</td><td><div></div></td></tr><tr><td style="font-weight:bold;vertical-align:top;">mod_wsgi_listener_port</td><td style="vertical-align:top;">:</td><td><div>443</div></td></tr><tr><td style="font-weight:bold;vertical-align:top;">mod_wsgi_process_group</td><td style="vertical-align:top;">:</td><td><div>obsasadm</div></td></tr><tr><td style="font-weight:bold;vertical-align:top;">mod_wsgi_queue_start</td><td style="vertical-align:top;">:</td><td><div>1505689616693352</div></td></tr><tr><td style="font-weight:bold;vertical-align:top;">mod_wsgi_request_handler</td><td style="vertical-align:top;">:</td><td><div>wsgi-script</div></td></tr><tr><td style="font-weight:bold;vertical-align:top;">mod_wsgi_request_start</td><td style="vertical-align:top;">:</td><td><div>1505689616692441</div></td></tr><tr><td style="font-weight:bold;vertical-align:top;">mod_wsgi_script_reloading</td><td style="vertical-align:top;">:</td><td><div>1</div></td></tr><tr><td style="font-weight:bold;vertical-align:top;">mod_wsgi_script_start</td><td style="vertical-align:top;">:</td><td><div>1505689616693612</div></td></tr><tr><td style="font-weight:bold;vertical-align:top;">mod_wsgi_version</td><td style="vertical-align:top;">:</td><td><div><table><tr><td><div>4</div></td></tr><tr><td><div>3</div></td></tr><tr><td><div>0</div></td></tr></table></div></td></tr><tr><td style="font-weight:bold;vertical-align:top;">nokeepalive</td><td style="vertical-align:top;">:</td><td><div>ssl-unclean-shutdown</div></td></tr><tr><td style="font-weight:bold;vertical-align:top;">path_info</td><td style="vertical-align:top;">:</td><td><div>/oadev/depute/index/loicprudhomme</div></td></tr><tr><td style="font-weight:bold;vertical-align:top;">path_translated</td><td style="vertical-align:top;">:</td><td><div>/home/www-data/web2py/wsgihandler.py/oadev/depute/index/loicprudhomme</div></td></tr><tr><td style="font-weight:bold;vertical-align:top;">query_string</td><td style="vertical-align:top;">:</td><td><div></div></td></tr><tr><td style="font-weight:bold;vertical-align:top;">remote_addr</td><td style="vertical-align:top;">:</td><td><div>83.203.181.3</div></td></tr><tr><td style="font-weight:bold;vertical-align:top;">remote_port</td><td style="vertical-align:top;">:</td><td><div>33297</div></td></tr><tr><td style="font-weight:bold;vertical-align:top;">request_method</td><td style="vertical-align:top;">:</td><td><div>GET</div></td></tr><tr><td style="font-weight:bold;vertical-align:top;">request_scheme</td><td style="vertical-align:top;">:</td><td><div>https</div></td></tr><tr><td style="font-weight:bold;vertical-align:top;">request_uri</td><td style="vertical-align:top;">:</td><td><div>/oadev/depute/index/loicprudhomme</div></td></tr><tr><td style="font-weight:bold;vertical-align:top;">script_filename</td><td style="vertical-align:top;">:</td><td><div>/home/www-data/web2py/wsgihandler.py</div></td></tr><tr><td style="font-weight:bold;vertical-align:top;">script_name</td><td style="vertical-align:top;">:</td><td><div></div></td></tr><tr><td style="font-weight:bold;vertical-align:top;">server_addr</td><td style="vertical-align:top;">:</td><td><div>151.80.57.169</div></td></tr><tr><td style="font-weight:bold;vertical-align:top;">server_admin</td><td style="vertical-align:top;">:</td><td><div>[no address given]</div></td></tr><tr><td style="font-weight:bold;vertical-align:top;">server_name</td><td style="vertical-align:top;">:</td><td><div>admin.obsas.orvdev.fr</div></td></tr><tr><td style="font-weight:bold;vertical-align:top;">server_port</td><td style="vertical-align:top;">:</td><td><div>443</div></td></tr><tr><td style="font-weight:bold;vertical-align:top;">server_protocol</td><td style="vertical-align:top;">:</td><td><div>HTTP/1.1</div></td></tr><tr><td style="font-weight:bold;vertical-align:top;">server_signature</td><td style="vertical-align:top;">:</td><td><div>&lt;address&gt;Apache/2.4.18 (Ubuntu) Server at admin.obsas.orvdev.fr Port 443&lt;/address&gt;\n</div></td></tr><tr><td style="font-weight:bold;vertical-align:top;">server_software</td><td style="vertical-align:top;">:</td><td><div>Apache/2.4.18 (Ubuntu)</div></td></tr><tr><td style="font-weight:bold;vertical-align:top;">ssl_tls_sni</td><td style="vertical-align:top;">:</td><td><div>admin.obsas.orvdev.fr</div></td></tr><tr><td style="font-weight:bold;vertical-align:top;">web2py_original_uri</td><td style="vertical-align:top;">:</td><td><div>/oadev/depute/index/loicprudhomme</div></td></tr><tr><td style="font-weight:bold;vertical-align:top;">web2py_path</td><td style="vertical-align:top;">:</td><td><div>/home/www-data/web2py</div></td></tr><tr><td style="font-weight:bold;vertical-align:top;">web2py_version</td><td style="vertical-align:top;">:</td><td><div>2.15.1-stable+timestamp.2017.07.10.21.25.06</div></td></tr><tr><td style="font-weight:bold;vertical-align:top;">wsgi.errors</td><td style="vertical-align:top;">:</td><td><div>&lt;mod_wsgi.Log object at 0x7f62bb759fa8&gt;</div></td></tr><tr><td style="font-weight:bold;vertical-align:top;">wsgi.file_wrapper</td><td style="vertical-align:top;">:</td><td><div>&lt;type &#x27;mod_wsgi.FileWrapper&#x27;&gt;</div></td></tr><tr><td style="font-weight:bold;vertical-align:top;">wsgi.input</td><td style="vertical-align:top;">:</td><td><div>&lt;mod_wsgi.Input object at 0x7f62c3a7d930&gt;</div></td></tr><tr><td style="font-weight:bold;vertical-align:top;">wsgi.multiprocess</td><td style="vertical-align:top;">:</td><td><div>False</div></td></tr><tr><td style="font-weight:bold;vertical-align:top;">wsgi.multithread</td><td style="vertical-align:top;">:</td><td><div>True</div></td></tr><tr><td style="font-weight:bold;vertical-align:top;">wsgi.run_once</td><td style="vertical-align:top;">:</td><td><div>False</div></td></tr><tr><td style="font-weight:bold;vertical-align:top;">wsgi.url_scheme</td><td style="vertical-align:top;">:</td><td><div>https</div></td></tr><tr><td style="font-weight:bold;vertical-align:top;">wsgi.version</td><td style="vertical-align:top;">:</td><td><div><table><tr><td><div>1</div></td></tr><tr><td><div>0</div></td></tr></table></div></td></tr><tr><td style="font-weight:bold;vertical-align:top;">wsgi_errors</td><td style="vertical-align:top;">:</td><td><div>&lt;mod_wsgi.Log object at 0x7f62bb759fa8&gt;</div></td></tr><tr><td style="font-weight:bold;vertical-align:top;">wsgi_file_wrapper</td><td style="vertical-align:top;">:</td><td><div>&lt;type &#x27;mod_wsgi.FileWrapper&#x27;&gt;</div></td></tr><tr><td style="font-weight:bold;vertical-align:top;">wsgi_input</td><td style="vertical-align:top;">:</td><td><div>&lt;mod_wsgi.Input object at 0x7f62c3a7d930&gt;</div></td></tr><tr><td style="font-weight:bold;vertical-align:top;">wsgi_multiprocess</td><td style="vertical-align:top;">:</td><td><div>False</div></td></tr><tr><td style="font-weight:bold;vertical-align:top;">wsgi_multithread</td><td style="vertical-align:top;">:</td><td><div>True</div></td></tr><tr><td style="font-weight:bold;vertical-align:top;">wsgi_run_once</td><td style="vertical-align:top;">:</td><td><div>False</div></td></tr><tr><td style="font-weight:bold;vertical-align:top;">wsgi_url_scheme</td><td style="vertical-align:top;">:</td><td><div>https</div></td></tr><tr><td style="font-weight:bold;vertical-align:top;">wsgi_version</td><td style="vertical-align:top;">:</td><td><div><table><tr><td><div>1</div></td></tr><tr><td><div>0</div></td></tr></table></div></td></tr></table></div></td></tr><tr><td style="font-weight:bold;vertical-align:top;">extension</td><td style="vertical-align:top;">:</td><td><div>html</div></td></tr><tr><td style="font-weight:bold;vertical-align:top;">folder</td><td style="vertical-align:top;">:</td><td><div>/home/www-data/web2py/applications/oadev/</div></td></tr><tr><td style="font-weight:bold;vertical-align:top;">function</td><td style="vertical-align:top;">:</td><td><div>index</div></td></tr><tr><td style="font-weight:bold;vertical-align:top;">global_settings</td><td style="vertical-align:top;">:</td><td><div><table><tr><td style="font-weight:bold;vertical-align:top;">app_folders</td><td style="vertical-align:top;">:</td><td><div>set([&#x27;/home/www-data/web2py/applications/admin/&#x27;, &#x27;/home/www-data/web2py/applications/oadev/&#x27;])</div></td></tr><tr><td style="font-weight:bold;vertical-align:top;">applications_parent</td><td style="vertical-align:top;">:</td><td><div>/home/www-data/web2py</div></td></tr><tr><td style="font-weight:bold;vertical-align:top;">db_sessions</td><td style="vertical-align:top;">:</td><td><div>set([])</div></td></tr><tr><td style="font-weight:bold;vertical-align:top;">debugging</td><td style="vertical-align:top;">:</td><td><div>False</div></td></tr><tr><td style="font-weight:bold;vertical-align:top;">gluon_parent</td><td style="vertical-align:top;">:</td><td><div>/home/www-data/web2py</div></td></tr><tr><td style="font-weight:bold;vertical-align:top;">is_jython</td><td style="vertical-align:top;">:</td><td><div>False</div></td></tr><tr><td style="font-weight:bold;vertical-align:top;">is_py2</td><td style="vertical-align:top;">:</td><td><div>True</div></td></tr><tr><td style="font-weight:bold;vertical-align:top;">is_pypy</td><td style="vertical-align:top;">:</td><td><div>False</div></td></tr><tr><td style="font-weight:bold;vertical-align:top;">is_source</td><td style="vertical-align:top;">:</td><td><div>True</div></td></tr><tr><td style="font-weight:bold;vertical-align:top;">local_hosts</td><td style="vertical-align:top;">:</td><td><div><table><tr><td><div>vps433020</div></td></tr><tr><td><div>::ffff:127.0.0.1</div></td></tr><tr><td><div>::1</div></td></tr><tr><td><div>151.80.57.169</div></td></tr><tr><td><div>vps433020.ovh.net</div></td></tr><tr><td><div>127.0.1.1</div></td></tr><tr><td><div>admin.obsas.orvdev.fr</div></td></tr><tr><td><div>127.0.0.1</div></td></tr></table></div></td></tr><tr><td style="font-weight:bold;vertical-align:top;">web2py_version</td><td style="vertical-align:top;">:</td><td><div>2.15.1-stable+timestamp.2017.07.10.21.25.06</div></td></tr></table></div></td></tr><tr><td style="font-weight:bold;vertical-align:top;">is_https</td><td style="vertical-align:top;">:</td><td><div>True</div></td></tr><tr><td style="font-weight:bold;vertical-align:top;">is_local</td><td style="vertical-align:top;">:</td><td><div>False</div></td></tr><tr><td style="font-weight:bold;vertical-align:top;">is_restful</td><td style="vertical-align:top;">:</td><td><div>False</div></td></tr><tr><td style="font-weight:bold;vertical-align:top;">is_scheduler</td><td style="vertical-align:top;">:</td><td><div>False</div></td></tr><tr><td style="font-weight:bold;vertical-align:top;">is_shell</td><td style="vertical-align:top;">:</td><td><div>False</div></td></tr><tr><td style="font-weight:bold;vertical-align:top;">now</td><td style="vertical-align:top;">:</td><td><div>datetime.datetime(2017, 9, 18, 1, 6, 56, 694591)</div></td></tr><tr><td style="font-weight:bold;vertical-align:top;">url</td><td style="vertical-align:top;">:</td><td><div>/oadev/depute/index/loicprudhomme</div></td></tr><tr><td style="font-weight:bold;vertical-align:top;">utcnow</td><td style="vertical-align:top;">:</td><td><div>datetime.datetime(2017, 9, 17, 23, 6, 56, 694783)</div></td></tr><tr><td style="font-weight:bold;vertical-align:top;">wsgi</td><td style="vertical-align:top;">:</td><td><div>&lt;gluon.main.LazyWSGI object at 0x7f62bb754710&gt;</div></td></tr></table></div>'
tRp60
sS'frames'
p61
(lp62
(dp63
S'file'
p64
S'/home/www-data/web2py/gluon/restricted.py'
p65
sS'dump'
p66
(dp67
S'environment'
p68
S"{'A': <class 'gluon.html.A'>, 'ANY_OF': <class 'gluon.validators.ANY_OF'>, 'ASSIGNJS': <function ASSIGNJS>, 'AppCache': <class __restricted__.AppCache>, 'AppConfig': <function AppConfig>, 'Auth': <class 'gluon.tools.Auth'>, 'B': <class 'gluon.html.B'>, 'BEAUTIFY': <class 'gluon.html.BEAUTIFY'>, 'BODY': <class 'gluon.html.BODY'>, 'BR': <class 'gluon.html.BR'>, ...}"
p69
sS'ccode'
p70
S'\'response.write(\\\'<!DOCTYPE html>\\\\n<html lang="fr"...ponse.write(\\\'\\\\n</body>\\\\n</html>\\\\n\\\', escape=False)\''
p71
ssS'lnum'
p72
I219
sS'lines'
p73
(dp74
I214
S'    if environment is None:'
p75
sI215
S'        environment = {}'
p76
sI216
S"    environment['__file__'] = layer"
p77
sI217
S"    environment['__name__'] = '__restricted__'"
p78
sI218
S'    try:'
p79
sI219
S'        exec(ccode, environment)'
p80
sI220
S'    except HTTP:'
p81
sI221
S'        raise'
p82
sI222
S'    except RestrictedError:'
p83
sI223
S'        # do not encapsulate (obfuscate) the original RestrictedError'
p84
ssS'call'
p85
S'(ccode=\'response.write(\\\'<!DOCTYPE html>\\\\n<html lang="fr"...ponse.write(\\\'\\\\n</body>\\\\n</html>\\\\n\\\', escape=False)\', environment={\'A\': <class \'gluon.html.A\'>, \'ANY_OF\': <class \'gluon.validators.ANY_OF\'>, \'ASSIGNJS\': <function ASSIGNJS>, \'AppCache\': <class __restricted__.AppCache>, \'AppConfig\': <function AppConfig>, \'Auth\': <class \'gluon.tools.Auth\'>, \'B\': <class \'gluon.html.B\'>, \'BEAUTIFY\': <class \'gluon.html.BEAUTIFY\'>, \'BODY\': <class \'gluon.html.BODY\'>, \'BR\': <class \'gluon.html.BR\'>, ...}, layer=\'/home/www-data/web2py/applications/oadev/views/depute/index.html\')'
p86
sS'func'
p87
S'restricted'
p88
sa(dp89
g64
S'/home/www-data/web2py/<string>'
p90
sg66
(dp91
sg72
I163
sg73
(dp92
sg85
S'()'
p93
sg87
S'<module>'
p94
sasS'pyver'
p95
S'Python 2.7.12: /home/www-data/web2py/applications/obsas_dev/.pyenv/bin/python (prefix: /home/www-data/web2py/applications/obsas_dev/.pyenv)'
p96
sS'session'
p97
g59
(S's\x1a\x00\x00\x00<div><table></table></div>'
tRp98
sS'etype'
p99
S"<type 'exceptions.NameError'>"
p100
sS'date'
p101
S'Mon Sep 18 01:06:57 2017'
p102
sS'response'
p103
g59
(S's\x12>\x00\x00<div><table><tr><td style="font-weight:bold;vertical-align:top;">body</td><td style="vertical-align:top;">:</td><td><div>&lt;cStringIO.StringO object at 0x7f62db3cddc0&gt;</div></td></tr><tr><td style="font-weight:bold;vertical-align:top;">cookies</td><td style="vertical-align:top;">:</td><td><div><table><tr><td style="font-weight:bold;vertical-align:top;">session_id_oadev</td><td style="vertical-align:top;">:</td><td><div>83.203.181.3-8faf8aff-07b2-4638-bb16-e8150f45b5a4<table><tr><td style="font-weight:bold;vertical-align:top;">comment</td><td style="vertical-align:top;">:</td><td><div></div></td></tr><tr><td style="font-weight:bold;vertical-align:top;">domain</td><td style="vertical-align:top;">:</td><td><div></div></td></tr><tr><td style="font-weight:bold;vertical-align:top;">expires</td><td style="vertical-align:top;">:</td><td><div></div></td></tr><tr><td style="font-weight:bold;vertical-align:top;">httponly</td><td style="vertical-align:top;">:</td><td><div></div></td></tr><tr><td style="font-weight:bold;vertical-align:top;">max-age</td><td style="vertical-align:top;">:</td><td><div></div></td></tr><tr><td style="font-weight:bold;vertical-align:top;">path</td><td style="vertical-align:top;">:</td><td><div>/</div></td></tr><tr><td style="font-weight:bold;vertical-align:top;">secure</td><td style="vertical-align:top;">:</td><td><div></div></td></tr><tr><td style="font-weight:bold;vertical-align:top;">version</td><td style="vertical-align:top;">:</td><td><div></div></td></tr></table></div></td></tr></table></div></td></tr><tr><td style="font-weight:bold;vertical-align:top;">delimiters</td><td style="vertical-align:top;">:</td><td><div><table><tr><td><div>{{</div></td></tr><tr><td><div>}}</div></td></tr></table></div></td></tr><tr><td style="font-weight:bold;vertical-align:top;">files</td><td style="vertical-align:top;">:</td><td><div><table></table></div></td></tr><tr><td style="font-weight:bold;vertical-align:top;">flash</td><td style="vertical-align:top;">:</td><td><div></div></td></tr><tr><td style="font-weight:bold;vertical-align:top;">form_label_separator</td><td style="vertical-align:top;">:</td><td><div></div></td></tr><tr><td style="font-weight:bold;vertical-align:top;">formstyle</td><td style="vertical-align:top;">:</td><td><div>bootstrap3_inline</div></td></tr><tr><td style="font-weight:bold;vertical-align:top;">generic_patterns</td><td style="vertical-align:top;">:</td><td><div><table><tr><td><div>*.json</div></td></tr></table></div></td></tr><tr><td style="font-weight:bold;vertical-align:top;">google_analytics_id</td><td style="vertical-align:top;">:</td><td><div>None</div></td></tr><tr><td style="font-weight:bold;vertical-align:top;">headers</td><td style="vertical-align:top;">:</td><td><div><table><tr><td style="font-weight:bold;vertical-align:top;">X-Powered-By</td><td style="vertical-align:top;">:</td><td><div>web2py</div></td></tr></table></div></td></tr><tr><td style="font-weight:bold;vertical-align:top;">logo</td><td style="vertical-align:top;">:</td><td><div><a class="navbar-brand" href="http://www.web2py.com/" id="web2py-logo"><b>web<span>2</span>py</b>&trade;&nbsp;</a></div></td></tr><tr><td style="font-weight:bold;vertical-align:top;">menu</td><td style="vertical-align:top;">:</td><td><div><table><tr><td><div><table><tr><td><div>Accueil</div></td></tr><tr><td><div>False</div></td></tr><tr><td><div>/oadev</div></td></tr><tr><td><div><table></table></div></td></tr></table></div></td></tr><tr><td><div><table><tr><td><div>Mes sites</div></td></tr><tr><td><div>False</div></td></tr><tr><td><div>/admin/site</div></td></tr></table></div></td></tr><tr><td><div><table><tr><td><div>Cette Appli</div></td></tr><tr><td><div>False</div></td></tr><tr><td><div>#</div></td></tr><tr><td><div><table><tr><td><div><table><tr><td><div>Design</div></td></tr><tr><td><div>False</div></td></tr><tr><td><div>/admin/design/oadev</div></td></tr></table></div></td></tr><tr><td><div><li class="divider"></li></div></td></tr><tr><td><div><table><tr><td><div>Contr\xc3\xb4leur</div></td></tr><tr><td><div>False</div></td></tr><tr><td><div>/admin/edit/oadev/controllers/depute.py</div></td></tr></table></div></td></tr><tr><td><div><table><tr><td><div>Pr\xc3\xa9sentation</div></td></tr><tr><td><div>False</div></td></tr><tr><td><div>/admin/edit/oadev/views/depute/index.html</div></td></tr></table></div></td></tr><tr><td><div><table><tr><td><div>Mod\xc3\xa8le BD</div></td></tr><tr><td><div>False</div></td></tr><tr><td><div>/admin/edit/oadev/models/db.py</div></td></tr></table></div></td></tr><tr><td><div><table><tr><td><div>Menu mod\xc3\xa8le</div></td></tr><tr><td><div>False</div></td></tr><tr><td><div>/admin/edit/oadev/models/menu.py</div></td></tr></table></div></td></tr><tr><td><div><table><tr><td><div>Config.ini</div></td></tr><tr><td><div>False</div></td></tr><tr><td><div>/admin/edit/oadev/private/appconfig.ini</div></td></tr></table></div></td></tr><tr><td><div><table><tr><td><div>Mise en page</div></td></tr><tr><td><div>False</div></td></tr><tr><td><div>/admin/edit/oadev/views/layout.html</div></td></tr></table></div></td></tr><tr><td><div><table><tr><td><div>Feuille de style</div></td></tr><tr><td><div>False</div></td></tr><tr><td><div>/admin/edit/oadev/static/css/web2py-bootstrap3.css</div></td></tr></table></div></td></tr><tr><td><div><table><tr><td><div>base de donn\xc3\xa9es</div></td></tr><tr><td><div>False</div></td></tr><tr><td><div>/oadev/appadmin</div></td></tr></table></div></td></tr><tr><td><div><table><tr><td><div>Erreurs</div></td></tr><tr><td><div>False</div></td></tr><tr><td><div>/admin/errors/oadev</div></td></tr></table></div></td></tr><tr><td><div><table><tr><td><div>\xc3\x80 propos</div></td></tr><tr><td><div>False</div></td></tr><tr><td><div>/admin/about/oadev</div></td></tr></table></div></td></tr></table></div></td></tr></table></div></td></tr><tr><td><div><table><tr><td><div>web2py.com</div></td></tr><tr><td><div>False</div></td></tr><tr><td><div>#</div></td></tr><tr><td><div><table><tr><td><div><table><tr><td><div>T\xc3\xa9l\xc3\xa9chargement</div></td></tr><tr><td><div>False</div></td></tr><tr><td><div>http://www.web2py.com/examples/default/download</div></td></tr></table></div></td></tr><tr><td><div><table><tr><td><div>Soutien</div></td></tr><tr><td><div>False</div></td></tr><tr><td><div>http://www.web2py.com/examples/default/support</div></td></tr></table></div></td></tr><tr><td><div><table><tr><td><div>D\xc3\xa9mo</div></td></tr><tr><td><div>False</div></td></tr><tr><td><div>http://web2py.com/demo_admin</div></td></tr></table></div></td></tr><tr><td><div><table><tr><td><div>Exemples Rapides</div></td></tr><tr><td><div>False</div></td></tr><tr><td><div>http://web2py.com/examples/default/examples</div></td></tr></table></div></td></tr><tr><td><div><table><tr><td><div>FAQ</div></td></tr><tr><td><div>False</div></td></tr><tr><td><div>http://web2py.com/AlterEgo</div></td></tr></table></div></td></tr><tr><td><div><table><tr><td><div>Vid\xc3\xa9os</div></td></tr><tr><td><div>False</div></td></tr><tr><td><div>http://www.web2py.com/examples/default/videos/</div></td></tr></table></div></td></tr><tr><td><div><table><tr><td><div>Applications gratuites</div></td></tr><tr><td><div>False</div></td></tr><tr><td><div>http://web2py.com/appliances</div></td></tr></table></div></td></tr><tr><td><div><table><tr><td><div>Plugiciels</div></td></tr><tr><td><div>False</div></td></tr><tr><td><div>http://web2py.com/plugins</div></td></tr></table></div></td></tr><tr><td><div><table><tr><td><div>Recettes</div></td></tr><tr><td><div>False</div></td></tr><tr><td><div>http://web2pyslices.com/</div></td></tr></table></div></td></tr></table></div></td></tr></table></div></td></tr><tr><td><div><table><tr><td><div>Documentation</div></td></tr><tr><td><div>False</div></td></tr><tr><td><div>#</div></td></tr><tr><td><div><table><tr><td><div><table><tr><td><div>Online book</div></td></tr><tr><td><div>False</div></td></tr><tr><td><div>http://www.web2py.com/book</div></td></tr></table></div></td></tr><tr><td><div><li class="divider"></li></div></td></tr><tr><td><div><table><tr><td><div>Pr\xc3\xa9face</div></td></tr><tr><td><div>False</div></td></tr><tr><td><div>http://www.web2py.com/book/default/chapter/00</div></td></tr></table></div></td></tr><tr><td><div><table><tr><td><div>Pr\xc3\xa9sentation</div></td></tr><tr><td><div>False</div></td></tr><tr><td><div>http://www.web2py.com/book/default/chapter/01</div></td></tr></table></div></td></tr><tr><td><div><table><tr><td><div>Python</div></td></tr><tr><td><div>False</div></td></tr><tr><td><div>http://www.web2py.com/book/default/chapter/02</div></td></tr></table></div></td></tr><tr><td><div><table><tr><td><div>Pr\xc3\xa9sentation</div></td></tr><tr><td><div>False</div></td></tr><tr><td><div>http://www.web2py.com/book/default/chapter/03</div></td></tr></table></div></td></tr><tr><td><div><table><tr><td><div>Le noyau</div></td></tr><tr><td><div>False</div></td></tr><tr><td><div>http://www.web2py.com/book/default/chapter/04</div></td></tr></table></div></td></tr><tr><td><div><table><tr><td><div>Les Vues</div></td></tr><tr><td><div>False</div></td></tr><tr><td><div>http://www.web2py.com/book/default/chapter/05</div></td></tr></table></div></td></tr><tr><td><div><table><tr><td><div>base de donn\xc3\xa9es</div></td></tr><tr><td><div>False</div></td></tr><tr><td><div>http://www.web2py.com/book/default/chapter/06</div></td></tr></table></div></td></tr><tr><td><div><table><tr><td><div>Formulaires et Validateurs</div></td></tr><tr><td><div>False</div></td></tr><tr><td><div>http://www.web2py.com/book/default/chapter/07</div></td></tr></table></div></td></tr><tr><td><div><table><tr><td><div>Courriel et texto</div></td></tr><tr><td><div>False</div></td></tr><tr><td><div>http://www.web2py.com/book/default/chapter/08</div></td></tr></table></div></td></tr><tr><td><div><table><tr><td><div>Contr\xc3\xb4le d\'acc\xc3\xa8s</div></td></tr><tr><td><div>False</div></td></tr><tr><td><div>http://www.web2py.com/book/default/chapter/09</div></td></tr></table></div></td></tr><tr><td><div><table><tr><td><div>Services</div></td></tr><tr><td><div>False</div></td></tr><tr><td><div>http://www.web2py.com/book/default/chapter/10</div></td></tr></table></div></td></tr><tr><td><div><table><tr><td><div>Recettes Ajax</div></td></tr><tr><td><div>False</div></td></tr><tr><td><div>http://www.web2py.com/book/default/chapter/11</div></td></tr></table></div></td></tr><tr><td><div><table><tr><td><div>Composants et Plugiciels</div></td></tr><tr><td><div>False</div></td></tr><tr><td><div>http://www.web2py.com/book/default/chapter/12</div></td></tr></table></div></td></tr><tr><td><div><table><tr><td><div>Recettes de d\xc3\xa9ploiement</div></td></tr><tr><td><div>False</div></td></tr><tr><td><div>http://www.web2py.com/book/default/chapter/13</div></td></tr></table></div></td></tr><tr><td><div><table><tr><td><div>Autres recettes</div></td></tr><tr><td><div>False</div></td></tr><tr><td><div>http://www.web2py.com/book/default/chapter/14</div></td></tr></table></div></td></tr><tr><td><div><table><tr><td><div>Aider web2py</div></td></tr><tr><td><div>False</div></td></tr><tr><td><div>http://www.web2py.com/book/default/chapter/15</div></td></tr></table></div></td></tr><tr><td><div><table><tr><td><div>Buy web2py\'s book</div></td></tr><tr><td><div>False</div></td></tr><tr><td><div>http://stores.lulu.com/web2py</div></td></tr></table></div></td></tr></table></div></td></tr></table></div></td></tr><tr><td><div><table><tr><td><div>Communaut\xc3\xa9</div></td></tr><tr><td><div>False</div></td></tr><tr><td><div>None</div></td></tr><tr><td><div><table><tr><td><div><table><tr><td><div>Groupes</div></td></tr><tr><td><div>False</div></td></tr><tr><td><div>http://www.web2py.com/examples/default/usergroups</div></td></tr></table></div></td></tr><tr><td><div><table><tr><td><div>Twitter</div></td></tr><tr><td><div>False</div></td></tr><tr><td><div>http://twitter.com/web2py</div></td></tr></table></div></td></tr><tr><td><div><table><tr><td><div>Clavardage en direct</div></td></tr><tr><td><div>False</div></td></tr><tr><td><div>http://webchat.freenode.net/?channels=web2py</div></td></tr></table></div></td></tr></table></div></td></tr></table></div></td></tr></table></div></td></tr><tr><td style="font-weight:bold;vertical-align:top;">meta</td><td style="vertical-align:top;">:</td><td><div><table><tr><td style="font-weight:bold;vertical-align:top;">author</td><td style="vertical-align:top;">:</td><td><div>Your Name &lt;you@example.com&gt;</div></td></tr><tr><td style="font-weight:bold;vertical-align:top;">description</td><td style="vertical-align:top;">:</td><td><div>a cool new app</div></td></tr><tr><td style="font-weight:bold;vertical-align:top;">generator</td><td style="vertical-align:top;">:</td><td><div>Web2py Web Framework</div></td></tr><tr><td style="font-weight:bold;vertical-align:top;">keywords</td><td style="vertical-align:top;">:</td><td><div><table><tr><td><div>web2py</div></td></tr><tr><td><div>python</div></td></tr><tr><td><div>framework</div></td></tr></table></div></td></tr></table></div></td></tr><tr><td style="font-weight:bold;vertical-align:top;">models_to_run</td><td style="vertical-align:top;">:</td><td><div><table><tr><td><div>^\\w+\\.py$</div></td></tr><tr><td><div>^depute/\\w+\\.py$</div></td></tr><tr><td><div>^depute/index/\\w+\\.py$</div></td></tr></table></div></td></tr><tr><td style="font-weight:bold;vertical-align:top;">postprocessing</td><td style="vertical-align:top;">:</td><td><div><table></table></div></td></tr><tr><td style="font-weight:bold;vertical-align:top;">session_client</td><td style="vertical-align:top;">:</td><td><div>83.203.181.3</div></td></tr><tr><td style="font-weight:bold;vertical-align:top;">session_cookie_compression_level</td><td style="vertical-align:top;">:</td><td><div>None</div></td></tr><tr><td style="font-weight:bold;vertical-align:top;">session_cookie_expires</td><td style="vertical-align:top;">:</td><td><div>None</div></td></tr><tr><td style="font-weight:bold;vertical-align:top;">session_data_name</td><td style="vertical-align:top;">:</td><td><div>session_data_oadev</div></td></tr><tr><td style="font-weight:bold;vertical-align:top;">session_file</td><td style="vertical-align:top;">:</td><td><div>None</div></td></tr><tr><td style="font-weight:bold;vertical-align:top;">session_filename</td><td style="vertical-align:top;">:</td><td><div>/home/www-data/web2py/applications/oadev/sessions/83.203.181.3-8faf8aff-07b2-4638-bb16-e8150f45b5a4</div></td></tr><tr><td style="font-weight:bold;vertical-align:top;">session_hash</td><td style="vertical-align:top;">:</td><td><div>c0762cbf4baf7f9af97c051e7fcb8083</div></td></tr><tr><td style="font-weight:bold;vertical-align:top;">session_id</td><td style="vertical-align:top;">:</td><td><div>83.203.181.3-8faf8aff-07b2-4638-bb16-e8150f45b5a4</div></td></tr><tr><td style="font-weight:bold;vertical-align:top;">session_id_name</td><td style="vertical-align:top;">:</td><td><div>session_id_oadev</div></td></tr><tr><td style="font-weight:bold;vertical-align:top;">session_masterapp</td><td style="vertical-align:top;">:</td><td><div>oadev</div></td></tr><tr><td style="font-weight:bold;vertical-align:top;">session_new</td><td style="vertical-align:top;">:</td><td><div>True</div></td></tr><tr><td style="font-weight:bold;vertical-align:top;">session_storage_type</td><td style="vertical-align:top;">:</td><td><div>file</div></td></tr><tr><td style="font-weight:bold;vertical-align:top;">status</td><td style="vertical-align:top;">:</td><td><div>200</div></td></tr><tr><td style="font-weight:bold;vertical-align:top;">subtitle</td><td style="vertical-align:top;">:</td><td><div></div></td></tr><tr><td style="font-weight:bold;vertical-align:top;">title</td><td style="vertical-align:top;">:</td><td><div>Oadev</div></td></tr><tr><td style="font-weight:bold;vertical-align:top;">view</td><td style="vertical-align:top;">:</td><td><div>depute/index.html</div></td></tr></table></div>'
tRp104
sS'locals'
p105
(dp106
S'Service'
p107
S"<class 'gluon.tools.Service'>"
p108
sS'PY2'
p109
S'True'
p110
sS'OBJECT'
p111
S"<class 'gluon.html.OBJECT'>"
p112
sS'IS_IPV6'
p113
S"<class 'gluon.validators.IS_IPV6'>"
p114
sS'SQLDB'
p115
S"<class 'pydal.base.DAL'>"
p116
sS'colors'
p117
S"{'FI': 'rgba(12,195,214,1)', 'GDR': 'rgba(192,0,0,1)', 'LC': 'rgba(112,48,160,1)', 'LR': 'rgba(47,85,151,1)', 'MODEM': 'rgba(237,125,49,1)', 'NG': 'rgba(234,52,208,1)', 'NI': 'rgba(191,191,191,1)', 'REM': 'rgba(255,192,0,1)'}"
p118
sg97
S'<Storage {}>'
p119
sS'LINK'
p120
S"<class 'gluon.html.LINK'>"
p121
sS'BR'
p122
S"<class 'gluon.html.BR'>"
p123
sS'local_import'
p124
S'<function <lambda>>'
p125
sVdepute_suppleant
p126
S"u'Mme Tiphaine Maurin'"
p127
sVdepute_dateelec
p128
S"u'18/06/2017'"
p129
sS'__package__'
p130
S'None'
p131
sS'PRE'
p132
S"<class 'gluon.html.PRE'>"
p133
sS'IS_INT_IN_RANGE'
p134
S"<class 'gluon.validators.IS_INT_IN_RANGE'>"
p135
sS'votes'
p136
S'[{u\'_id\': ObjectId(\'59befa608e5c9b3857105548\'), u\'depute_age\': 48, u\'depute_classeage\': u\'40-50 ans\', u\'depute_csp\': u\'Professions Interm\\xe9diaires\', u\'depute_departement\': u\'Gironde\', u\'depute_nom\': u"M. Lo\\xefc Prud\'homme", u\'depute_region\': u\'Nouvelle-Aquitaine\', u\'depute_sexe\': u\'Femme\', u\'depute_typeregion\': u\'M\\xe9tropolitain\', u\'depute_uid\': u\'PA719578\', ...}, {u\'_id\': ObjectId(\'59befa608e5c9b3857105549\'), u\'depute_age\': 48, u\'depute_classeage\': u\'40-50 ans\', u\'depute_csp\': u\'Professions Interm\\xe9diaires\', u\'depute_departement\': u\'Gironde\', u\'depute_nom\': u"M. Lo\\xefc Prud\'homme", u\'depute_region\': u\'Nouvelle-Aquitaine\', u\'depute_sexe\': u\'Femme\', u\'depute_typeregion\': u\'M\\xe9tropolitain\', u\'depute_uid\': u\'PA719578\', ...}, {u\'_id\': ObjectId(\'59befa608e5c9b385710554a\'), u\'depute_age\': 48, u\'depute_classeage\': u\'40-50 ans\', u\'depute_csp\': u\'Professions Interm\\xe9diaires\', u\'depute_departement\': u\'Gironde\', u\'depute_nom\': u"M. Lo\\xefc Prud\'homme", u\'depute_region\': u\'Nouvelle-Aquitaine\', u\'depute_sexe\': u\'Femme\', u\'depute_typeregion\': u\'M\\xe9tropolitain\', u\'depute_uid\': u\'PA719578\', ...}, {u\'_id\': ObjectId(\'59befa608e5c9b385710554b\'), u\'depute_age\': 48, u\'depute_classeage\': u\'40-50 ans\', u\'depute_csp\': u\'Professions Interm\\xe9diaires\', u\'depute_departement\': u\'Gironde\', u\'depute_nom\': u"M. Lo\\xefc Prud\'homme", u\'depute_region\': u\'Nouvelle-Aquitaine\', u\'depute_sexe\': u\'Femme\', u\'depute_typeregion\': u\'M\\xe9tropolitain\', u\'depute_uid\': u\'PA719578\', ...}, {u\'_id\': ObjectId(\'59befa608e5c9b385710554c\'), u\'depute_age\': 48, u\'depute_classeage\': u\'40-50 ans\', u\'depute_csp\': u\'Professions Interm\\xe9diaires\', u\'depute_departement\': u\'Gironde\', u\'depute_nom\': u"M. Lo\\xefc Prud\'homme", u\'depute_region\': u\'Nouvelle-Aquitaine\', u\'depute_sexe\': u\'Femme\', u\'depute_typeregion\': u\'M\\xe9tropolitain\', u\'depute_uid\': u\'PA719578\', ...}, {u\'_id\': ObjectId(\'59befa608e5c9b385710554d\'), u\'depute_age\': 48, u\'depute_classeage\': u\'40-50 ans\', u\'depute_csp\': u\'Professions Interm\\xe9diaires\', u\'depute_departement\': u\'Gironde\', u\'depute_nom\': u"M. Lo\\xefc Prud\'homme", u\'depute_region\': u\'Nouvelle-Aquitaine\', u\'depute_sexe\': u\'Femme\', u\'depute_typeregion\': u\'M\\xe9tropolitain\', u\'depute_uid\': u\'PA719578\', ...}, {u\'_id\': ObjectId(\'59befa608e5c9b385710553d\'), u\'depute_age\': 48, u\'depute_classeage\': u\'40-50 ans\', u\'depute_csp\': u\'Professions Interm\\xe9diaires\', u\'depute_departement\': u\'Gironde\', u\'depute_nom\': u"M. Lo\\xefc Prud\'homme", u\'depute_region\': u\'Nouvelle-Aquitaine\', u\'depute_sexe\': u\'Femme\', u\'depute_typeregion\': u\'M\\xe9tropolitain\', u\'depute_uid\': u\'PA719578\', ...}, {u\'_id\': ObjectId(\'59befa608e5c9b385710553e\'), u\'depute_age\': 48, u\'depute_classeage\': u\'40-50 ans\', u\'depute_csp\': u\'Professions Interm\\xe9diaires\', u\'depute_departement\': u\'Gironde\', u\'depute_nom\': u"M. Lo\\xefc Prud\'homme", u\'depute_region\': u\'Nouvelle-Aquitaine\', u\'depute_sexe\': u\'Femme\', u\'depute_typeregion\': u\'M\\xe9tropolitain\', u\'depute_uid\': u\'PA719578\', ...}, {u\'_id\': ObjectId(\'59befa608e5c9b385710553f\'), u\'depute_age\': 48, u\'depute_classeage\': u\'40-50 ans\', u\'depute_csp\': u\'Professions Interm\\xe9diaires\', u\'depute_departement\': u\'Gironde\', u\'depute_nom\': u"M. Lo\\xefc Prud\'homme", u\'depute_region\': u\'Nouvelle-Aquitaine\', u\'depute_sexe\': u\'Femme\', u\'depute_typeregion\': u\'M\\xe9tropolitain\', u\'depute_uid\': u\'PA719578\', ...}, {u\'_id\': ObjectId(\'59befa608e5c9b3857105540\'), u\'depute_age\': 48, u\'depute_classeage\': u\'40-50 ans\', u\'depute_csp\': u\'Professions Interm\\xe9diaires\', u\'depute_departement\': u\'Gironde\', u\'depute_nom\': u"M. Lo\\xefc Prud\'homme", u\'depute_region\': u\'Nouvelle-Aquitaine\', u\'depute_sexe\': u\'Femme\', u\'depute_typeregion\': u\'M\\xe9tropolitain\', u\'depute_uid\': u\'PA719578\', ...}, {u\'_id\': ObjectId(\'59befa608e5c9b3857105541\'), u\'depute_age\': 48, u\'depute_classeage\': u\'40-50 ans\', u\'depute_csp\': u\'Professions Interm\\xe9diaires\', u\'depute_departement\': u\'Gironde\', u\'depute_nom\': u"M. Lo\\xefc Prud\'homme", u\'depute_region\': u\'Nouvelle-Aquitaine\', u\'depute_sexe\': u\'Femme\', u\'depute_typeregion\': u\'M\\xe9tropolitain\', u\'depute_uid\': u\'PA719578\', ...}, {u\'_id\': ObjectId(\'59befa608e5c9b3857105542\'), u\'depute_age\': 48, u\'depute_classeage\': u\'40-50 ans\', u\'depute_csp\': u\'Professions Interm\\xe9diaires\', u\'depute_departement\': u\'Gironde\', u\'depute_nom\': u"M. Lo\\xefc Prud\'homme", u\'depute_region\': u\'Nouvelle-Aquitaine\', u\'depute_sexe\': u\'Femme\', u\'depute_typeregion\': u\'M\\xe9tropolitain\', u\'depute_uid\': u\'PA719578\', ...}, {u\'_id\': ObjectId(\'59befa608e5c9b3857105543\'), u\'depute_age\': 48, u\'depute_classeage\': u\'40-50 ans\', u\'depute_csp\': u\'Professions Interm\\xe9diaires\', u\'depute_departement\': u\'Gironde\', u\'depute_nom\': u"M. Lo\\xefc Prud\'homme", u\'depute_region\': u\'Nouvelle-Aquitaine\', u\'depute_sexe\': u\'Femme\', u\'depute_typeregion\': u\'M\\xe9tropolitain\', u\'depute_uid\': u\'PA719578\', ...}, {u\'_id\': ObjectId(\'59befa608e5c9b3857105544\'), u\'depute_age\': 48, u\'depute_classeage\': u\'40-50 ans\', u\'depute_csp\': u\'Professions Interm\\xe9diaires\', u\'depute_departement\': u\'Gironde\', u\'depute_nom\': u"M. Lo\\xefc Prud\'homme", u\'depute_region\': u\'Nouvelle-Aquitaine\', u\'depute_sexe\': u\'Femme\', u\'depute_typeregion\': u\'M\\xe9tropolitain\', u\'depute_uid\': u\'PA719578\', ...}, {u\'_id\': ObjectId(\'59befa608e5c9b3857105545\'), u\'depute_age\': 48, u\'depute_classeage\': u\'40-50 ans\', u\'depute_csp\': u\'Professions Interm\\xe9diaires\', u\'depute_departement\': u\'Gironde\', u\'depute_nom\': u"M. Lo\\xefc Prud\'homme", u\'depute_region\': u\'Nouvelle-Aquitaine\', u\'depute_sexe\': u\'Femme\', u\'depute_typeregion\': u\'M\\xe9tropolitain\', u\'depute_uid\': u\'PA719578\', ...}, {u\'_id\': ObjectId(\'59befa608e5c9b3857105546\'), u\'depute_age\': 48, u\'depute_classeage\': u\'40-50 ans\', u\'depute_csp\': u\'Professions Interm\\xe9diaires\', u\'depute_departement\': u\'Gironde\', u\'depute_nom\': u"M. Lo\\xefc Prud\'homme", u\'depute_region\': u\'Nouvelle-Aquitaine\', u\'depute_sexe\': u\'Femme\', u\'depute_typeregion\': u\'M\\xe9tropolitain\', u\'depute_uid\': u\'PA719578\', ...}, {u\'_id\': ObjectId(\'59befa608e5c9b3857105547\'), u\'depute_age\': 48, u\'depute_classeage\': u\'40-50 ans\', u\'depute_csp\': u\'Professions Interm\\xe9diaires\', u\'depute_departement\': u\'Gironde\', u\'depute_nom\': u"M. Lo\\xefc Prud\'homme", u\'depute_region\': u\'Nouvelle-Aquitaine\', u\'depute_sexe\': u\'Femme\', u\'depute_typeregion\': u\'M\\xe9tropolitain\', u\'depute_uid\': u\'PA719578\', ...}, {u\'_id\': ObjectId(\'59befa608e5c9b3857105530\'), u\'depute_age\': 48, u\'depute_classeage\': u\'40-50 ans\', u\'depute_csp\': u\'Professions Interm\\xe9diaires\', u\'depute_departement\': u\'Gironde\', u\'depute_nom\': u"M. Lo\\xefc Prud\'homme", u\'depute_region\': u\'Nouvelle-Aquitaine\', u\'depute_sexe\': u\'Femme\', u\'depute_typeregion\': u\'M\\xe9tropolitain\', u\'depute_uid\': u\'PA719578\', ...}, {u\'_id\': ObjectId(\'59befa608e5c9b3857105531\'), u\'depute_age\': 48, u\'depute_classeage\': u\'40-50 ans\', u\'depute_csp\': u\'Professions Interm\\xe9diaires\', u\'depute_departement\': u\'Gironde\', u\'depute_nom\': u"M. Lo\\xefc Prud\'homme", u\'depute_region\': u\'Nouvelle-Aquitaine\', u\'depute_sexe\': u\'Femme\', u\'depute_typeregion\': u\'M\\xe9tropolitain\', u\'depute_uid\': u\'PA719578\', ...}, {u\'_id\': ObjectId(\'59befa608e5c9b3857105532\'), u\'depute_age\': 48, u\'depute_classeage\': u\'40-50 ans\', u\'depute_csp\': u\'Professions Interm\\xe9diaires\', u\'depute_departement\': u\'Gironde\', u\'depute_nom\': u"M. Lo\\xefc Prud\'homme", u\'depute_region\': u\'Nouvelle-Aquitaine\', u\'depute_sexe\': u\'Femme\', u\'depute_typeregion\': u\'M\\xe9tropolitain\', u\'depute_uid\': u\'PA719578\', ...}, ...]'
p137
sS'to_bytes'
p138
S'<function to_bytes>'
p139
sS'IS_LOWER'
p140
S"<class 'gluon.validators.IS_LOWER'>"
p141
sS'icons'
p142
S"{'absent': 'fa-question', 'abstention': 'fa-microphone-slash', 'contre': 'fa-thumbs-down', 'pour': 'fa-thumbs-up'}"
p143
sS'cache'
p144
S'<gluon.cache.Cache object>'
p145
sS'vide'
p146
S'<function vide>'
p147
sS'IS_IN_DB'
p148
S"<class 'gluon.validators.IS_IN_DB'>"
p149
sS'sortfcts'
p150
S"{'alpha': {'fct': <function <lambda>>, 'libelle': 'Ordre Alphab\\xc3\\xa9tique'}, 'alphanom': {'fct': <function <lambda>>, 'libelle': 'Ordre Alphab\\xc3\\xa9tique (nom prenom)'}, 'datescrutin': {'fct': <function <lambda>>, 'libelle': 'par N\\xc2\\xb0 de scrutin'}, 'emcompat': {'fct': <function <lambda>>, 'libelle': 'EM-Compatibilit\\xc3\\xa9'}, 'ficompat': {'fct': <function <lambda>>, 'libelle': 'FI-Compatibilit\\xc3\\xa9'}, 'participation': {'fct': <function <lambda>>, 'libelle': 'Participation'}, 'pctabs': {'fct': <function <lambda>>, 'libelle': '% Votes abstention'}, 'pctcontre': {'fct': <function <lambda>>, 'libelle': '% Votes contre'}, 'pctpour': {'fct': <function <lambda>>, 'libelle': '% Votes pour'}}"
p151
sS'TAG'
p152
S'<gluon.html.__TAG__ object>'
p153
sVdeputes_nuages
p154
g19
sS'CRYPT'
p155
S"<class 'gluon.validators.CRYPT'>"
p156
sS'SQLField'
p157
S"<class 'pydal.objects.Field'>"
p158
sS'mail'
p159
S'<gluon.tools.Mail object>'
p160
sS'_c'
p161
S"{u'_id': ObjectId('59b9502c6d8669a20455633d'), u'carte': u'france', u'd': u'm 381.36332,786.51086 0.006,-0.83121 -1.4161,-...0.0329,-2.01079 2.3063,0.0616 -1.0058,-1.77695 z', u'dep': u'033', u'desc': u'Cantons de Blanquefort, Castelnau-de-M\\xe9doc,...Saint-Laurent-M\\xe9doc, Saint-Vivien-de-M\\xe9doc', u'h': u'92.17254638671875', u'id': u'033-05', u'paris': False, u'title': u'Cinqui\\xe8me circonscription de la Gironde', u'ville': False, ...}"
p162
sS'BODY'
p163
S"<class 'gluon.html.BODY'>"
p164
sS'IS_DATE_IN_RANGE'
p165
S"<class 'gluon.validators.IS_DATE_IN_RANGE'>"
p166
sVdepute_circo
p167
S"u'3'"
p168
sS'IFRAME'
p169
S"<class 'gluon.html.IFRAME'>"
p170
sS'URL'
p171
S'<function URL>'
p172
sS'__file__'
p173
S"'/home/www-data/web2py/applications/oadev/views/svg/gauge.svg'"
p174
sS'db'
p175
S'<DAL uri="sqlite://storage.sqlite">'
p176
sS'hashlib'
p177
S"<module 'hashlib' from '/usr/lib/python2.7/hashlib.pyc'>"
p178
sS'auth'
p179
S'<gluon.tools.Auth object>'
p180
sS'nuages_excl'
p181
S"('ministre', 'monsieur', u'coll\\xe8gue', 'madame', 'premier', 'cher', 'effet', 'commission', 'parlementaire', u'd\\xe9put\\xe9', 'deux', 'amendement', 'sujet', 'texte', 'an', 'fois', 'lieu', 'trois', 'mois', 'rapporteur', ...)"
p182
sVdepute_departement_id
p183
S"u'033'"
p184
sS'P'
S"<class 'gluon.html.P'>"
p185
sS'CAT'
p186
S"<class 'gluon.html.CAT'>"
p187
sS'TFOOT'
p188
S"<class 'gluon.html.TFOOT'>"
p189
sS'iteritems'
p190
S'<function <lambda>>'
p191
sVdepute_contacts
p192
S"[{u'lien': u'mailto:loic.prudhomme@assemblee-nationale.fr', u'type': u'mail'}]"
p193
sS'XHTML'
p194
S"<class 'gluon.html.XHTML'>"
p195
sS'datetime'
p196
S"<module 'datetime' (built-in)>"
p197
sS'ON'
p198
g110
sS'THEAD'
p199
S"<class 'gluon.html.THEAD'>"
p200
sS'OL'
p201
S"<class 'gluon.html.OL'>"
p202
sVgroupe_qualite
p203
S"u'membre'"
p204
sS'TEXTAREA'
p205
S"<class 'gluon.html.TEXTAREA'>"
p206
sS'MENU'
p207
S"<class 'gluon.html.MENU'>"
p208
sS'AppCache'
p209
S'<class __restricted__.AppCache>'
p210
sS'IS_IPADDRESS'
p211
S"<class 'gluon.validators.IS_IPADDRESS'>"
p212
sS'IS_IMAGE'
p213
S"<class 'gluon.validators.IS_IMAGE'>"
p214
sS'EM'
p215
S"<class 'gluon.html.EM'>"
p216
sS'CODE'
p217
S"<class 'gluon.html.CODE'>"
p218
sS'HTTP'
p219
S"<class 'gluon.http.HTTP'>"
p220
sS'locale'
p221
S"<module 'locale' from '/home/www-data/web2py/app...tions/obsas_dev/.pyenv/lib/python2.7/locale.pyc'>"
p222
sS'IS_DATETIME'
p223
S"<class 'gluon.validators.IS_DATETIME'>"
p224
sS'reduce'
p225
S'<built-in function reduce>'
p226
sS'STYLE'
p227
S"<class 'gluon.html.STYLE'>"
p228
sS'tinyurl'
p229
S'<__restricted__.TinyURL instance>'
p230
sS'LABEL'
p231
S"<class 'gluon.html.LABEL'>"
p232
sS'OPTGROUP'
p233
S"<class 'gluon.html.OPTGROUP'>"
p234
sS'CLEANUP'
p235
S"<class 'gluon.validators.CLEANUP'>"
p236
sS'departements_ids'
p237
S"{u'Ain': '001', u'Aisne': '002', u'Allier': '003', u'Alpes-Maritimes': '006', u'Alpes-de-Haute-Provence': '004', u'Ardennes': '008', u'Ard\\xe8che': '007', u'Ari\\xe8ge': '009', u'Aube': '010', u'Aude': '011', ...}"
p238
sS'svgcirco'
p239
S'<function svgcirco>'
p240
sS'plugins'
p241
S'<gluon.tools.PluginManager object>'
p242
sS'SELECT'
p243
S"<class 'gluon.html.SELECT'>"
p244
sVstats
p245
S"{u'compat': {u'FI': 100.0, u'GDR': 91.228, u'LC': 33.333, u'LR': 29.825, u'MODEM': 10.526, u'NG': 66.667, u'NI': 54.386, u'REM': 5.263}, u'compat_sort': [{u'g': u'FI', u'p': 100.0}, {u'g': u'GDR', u'p': 91.228}, {u'g': u'NG', u'p': 66.667}, {u'g': u'NI', u'p': 54.386}, {u'g': u'LC', u'p': 33.333}, {u'g': u'LR', u'p': 29.825}, {u'g': u'MODEM', u'p': 10.526}, {u'g': u'REM', u'p': 5.263}], u'nbitvs': 34, u'nbmots': 3176, u'positions': {u'absent': 52.101, u'abstention': 6.723, u'contre': 5.882, u'dissidence': 0.0, u'exprimes': 47.899, u'pour': 35.294}, u'ranks': {u'absent': 414, u'abstention': 33, u'compatFI': None, u'compatGDR': None, u'compatLC': None, u'compatLR': None, u'compatMODEM': None, u'compatNG': None, u'compatNI': None, u'compatREM': None, ...}}"
p246
sS'CENTER'
p247
S"<class 'gluon.html.CENTER'>"
p248
sS'axes'
p249
S'{\'ages\': {\'elements\': \'G\', \'libelle\': "Classes d\'age", \'source\': {\'filtre\': {}, \'key\': \'classeage\', \'label\': \'classeage\', \'nom\': \'acteurs\'}, \'titre\': "Votes par classe d\'age", \'tri_defaut\': (\'alpha\', False), \'votes\': {\'field\': \'classeage\'}}, \'assemblee\': {\'elements\': \'G\', \'hidechart\': False, \'libelle\': \'Assembl\\xc3\\xa9e\', \'source\': {\'filtre\': {\'actif\': True, \'codeType\': \'ASSEMBLEE\'}, \'key\': \'libelleAbrev\', \'label\': \'libelle\', \'nom\': \'organes\'}, \'titre\': "Votes de l\'Assembl\\xc3\\xa9e", \'tri_defaut\': (\'alpha\', False), \'votes\': {\'field\': \'organes\'}}, \'commissions\': {\'elements\': \'G\', \'libelle\': \'Commissions\', \'source\': {\'filtre\': {\'$and\': [{\'$or\': [...]}, {\'actif\': True}]}, \'key\': \'uid\', \'label\': \'libelle\', \'nom\': \'organes\'}, \'titre\': \'Votes par Commissions\', \'tri_defaut\': (\'alpha\', False), \'votes\': {\'field\': \'commissions\'}}, \'csp\': {\'elements\': \'G\', \'libelle\': \'Cat\\xc3\\xa9gorie Socio-professionnelle\', \'source\': {\'filtre\': {}, \'key\': \'csp\', \'label\': \'csp\', \'nom\': \'acteurs\'}, \'titre\': \'Votes par Cat\\xc3\\xa9gorie Socio-professionnelle\', \'tri_defaut\': (\'alpha\', False), \'votes\': {\'field\': \'csp\'}}, \'departements\': {\'elements\': \'G\', \'libelle\': \'D\\xc3\\xa9partements\', \'source\': {\'filtre\': {}, \'key\': \'departement\', \'label\': \'departement\', \'nom\': \'acteurs\'}, \'titre\': \'Votes par D\\xc3\\xa9partements\', \'tri_defaut\': (\'alpha\', False), \'votes\': {\'field\': \'departement\'}}, \'depute\': {\'elements\': \'P\', \'libelle\': \'D\\xc3\\xa9put\\xc3\\xa9s\', \'source\': {\'filtre\': {}, \'key\': \'uid\', \'label\': \'prenomnom\', \'nom\': \'acteurs\'}, \'titre\': \'Votes par d\\xc3\\xa9put\\xc3\\xa9\', \'tri_defaut\': (\'alphanom\', False), \'votes\': {\'field\': \'uid\'}}, \'dossierleg\': {\'elements\': \'G\', \'libelle\': \'Dossier l\\xc3\\xa9gislatif\', \'source\': {\'filtre\': {}, \'key\': \'scrutin_dossier\', \'label\': \'scrutin_dossierLibelle\', \'nom\': \'scrutins\'}, \'titre\': \'Votes par dossier l\\xc3\\xa9gislatif\', \'tri_defaut\': (\'alpha\', False), \'votes\': {\'field\': \'scrutin_dossier\'}}, \'groupes\': {\'elements\': \'G\', \'hidechart\': False, \'libelle\': \'Groupes\', \'source\': {\'filtre\': {\'actif\': True, \'codeType\': \'GP\'}, \'key\': \'uid\', \'label\': \'libelle\', \'nom\': \'organes\'}, \'titre\': \'Votes par Groupe parlementaire\', \'tri_defaut\': (\'alpha\', False), \'votes\': {\'field\': \'groupe\'}}, \'regions\': {\'elements\': \'G\', \'libelle\': \'R\\xc3\\xa9gions\', \'source\': {\'filtre\': {}, \'key\': \'region\', \'label\': \'region\', \'nom\': \'acteurs\'}, \'titre\': \'Votes par R\\xc3\\xa9gions\', \'tri_defaut\': (\'alpha\', False), \'votes\': {\'field\': \'region\'}}, \'scrutin\': {\'elements\': \'G\', \'libelle\': \'Scrutins\', \'source\': {\'filtre\': {}, \'key\': \'scrutin_id\', \'label\': \'scrutin_fulldesc\', \'nom\': \'scrutins\'}, \'titre\': \'Votes par scrutin\', \'tri_defaut\': (\'datescrutin\', True), \'tris\': [\'datescrutin\'], \'votes\': {\'field\': \'scrutin_id\'}}, ...}'
p250
sS'Auth'
p251
S"<class 'gluon.tools.Auth'>"
p252
sS'DEVELOPMENT_MENU'
p253
g110
sS'__builtins__'
p254
S"{'ArithmeticError': <type 'exceptions.ArithmeticError'>, 'AssertionError': <type 'exceptions.AssertionError'>, 'AttributeError': <type 'exceptions.AttributeError'>, 'BaseException': <type 'exceptions.BaseException'>, 'BufferError': <type 'exceptions.BufferError'>, 'BytesWarning': <type 'exceptions.BytesWarning'>, 'DeprecationWarning': <type 'exceptions.DeprecationWarning'>, 'EOFError': <type 'exceptions.EOFError'>, 'Ellipsis': Ellipsis, 'EnvironmentError': <type 'exceptions.EnvironmentError'>, ...}"
p255
sS'HTML'
p256
S"<class 'gluon.html.HTML'>"
p257
sS'filtresitm_order'
p258
S"['participation', 'ficompat', 'emcompat']"
p259
sS'SQLFORM'
p260
S"<class 'gluon.sqlhtml.SQLFORM'>"
p261
sVdepute_id
p262
S"u'm.loicprudhomme'"
p263
sS'LOAD'
p264
S'<function LOAD>'
p265
sS'redirect'
p266
S'<function redirect>'
p267
sS'FIELDSET'
p268
S"<class 'gluon.html.FIELDSET'>"
p269
sS'embed64'
p270
S'<function embed64>'
p271
sS'IS_EQUAL_TO'
p272
S"<class 'gluon.validators.IS_EQUAL_TO'>"
p273
sS'sortfcts_order'
p274
S"['participation', 'pctpour', 'pctcontre', 'pctabs', 'alpha', 'ficompat', 'emcompat']"
p275
sVdepute_age
p276
S'48'
p277
sS'filtresitm'
p278
S"{'emcompat': {'fct': <function <lambda>>, 'libelle': 'Taux de EM-compatibilit\\xc3\\xa9', 'max': 100, 'min': 0}, 'ficompat': {'fct': <function <lambda>>, 'libelle': 'Taux de FI-compatibilit\\xc3\\xa9', 'max': 100, 'min': 0}, 'participation': {'fct': <function <lambda>>, 'libelle': 'Taux de participation', 'max': 100, 'min': 0}}"
p279
sS'TinyURL'
p280
S'<class __restricted__.TinyURL>'
p281
sVdepute_compat
p282
S"{u'FI': 57, u'GDR': 52, u'LC': 19, u'LR': 17, u'MODEM': 6, u'NG': 38, u'NI': 31, u'REM': 3}"
p283
sS'IS_LIST_OF'
p284
S"<class 'gluon.validators.IS_LIST_OF'>"
p285
sS'__name__'
p286
S"'__restricted__'"
p287
sS'EMBED'
p288
S"<class 'gluon.html.EMBED'>"
p289
sS'_'
S'<function _>'
p290
sVdepute_circo_id
p291
S"u'033-03'"
p292
sS'c'
S'{u\'_id\': ObjectId(\'59b9502b6d8669a204556255\'), u\'carte\': u\'france\', u\'d\': u\'m 385.69306,797.45783 -0.59548,0.48841 0.37369...698,-0.7609 -0.89282,-0.81011 -1.36502,0.65089 z\', u\'dep\': u\'033\', u\'desc\': u"Cantons : B\\xe8gles, Bordeaux VI, Talence, Villenave-d\'Ornon", u\'h\': u\'11.29888916015625\', u\'id\': u\'033-03\', u\'paris\': False, u\'title\': u\'Troisi\\xe8me circonscription de la Gironde\', u\'ville\': True, ...}'
p293
sVdepute_uid
p294
S"u'PA719578'"
p295
sS'myconf'
p296
S"{'forms': {'formstyle': 'bootstrap3_inline', 'se...': {'names': 'localhost:*, 127.0.0.1:*, *:*, *'}}"
p297
sS'IS_NOT_IN_DB'
p298
S"<class 'gluon.validators.IS_NOT_IN_DB'>"
p299
sS'H2'
p300
S"<class 'gluon.html.H2'>"
p301
sS'H3'
p302
S"<class 'gluon.html.H3'>"
p303
sS'AppConfig'
p304
S'<function AppConfig>'
p305
sS'IS_STRONG'
p306
S"<class 'gluon.validators.IS_STRONG'>"
p307
sS'H6'
p308
S"<class 'gluon.html.H6'>"
p309
sVdepute_typeregion
p310
S"u'M\\xe9tropolitain'"
p311
sS'H4'
p312
S"<class 'gluon.html.H4'>"
p313
sS'H5'
p314
S"<class 'gluon.html.H5'>"
p315
sS'UL'
p316
S"<class 'gluon.html.UL'>"
p317
sS'IS_UPPER'
p318
S"<class 'gluon.validators.IS_UPPER'>"
p319
sVdepute_autresmandats
p320
S'[]'
p321
sS'xmlescape'
p322
S'<function xmlescape>'
p323
sS'IS_TIME'
p324
S"<class 'gluon.validators.IS_TIME'>"
p325
sS'svggauge'
p326
S'<function svggauge>'
p327
sS'co'
p328
S"u'Mme Garance Bousquin'"
p329
sS'OPTION'
p330
S"<class 'gluon.html.OPTION'>"
p331
sS'TITLE'
p332
S"<class 'gluon.html.TITLE'>"
p333
sS'color'
p334
S"'#82cde2'"
p335
sS'short_url'
p336
S"<module 'short_url' from '/home/www-data/web2py/.../python2.7/site-packages/short_url/__init__.pyc'>"
p337
sS'IS_EMPTY_OR'
p338
S"<class 'gluon.validators.IS_EMPTY_OR'>"
p339
sS'MARKMIN'
p340
S"<class 'gluon.html.MARKMIN'>"
p341
sVdepute_ddn
p342
S"u'19/08/1969'"
p343
sS'pct'
p344
S'5'
sS'INPUT'
p345
S"<class 'gluon.html.INPUT'>"
p346
sS'STRONG'
p347
S"<class 'gluon.html.STRONG'>"
p348
sS'COL'
p349
S"<class 'gluon.html.COL'>"
p350
sS'unit'
p351
S"'%'"
p352
sVdepute_votes
p353
S"{u'absent': 62, u'abstention': 8, u'compat': {u'FI': 72, u'GDR': 68, u'LC': 62, u'LR': 62, u'MODEM': 62, u'NG': 63, u'NI': 65, u'REM': 57, u'assemblee': 61}, u'contre': 7, u'exprimes': 57, u'pour': 42, u'total': 119, u'votants': 0}"
p354
sS'service'
p355
S'<gluon.tools.Service object>'
p356
sS'SCRIPT'
p357
S"<class 'gluon.html.SCRIPT'>"
p358
sVdepute_deputywatch
p359
S'None'
p360
sS'HR'
p361
S"<class 'gluon.html.HR'>"
p362
sVdepute_mandat_debut
p363
S"u'21/06/2017'"
p364
sVdepute_actif
p365
g110
sS'mdb'
p366
S"Database(MongoClient(host=['localhost:27017'], d...s=dict, tz_aware=False, connect=True), u'obsass')"
p367
sVgroupe_abrev
p368
S"u'FI'"
p369
sS'circo'
p370
S'{u\'_id\': ObjectId(\'59b9502b6d8669a204556255\'), u\'carte\': u\'france\', u\'d\': u\'m 385.69306,797.45783 -0.59548,0.48841 0.37369...698,-0.7609 -0.89282,-0.81011 -1.36502,0.65089 z\', u\'dep\': u\'033\', u\'desc\': u"Cantons : B\\xe8gles, Bordeaux VI, Talence, Villenave-d\'Ornon", u\'h\': u\'11.29888916015625\', u\'id\': u\'033-03\', u\'paris\': False, u\'title\': u\'Troisi\\xe8me circonscription de la Gironde\', u\'ville\': True, ...}'
p371
sVdepute_classeage
p372
S"u'40-50 ans'"
p373
sS'TABLE'
p374
S"<class 'gluon.html.TABLE'>"
p375
sVdepute_naissance
p376
S"u'N\\xe9\\n\\t\\t\\t le 19 ao\\xfbt 1969 \\xe0 B\\xe8gles\\xa0(Gironde)'"
p377
sS'IS_IPV4'
p378
S"<class 'gluon.validators.IS_IPV4'>"
p379
sS'IS_LENGTH'
p380
S"<class 'gluon.validators.IS_LENGTH'>"
p381
sVdepute_hatvp
p382
S'[{u\'civilite\': u\'M.\', u\'classement\': u"PRUD\'HOMME Lo\\xefc12746", u\'date_depot\': u\'\', u\'date_publication\': u\'\', u\'departement\': u\'33\', u\'docurl\': u\'http://www.hatvp.fr/livraison/dossiers/\', u\'id_origine\': u\'719578\', u\'nom\': u"PRUD\'HOMME", u\'nom_fichier\': u\'\', u\'open_data\': u\'\', ...}]'
p383
sS'XML'
p384
S"<class 'gluon.html.XML'>"
p385
sVdepute_collaborateurs
p386
S"[u'Mme Tiphaine Maurin', u'Mme Garance Bousquin']"
p387
sS'B'
S"<class 'gluon.html.B'>"
p388
sS'IMG'
p389
S"<class 'gluon.html.IMG'>"
p390
sS'SQLTABLE'
p391
S"<class 'gluon.sqlhtml.SQLTABLE'>"
p392
sVdepute_region
p393
S"u'Nouvelle-Aquitaine'"
p394
sS'IS_MATCH'
p395
S"<class 'gluon.validators.IS_MATCH'>"
p396
sVdepute_bureau
p397
S'None'
p398
sS'IS_ALPHANUMERIC'
p399
S"<class 'gluon.validators.IS_ALPHANUMERIC'>"
p400
sVdepute_mandats
p401
S'{u\'commissions\': [{u\'id\': u\'PO419865\', u\'lien\': u\'http://www2.assemblee-nationale.fr/instances/fiche/OMC_PO419865\', u\'nom\': u"Commission du d\\xe9veloppement durable et de l\'am\\xe9nagement du territoire", u\'qualite\': u\'Membre\'}], u\'delegations_bureau\': [], u\'delegations_office\': [{u\'id\': u\'PO273589\', u\'lien\': u\'http://www2.assemblee-nationale.fr/instances/fiche/OMC_PO273589\', u\'nom\': u"Office parlementaire d\'\\xe9valuation des choix scientifiques et technologiques", u\'qualite\': u\'Membre\'}]}'
p402
sVdeputes_mots
p403
S'None'
p404
sVdepute_sexe
p405
S"u'Femme'"
p406
sVdepute_mots
p407
S"{u'noms': {u'abeille': 1, u'absolu': 1, u'acc\\xe8s': 3, u'actif': 1, u'action': 1, u'activit\\xe9': 2, u'actuel': 1, u'adjectif': 1, u'affaire': 1, u'affect\\xe9': 1, ...}, u'verbes': {u'abriter': 1, u'accepter': 2, u'accumuler': 1, u'affirmer': 2, u'agir': 3, u'aider': 1, u'ajouter': 2, u'alerter': 1, u'aller': 6, u'allouer': 1, ...}}"
p408
sS'iv'
p409
S"{u'_id': ObjectId('59befed06d8669a20456cd20'), u'depute_id': u'm.loicprudhomme', u'depute_uid': u'PA719578', u'itv_contenu': u'<p>Il est d\\xe9fendu.</p>', u'itv_contenu_texte': u'Il est d\\xe9fendu.', u'itv_ctx': [u'Deuxi\\xe8me s\\xe9ance du lundi 10 juillet 2017', u'1. Renforcement du dialogue social', u'Discussion des articles', u'Article\\xa01er', u'Amendement no 133'], u'itv_ctx_n': 1, u'itv_date': u'2017-07-10', u'itv_id': u'20171006.asp1730', u'itv_n': 173, ...}"
p410
sS'getVoteData_fct'
p411
S'<function getVoteData_fct>'
p412
sS'axes_order'
p413
S"['assemblee', 'groupes', 'commissions', 'typeregion', 'regions', 'departements', 'ages', 'csp', 'sexe', 'depute', 'scrutin', 'typescrutin', 'dossierleg']"
p414
sVdepute_nom_tri
p415
S'u"PRUD\'HOMME"'
p416
sS'SPAN'
p417
S"<class 'gluon.html.SPAN'>"
p418
sS'IS_JSON'
p419
S"<class 'gluon.validators.IS_JSON'>"
p420
sS'dep'
p421
S"u'033'"
p422
sS'IS_SLUG'
p423
S"<class 'gluon.validators.IS_SLUG'>"
p424
sVdepute_departement
p425
S"u'Gironde'"
p426
sVdepute_nuages
p427
S"{u'noms': [[u'travail', 220], [u'projet', 139], [u'salari\\xe9', 139], [u'agriculture', 104], [u'temps', 104], [u't\\xe9l\\xe9travail', 93], [u'condition', 81], [u'droit', 81], [u'int\\xe9r\\xeat', 81], [u'compensation', 81], [u'loi', 81], [u'public', 69], [u'social', 69], [u'entreprise', 69], [u'ferme', 69], [u'environnement', 69], [u'biologique', 69], [u'demande', 69], [u'\\xe9cologique', 58], [u'groupe', 58], ...], u'verbes': [[u'pouvoir', 863], [u'faire', 383], [u'proposer', 191], [u'aller', 191], [u'entendre', 159], [u'viser', 159], [u'penser', 159], [u'falloir', 159], [u'mettre', 127], [u'compter', 127], [u'savoir', 127], [u'permettre', 127], [u'venir', 127], [u'prendre', 127], [u'voter', 95], [u'pr\\xe9tendre', 95], [u'sembler', 95], [u'favoriser', 95], [u'vouloir', 95], [u'attendre', 95], ...]}"
p428
sVdepute_shortid
p429
S"u'loicprudhomme'"
p430
sS'META'
p431
S"<class 'gluon.html.META'>"
p432
sS'client'
p433
S"MongoClient(host=['localhost:27017'], document_class=dict, tz_aware=False, connect=True)"
p434
sS'v'
S'{u\'_id\': ObjectId(\'59befa608e5c9b3857105548\'), u\'depute_age\': 48, u\'depute_classeage\': u\'40-50 ans\', u\'depute_csp\': u\'Professions Interm\\xe9diaires\', u\'depute_departement\': u\'Gironde\', u\'depute_nom\': u"M. Lo\\xefc Prud\'homme", u\'depute_region\': u\'Nouvelle-Aquitaine\', u\'depute_sexe\': u\'Femme\', u\'depute_typeregion\': u\'M\\xe9tropolitain\', u\'depute_uid\': u\'PA719578\', ...}'
p435
sVdepute_commissions
p436
S'[{u\'id\': u\'PO419865\', u\'lien\': u\'http://www2.assemblee-nationale.fr/instances/fiche/OMC_PO419865\', u\'nom\': u"Commission du d\\xe9veloppement durable et de l\'am\\xe9nagement du territoire", u\'qualite\': u\'Membre\'}]'
p437
sS'dec'
p438
S'{u\'civilite\': u\'M.\', u\'classement\': u"PRUD\'HOMME Lo\\xefc12746", u\'date_depot\': u\'\', u\'date_publication\': u\'\', u\'departement\': u\'33\', u\'docurl\': u\'http://www.hatvp.fr/livraison/dossiers/\', u\'id_origine\': u\'719578\', u\'nom\': u"PRUD\'HOMME", u\'nom_fichier\': u\'\', u\'open_data\': u\'\', ...}'
p439
sS'pickle'
p440
S"<module 'pickle' from '/usr/lib/python2.7/pickle.pyc'>"
p441
sS'BUTTON'
p442
S"<class 'gluon.html.BUTTON'>"
p443
sVdepute_mandat_fin_cause
p444
S'None'
p445
sVdepute_nom
p446
S'u"M. Lo\\xefc Prud\'homme"'
p447
sS'H1'
p448
S"<class 'gluon.html.H1'>"
p449
sS'IS_DATE'
p450
S"<class 'gluon.validators.IS_DATE'>"
p451
sS'IS_EMAIL'
p452
S"<class 'gluon.validators.IS_EMAIL'>"
p453
sS'mandats'
p454
S'[{u\'id\': u\'PO273589\', u\'lien\': u\'http://www2.assemblee-nationale.fr/instances/fiche/OMC_PO273589\', u\'nom\': u"Office parlementaire d\'\\xe9valuation des choix scientifiques et technologiques", u\'qualite\': u\'Membre\'}]'
p455
sS'IS_NOT_EMPTY'
p456
S"<class 'gluon.validators.IS_NOT_EMPTY'>"
p457
sS'xrange'
p458
S"<type 'xrange'>"
p459
sVgroupe_libelle
p460
S"u'La France insoumise'"
p461
sS'BEAUTIFY'
p462
S"<class 'gluon.html.BEAUTIFY'>"
p463
sS'transp'
p464
S"'0.33'"
p465
sS'TBODY'
p466
S"<class 'gluon.html.TBODY'>"
p467
sS'appcache'
p468
S'<__restricted__.AppCache instance>'
p469
sS'Field'
p470
S"<class 'pydal.objects.Field'>"
p471
sS'stroke'
p472
S"'light'"
p473
sVmots
p474
S'None'
p475
sS'itvs'
p476
S"[{u'_id': ObjectId('59befe776d8669a20456c127'), u'depute_id': u'm.loicprudhomme', u'depute_uid': u'PA719578', u'itv_contenu': u'<p>Je demande la parole, monsieur le pr\\xe9sident\\xa0!</p>', u'itv_contenu_texte': u'Je demande la parole, monsieur le pr\\xe9sident!', u'itv_ctx': [u'S\\xe9ance du mercredi 09 ao\\xfbt 2017', u'3. Confiance dans la vie politique', u'Discussion g\\xe9n\\xe9rale'], u'itv_ctx_n': 10, u'itv_date': u'2017-08-09', u'itv_id': u'20171033.asp4100', u'itv_n': 410, ...}, {u'_id': ObjectId('59befe776d8669a20456c129'), u'depute_id': u'm.loicprudhomme', u'depute_uid': u'PA719578', u'itv_contenu': u'<p>J\\u2019ai m\\xeame fait l\\u2019effort de met...xclamations sur les bancs du groupe LR.)</i></p>', u'itv_contenu_texte': u'J\\u2019ai m\\xeame fait l\\u2019effort de mettre...vate pour que M.Jacob m\\u2019entende bien\\u2026 ', u'itv_ctx': [u'S\\xe9ance du mercredi 09 ao\\xfbt 2017', u'3. Confiance dans la vie politique', u'Discussion g\\xe9n\\xe9rale'], u'itv_ctx_n': 12, u'itv_date': u'2017-08-09', u'itv_id': u'20171033.asp4120', u'itv_n': 412, ...}, {u'_id': ObjectId('59befe776d8669a20456c12b'), u'depute_id': u'm.loicprudhomme', u'depute_uid': u'PA719578', u'itv_contenu': u'<p>Je profite de cet amendement pour \\xe9voque...udissements sur les bancs du groupe FI.)</i></p>', u'itv_contenu_texte': u'Je profite de cet amendement pour \\xe9voquer l... mati\\xe8re de moralisation de la vie publique. ', u'itv_ctx': [u'S\\xe9ance du mercredi 09 ao\\xfbt 2017', u'3. Confiance dans la vie politique', u'Discussion g\\xe9n\\xe9rale'], u'itv_ctx_n': 14, u'itv_date': u'2017-08-09', u'itv_id': u'20171033.asp4140', u'itv_n': 414, ...}, {u'_id': ObjectId('59befe9a6d8669a20456c1c7'), u'depute_id': u'm.loicprudhomme', u'depute_uid': u'PA719578', u'itv_contenu': u'<p>Monsieur le ministre de l\\u2019agriculture,...sur quelques bancs du groupe NG</i><i>.)</i></p>', u'itv_contenu_texte': u'Monsieur le ministre de l\\u2019agriculture, au...mune, PAC, atteint les 9milliards d\\u2019euros? ', u'itv_ctx': [u'S\\xe9ance du mercredi 02 ao\\xfbt 2017', u'1. Questions au Gouvernement', u'Agriculture biologique'], u'itv_ctx_n': 1, u'itv_date': u'2017-08-02', u'itv_id': u'20171030.asp10', u'itv_n': 1, ...}, {u'_id': ObjectId('59befe9c6d8669a20456c214'), u'depute_id': u'm.loicprudhomme', u'depute_uid': u'PA719578', u'itv_contenu': u'<p>La langue de bois devrait \\xeatre une discipline olympique\\xa0!</p>', u'itv_contenu_texte': u'La langue de bois devrait \\xeatre une discipline olympique!', u'itv_ctx': [u'S\\xe9ance du mercredi 02 ao\\xfbt 2017', u'1. Questions au Gouvernement', u'Jeux olympiques de 2024'], u'itv_ctx_n': 9, u'itv_date': u'2017-08-02', u'itv_id': u'20171030.asp770', u'itv_n': 77, ...}, {u'_id': ObjectId('59befe9f6d8669a20456c254'), u'depute_id': u'm.loicprudhomme', u'depute_uid': u'PA719578', u'itv_contenu': u'<p>Expliquez cela au ministre de l\\u2019agriculture\\xa0!</p>', u'itv_contenu_texte': u'Expliquez cela au ministre de l\\u2019agriculture!', u'itv_ctx': [u'S\\xe9ance du mercredi 02 ao\\xfbt 2017', u'1. Questions au Gouvernement', u'D\\xe9passement des ressources de la plan\\xe8te'], u'itv_ctx_n': 2, u'itv_date': u'2017-08-02', u'itv_id': u'20171030.asp1410', u'itv_n': 141, ...}, {u'_id': ObjectId('59befe4b6d8669a20456b5ce'), u'depute_id': u'm.loicprudhomme', u'depute_uid': u'PA719578', u'itv_contenu': u'<p>Tr\\xe8s bien\\xa0!</p>', u'itv_contenu_texte': u'Tr\\xe8s bien!', u'itv_ctx': [u'Deuxi\\xe8me s\\xe9ance du jeudi 27 juillet 2017', u'1. Confiance dans la vie publique', u'Discussion des articles ', u'Article\\xa07\\xa0ter\\xa0B', u'Amendements nos 405, 406, 407'], u'itv_ctx_n': 43, u'itv_date': u'2017-07-27', u'itv_id': u'20171024.asp3191', u'itv_n': 319, ...}, {u'_id': ObjectId('59befe426d8669a20456ac25'), u'depute_id': u'm.loicprudhomme', u'depute_uid': u'PA719578', u'itv_contenu': u'<p>Nous comprenons votre pens\\xe9e complexe\\xa0!</p>', u'itv_contenu_texte': u'Nous comprenons votre pens\\xe9e complexe!', u'itv_ctx': [u'Premi\\xe8re s\\xe9ance du lundi 24 juillet 2017', u'2. Confiance dans la vie publique', u'Motion de renvoi en commission '], u'itv_ctx_n': 10, u'itv_date': u'2017-07-24', u'itv_id': u'20171017.asp3750', u'itv_n': 375, ...}, {u'_id': ObjectId('59befef86d8669a20456d77a'), u'depute_id': u'm.loicprudhomme', u'depute_uid': u'PA719578', u'itv_contenu': u'<p>Celle qui souffre\\xa0!</p>', u'itv_contenu_texte': u'Celle qui souffre!', u'itv_ctx': [u'S\\xe9ance du jeudi 20 juillet 2017', u'1. D\\xe9bat d\\u2019orientation des finances publiques'], u'itv_ctx_n': 8, u'itv_date': u'2017-07-20', u'itv_id': u'20171016.asp80', u'itv_n': 8, ...}, {u'_id': ObjectId('59befef86d8669a20456d78a'), u'depute_id': u'm.loicprudhomme', u'depute_uid': u'PA719578', u'itv_contenu': u'<p>C\\u2019est honteux\\xa0! Vous n\\u2019avez pas le droit de dire cela\\xa0!</p>', u'itv_contenu_texte': u'C\\u2019est honteux! Vous n\\u2019avez pas le droit de dire cela!', u'itv_ctx': [u'S\\xe9ance du jeudi 20 juillet 2017', u'1. D\\xe9bat d\\u2019orientation des finances publiques'], u'itv_ctx_n': 24, u'itv_date': u'2017-07-20', u'itv_id': u'20171016.asp240', u'itv_n': 24, ...}, {u'_id': ObjectId('59befeea6d8669a20456d3e6'), u'depute_id': u'm.loicprudhomme', u'depute_uid': u'PA719578', u'itv_contenu': u'<p>Madame la pr\\xe9sidente, monsieur le secr\\x...xe9servant leur sant\\xe9 et la n\\xf4tre\\xa0!</p>', u'itv_contenu_texte': u'Madame la pr\\xe9sidente, monsieur le secr\\xe9t...t en pr\\xe9servant leur sant\\xe9 et la n\\xf4tre!', u'itv_ctx': [u'Deuxi\\xe8me s\\xe9ance du mardi 18 juillet 2017', u'1. \\xc9valuation environnementale et information du public', u'Discussion g\\xe9n\\xe9rale'], u'itv_ctx_n': 1, u'itv_date': u'2017-07-18', u'itv_id': u'20171014.asp320', u'itv_n': 32, ...}, {u'_id': ObjectId('59befeea6d8669a20456d3e8'), u'depute_id': u'm.loicprudhomme', u'depute_uid': u'PA719578', u'itv_contenu': u'<p>Cet exemple montre bien que l\\u2019\\xe9colo...suffisantes. La nature n\\u2019a pas de prix.</p>', u'itv_contenu_texte': u'Cet exemple montre bien que l\\u2019\\xe9cologie...s insuffisantes. La nature n\\u2019a pas de prix.', u'itv_ctx': [u'Deuxi\\xe8me s\\xe9ance du mardi 18 juillet 2017', u'1. \\xc9valuation environnementale et information du public', u'Discussion g\\xe9n\\xe9rale'], u'itv_ctx_n': 3, u'itv_date': u'2017-07-18', u'itv_id': u'20171014.asp340', u'itv_n': 34, ...}, {u'_id': ObjectId('59befeea6d8669a20456d3ea'), u'depute_id': u'm.loicprudhomme', u'depute_uid': u'PA719578', u'itv_contenu': u'<p>Sa pr\\xe9servation est la condition de notre survie.</p>', u'itv_contenu_texte': u'Sa pr\\xe9servation est la condition de notre survie.', u'itv_ctx': [u'Deuxi\\xe8me s\\xe9ance du mardi 18 juillet 2017', u'1. \\xc9valuation environnementale et information du public', u'Discussion g\\xe9n\\xe9rale'], u'itv_ctx_n': 5, u'itv_date': u'2017-07-18', u'itv_id': u'20171014.asp360', u'itv_n': 36, ...}, {u'_id': ObjectId('59befeea6d8669a20456d3ec'), u'depute_id': u'm.loicprudhomme', u'depute_uid': u'PA719578', u'itv_contenu': u'<p>Nous sommes entr\\xe9s dans la sixi\\xe8me ex...udissements sur les bancs du groupe FI.)</i></p>', u'itv_contenu_texte': u'Nous sommes entr\\xe9s dans la sixi\\xe8me extin...9es par l\\u2019usage des n\\xe9onicotino\\xefdes. ', u'itv_ctx': [u'Deuxi\\xe8me s\\xe9ance du mardi 18 juillet 2017', u'1. \\xc9valuation environnementale et information du public', u'Discussion g\\xe9n\\xe9rale'], u'itv_ctx_n': 7, u'itv_date': u'2017-07-18', u'itv_id': u'20171014.asp380', u'itv_n': 38, ...}, {u'_id': ObjectId('59befeea6d8669a20456d3ee'), u'depute_id': u'm.loicprudhomme', u'depute_uid': u'PA719578', u'itv_contenu': u'<p>Il n\\u2019est plus temps de tergiverser\\xa0... </i><i>bancs des groupes REM et MODEM.)</i></p>', u'itv_contenu_texte': u'Il n\\u2019est plus temps de tergiverser: l\\u20...t que vous ne soyez que des clones sans \\xe2me. ', u'itv_ctx': [u'Deuxi\\xe8me s\\xe9ance du mardi 18 juillet 2017', u'1. \\xc9valuation environnementale et information du public', u'Discussion g\\xe9n\\xe9rale'], u'itv_ctx_n': 9, u'itv_date': u'2017-07-18', u'itv_id': u'20171014.asp400', u'itv_n': 40, ...}, {u'_id': ObjectId('59befeea6d8669a20456d3f0'), u'depute_id': u'm.loicprudhomme', u'depute_uid': u'PA719578', u'itv_contenu': u'<p>Mais me voil\\xe0 rassur\\xe9 par votre r\\xe9...iance \\xe0 votre capacit\\xe9 d\\u2019analyse.</p>', u'itv_contenu_texte': u'Mais me voil\\xe0 rassur\\xe9 par votre r\\xe9act...confiance \\xe0 votre capacit\\xe9 d\\u2019analyse.', u'itv_ctx': [u'Deuxi\\xe8me s\\xe9ance du mardi 18 juillet 2017', u'1. \\xc9valuation environnementale et information du public', u'Discussion g\\xe9n\\xe9rale'], u'itv_ctx_n': 11, u'itv_date': u'2017-07-18', u'itv_id': u'20171014.asp420', u'itv_n': 42, ...}, {u'_id': ObjectId('59befeea6d8669a20456d3f2'), u'depute_id': u'm.loicprudhomme', u'depute_uid': u'PA719578', u'itv_contenu': u'<p>Dans ces conditions, je ne doute pas que vo...nents\\u2026 <i>(Sourires</i><i>.</i><i>)</i></p>', u'itv_contenu_texte': u'Dans ces conditions, je ne doute pas que vous ...micycle des math\\xe9maticiens \\xe9minents\\u2026 ', u'itv_ctx': [u'Deuxi\\xe8me s\\xe9ance du mardi 18 juillet 2017', u'1. \\xc9valuation environnementale et information du public', u'Discussion g\\xe9n\\xe9rale'], u'itv_ctx_n': 13, u'itv_date': u'2017-07-18', u'itv_id': u'20171014.asp440', u'itv_n': 44, ...}, {u'_id': ObjectId('59befeea6d8669a20456d3f5'), u'depute_id': u'm.loicprudhomme', u'depute_uid': u'PA719578', u'itv_contenu': u'<p>Je l\\u2019ai aper\\xe7u\\xa0!<br><br>Je vous ...udissements sur les bancs du groupe FI.)</i></p>', u'itv_contenu_texte': u'Je l\\u2019ai aper\\xe7u! Je vous propose de r\\x... cela finisse par d\\xe9truire notre plan\\xe8te? ', u'itv_ctx': [u'Deuxi\\xe8me s\\xe9ance du mardi 18 juillet 2017', u'1. \\xc9valuation environnementale et information du public', u'Discussion g\\xe9n\\xe9rale'], u'itv_ctx_n': 16, u'itv_date': u'2017-07-18', u'itv_id': u'20171014.asp470', u'itv_n': 47, ...}, {u'_id': ObjectId('59befeea6d8669a20456d400'), u'depute_id': u'm.loicprudhomme', u'depute_uid': u'PA719578', u'itv_contenu': u'<p>Je reprends quant \\xe0 moi la parole et peu...lesquelles nous voterons contre cet article.</p>', u'itv_contenu_texte': u'Je reprends quant \\xe0 moi la parole et peut-\\...our lesquelles nous voterons contre cet article.', u'itv_ctx': [u'Deuxi\\xe8me s\\xe9ance du mardi 18 juillet 2017', u'1. \\xc9valuation environnementale et information du public', u'Discussion des articles', u'Article\\xa02'], u'itv_ctx_n': 1, u'itv_date': u'2017-07-18', u'itv_id': u'20171014.asp570', u'itv_n': 57, ...}, {u'_id': ObjectId('59befeeb6d8669a20456d451'), u'depute_id': u'm.loicprudhomme', u'depute_uid': u'PA719578', u'itv_contenu': u'<p>Le deuxi\\xe8me alin\\xe9a du I de l\\u2019art...udissements sur les bancs du groupe FI.)</i></p>', u'itv_contenu_texte': u'Le deuxi\\xe8me alin\\xe9a du I de l\\u2019articl...b les mots: \\xabrural, urbain et c\\xf4tier\\xbb. ', u'itv_ctx': [u'Deuxi\\xe8me s\\xe9ance du mardi 18 juillet 2017', u'1. \\xc9valuation environnementale et information du public', u'Discussion des articles', u'Apr\\xe8s l\\u2019article\\xa02', u'Amendement no 33'], u'itv_ctx_n': 3, u'itv_date': u'2017-07-18', u'itv_id': u'20171014.asp1380', u'itv_n': 138, ...}, ...]"
p477
sS'IS_LIST_OF_EMAILS'
p478
S"<class 'gluon.validators.IS_LIST_OF_EMAILS'>"
p479
sg58
S"<Storage {'_vars': None, 'function': 'index', 'c...r': '/home/www-data/web2py/applications/oadev/'}>"
p480
sS'DIV'
p481
S"<class 'gluon.html.DIV'>"
p482
sS'LEGEND'
p483
S"<class 'gluon.html.LEGEND'>"
p484
sS'genres'
p485
S"{'loi': 'e', 'motion': 'e'}"
p486
sS'strokewidth'
p487
S'8.413970947265625'
p488
sS'svgtop'
p489
S'<function svgtop>'
p490
sS'to_native'
p491
S'<function to_native>'
p492
sS'COLGROUP'
p493
S"<class 'gluon.html.COLGROUP'>"
p494
sS'DAL'
p495
S"<class 'pydal.base.DAL'>"
p496
sS'ASSIGNJS'
p497
S'<function ASSIGNJS>'
p498
sS'TR'
p499
S"<class 'gluon.html.TR'>"
p500
sS'LI'
p501
S"<class 'gluon.html.LI'>"
p502
sVgroupe_uid
p503
S"u'PO730958'"
p504
sS'TH'
p505
S"<class 'gluon.html.TH'>"
p506
sS'TD'
p507
S"<class 'gluon.html.TD'>"
p508
sS'PluginManager'
p509
S"<class 'gluon.tools.PluginManager'>"
p510
sS'IS_URL'
p511
S"<class 'gluon.validators.IS_URL'>"
p512
sVdepute_place
p513
S"u'621'"
p514
sS'A'
S"<class 'gluon.html.A'>"
p515
sS'HEAD'
p516
S"<class 'gluon.html.HEAD'>"
p517
sS'IS_DATETIME_IN_RANGE'
p518
S"<class 'gluon.validators.IS_DATETIME_IN_RANGE'>"
p519
sS'FORM'
p520
S"<class 'gluon.html.FORM'>"
p521
sS'I'
S"<class 'gluon.html.I'>"
p522
sS'symbol'
p523
S'<g\n     transform="translate(100,65),scale(0.14)...ill-opacity:1;stroke-width:0.97821659" />\n  </g>\n'
p524
sS'm'
S'{u\'id\': u\'PO273589\', u\'lien\': u\'http://www2.assemblee-nationale.fr/instances/fiche/OMC_PO273589\', u\'nom\': u"Office parlementaire d\'\\xe9valuation des choix scientifiques et technologiques", u\'qualite\': u\'Membre\'}'
p525
sS'pymongo'
p526
S"<module 'pymongo' from '/home/www-data/web2py/ap...ib/python2.7/site-packages/pymongo/__init__.pyc'>"
p527
sVdepute_mandat_fin
p528
S'None'
p529
sVdepute_positions
p530
S"{u'absent': 62, u'abstention': 8, u'contre': 7, u'dissidence': 0, u'exprimes': 57, u'pour': 42, u'total': 119}"
p531
sS'typ'
p532
S"u'delegations_office'"
p533
sg103
S"<Storage {'body': <cStringIO.StringO object at 0...at 0x7f62bb76aed8>, 'view': 'depute/index.html'}>"
p534
sVdepute_profession
p535
S"u'Fonctionnaire de cat\\xe9gorie B'"
p536
sS'ANY_OF'
p537
S"<class 'gluon.validators.ANY_OF'>"
p538
sS'IS_NULL_OR'
p539
S"<class 'gluon.validators.IS_EMPTY_OR'>"
p540
sS'circos'
p541
S'[{u\'_id\': ObjectId(\'59b9502b6d8669a204556253\'), u\'carte\': u\'france\', u\'d\': u\'m 383.6005,794.71293 -0.9014,-2.31127 0.61805,...435,0.82835 -1.76238,2.14123 -1.43529,-0.74396 z\', u\'dep\': u\'033\', u\'desc\': u\'Cantons de : Bordeaux I, Bordeaux II, Bordeaux VIII, Le Bouscat\', u\'h\': u\'9.77227783203125\', u\'id\': u\'033-01\', u\'paris\': False, u\'title\': u\'Premi\\xe8re circonscription de la Gironde\', u\'ville\': True, ...}, {u\'_id\': ObjectId(\'59b9502b6d8669a204556254\'), u\'carte\': u\'france\', u\'d\': u\'m 385.04807,796.97898 -0.29694,-0.29521 0.2846...82,-0.81011 -1.36502,0.65089 -0.64499,-0.47885 z\', u\'dep\': u\'033\', u\'desc\': u\'Cantons de : Bordeaux III, Bordeaux IV, Bordeaux V, Bordeaux VII\', u\'h\': u\'6.9920654296875\', u\'id\': u\'033-02\', u\'paris\': False, u\'title\': u\'Deuxi\\xe8me circonscription de la Gironde\', u\'ville\': True, ...}, {u\'_id\': ObjectId(\'59b9502b6d8669a204556255\'), u\'carte\': u\'france\', u\'d\': u\'m 385.69306,797.45783 -0.59548,0.48841 0.37369...698,-0.7609 -0.89282,-0.81011 -1.36502,0.65089 z\', u\'dep\': u\'033\', u\'desc\': u"Cantons : B\\xe8gles, Bordeaux VI, Talence, Villenave-d\'Ornon", u\'h\': u\'11.29888916015625\', u\'id\': u\'033-03\', u\'paris\': False, u\'title\': u\'Troisi\\xe8me circonscription de la Gironde\', u\'ville\': True, ...}, {u\'_id\': ObjectId(\'59b9502c6d8669a20455633c\'), u\'carte\': u\'france\', u\'d\': u\'m 398.27832,781.26952 -1.235,-2.0623 -0.2764,-...007,-0.44117 -0.2952,-0.80737 -0.3125,-0.95724 z\', u\'dep\': u\'033\', u\'desc\': u\'Cantons de : Carbon-Blanc, Cenon, Floirac, Lormont\', u\'h\': u\'28.51434326171875\', u\'id\': u\'033-04\', u\'paris\': False, u\'title\': u\'Quatri\\xe8me circonscription de la Gironde\', u\'ville\': False, ...}, {u\'_id\': ObjectId(\'59b9502c6d8669a20455633e\'), u\'carte\': u\'france\', u\'d\': u\'m 383.63892,797.88323 -2.0941,0.1487 -0.7519,0... -0.2852,1.22721 0.2975,0.29529 -1.4042,0.9027 z\', u\'dep\': u\'033\', u\'desc\': u\'Cantons de M\\xe9rignac I, M\\xe9rignac II, Saint-M\\xe9dard-en-Jalles\', u\'h\': u\'27.56414794921875\', u\'id\': u\'033-06\', u\'paris\': False, u\'title\': u\'Sixi\\xe8me circonscription de la Gironde\', u\'ville\': False, ...}, {u\'_id\': ObjectId(\'59b9502c6d8669a20455633f\'), u\'carte\': u\'france\', u\'d\': u\'m 372.47102,805.02675 -3.0484,1.32329 -3.627,0...9 -0.7592,1.9717 0.1695,1.26674 -1.901,2.30057 z\', u\'dep\': u\'033\', u\'desc\': u\'Cantons de : Gradignan, Pessac I, Pessac II\', u\'h\': u\'17.94073486328125\', u\'id\': u\'033-07\', u\'paris\': False, u\'title\': u\'Septi\\xe8me circonscription de la Gironde\', u\'ville\': False, ...}, {u\'_id\': ObjectId(\'59b9502c6d8669a204556340\'), u\'carte\': u\'france\', u\'d\': u\'m 361.75592,793.7059 -3.59375,1.09375 -2.625,1...375 0.5625,0.21875 0.28125,-0.21875 -1,-1.0625 z\', u\'dep\': u\'033\', u\'desc\': u\'Cantons de : Arcachon, Audenge, La Teste-de-Buch\', u\'h\': u\'45.68756103515625\', u\'id\': u\'033-08\', u\'paris\': False, u\'title\': u\'Huiti\\xe8me circonscription de la Gironde\', u\'ville\': False, ...}, {u\'_id\': ObjectId(\'59b9502c6d8669a204556341\'), u\'carte\': u\'france\', u\'d\': u\'m 422.26252,838.44921 -1.7365,-0.80879 -0.2127...3.4538,-0.91468 0.0387,-1.22928 -1.1162,0.0654 z\', u\'dep\': u\'033\', u\'desc\': u\'Cantons de : Bazas, Belin-B\\xe9liet, La Br\\xe8... Langon, Podensac, Saint-Symphorien, Villandraut\', u\'h\': u\'68.51519775390625\', u\'id\': u\'033-09\', u\'paris\': False, u\'title\': u\'Neuvi\\xe8me circonscription de la Gironde\', u\'ville\': False, ...}, {u\'_id\': ObjectId(\'59b9502c6d8669a204556342\'), u\'carte\': u\'france\', u\'d\': u\'m 409.36552,799.21017 -0.3859,-0.63139 -0.9968....3118,-0.66475 0.2413,-0.68698 -1.032,-0.51992 z\', u\'dep\': u\'033\', u\'desc\': u\'Cantons de : Branne, Castillon-la-Bataille, Fr..., Libourne, Lussac, Pujols, Sainte-Foy-la-Grande\', u\'h\': u\'39.280029296875\', u\'id\': u\'033-10\', u\'paris\': False, u\'title\': u\'Dixi\\xe8me circonscription de la Gironde\', u\'ville\': False, ...}, {u\'_id\': ObjectId(\'59b9502c6d8669a204556343\'), u\'carte\': u\'france\', u\'d\': u\'m 378.51982,762.40625 -0.4985,-4.19355 -0.612,...6343,-1.24421 -0.2307,-1.58584 -0.0837,-0.9394 z\', u\'dep\': u\'033\', u\'desc\': u\'Cantons de Blaye, Bourg, Coutras, Guitres, Sai...-de-Cubzac, Saint-Ciers-sur-Gironde, Saint-Savin\', u\'h\': u\'46.94659423828125\', u\'id\': u\'033-11\', u\'paris\': False, u\'title\': u\'Onzi\\xe8me circonscription de la Gironde\', u\'ville\': False, ...}, {u\'_id\': ObjectId(\'59b9502c6d8669a204556344\'), u\'carte\': u\'france\', u\'d\': u\'m 430.83192,841.95337 -0.6624,-0.40317 -0.5872....7255,-0.16869 0.3967,-1.82608 -1.2691,0.79612 z\', u\'dep\': u\'033\', u\'desc\': u\'Cantons de : Auros, Cadillac, Cr\\xe9on, Mons\\x...le, Saint-Macaire, Sauveterre-de-Guyenne, Targon\', u\'h\': u\'53.65771484375\', u\'id\': u\'033-12\', u\'paris\': False, u\'title\': u\'Douzi\\xe8me circonscription de la Gironde\', u\'ville\': False, ...}, {u\'_id\': ObjectId(\'59b9502c6d8669a20455633d\'), u\'carte\': u\'france\', u\'d\': u\'m 381.36332,786.51086 0.006,-0.83121 -1.4161,-...0.0329,-2.01079 2.3063,0.0616 -1.0058,-1.77695 z\', u\'dep\': u\'033\', u\'desc\': u\'Cantons de Blanquefort, Castelnau-de-M\\xe9doc,...Saint-Laurent-M\\xe9doc, Saint-Vivien-de-M\\xe9doc\', u\'h\': u\'92.17254638671875\', u\'id\': u\'033-05\', u\'paris\': False, u\'title\': u\'Cinqui\\xe8me circonscription de la Gironde\', u\'ville\': False, ...}]'
p542
sS'IS_FLOAT_IN_RANGE'
p543
S"<class 'gluon.validators.IS_FLOAT_IN_RANGE'>"
p544
sS'IS_EXPR'
p545
S"<class 'gluon.validators.IS_EXPR'>"
p546
sS'T'
S'<gluon.languages.translator object>'
p547
sS'IS_IN_SET'
p548
S"<class 'gluon.validators.IS_IN_SET'>"
p549
sS'contact'
p550
S"{u'lien': u'mailto:loic.prudhomme@assemblee-nationale.fr', u'type': u'mail'}"
p551
sS'IS_UPLOAD_FILENAME'
p552
S"<class 'gluon.validators.IS_UPLOAD_FILENAME'>"
p553
sV_id
p554
S"ObjectId('59af324a6d8669a20452a42e')"
p555
sVdepute_csp
p556
S"u'Professions Interm\\xe9diaires'"
p557
sS'TT'
p558
S"<class 'gluon.html.TT'>"
p559
sS'IS_DECIMAL_IN_RANGE'
p560
S"<class 'gluon.validators.IS_DECIMAL_IN_RANGE'>"
p561
sssS'traceback'
p562
S'Traceback (most recent call last):\n  File "/home/www-data/web2py/gluon/restricted.py", line 219, in restricted\n    exec(ccode, environment)\n  File "<string>", line 163, in <module>\nNameError: name \'icon\' is not defined\n'
p563
s.