(dp1
S'output'
p2
S"<type 'exceptions.NameError'> name 'json' is not defined"
p3
sS'layer'
p4
S'/home/www-data/web2py/applications/oadev/views/depute/index.html'
p5
sS'code'
p6
S'response.write(\'<!DOCTYPE html>\\n<html lang="fr">\\n<head>\\n    <meta charset="utf-8">\\n    <meta http-equiv="x-ua-compatible" content="ie=edge">\\n    <title>\', escape=False)\nresponse.write(\' \'.join(depute_nom.split(\' \')[1:]))\nresponse.write(\' | Observatoire Insoumis\', escape=False)\nresponse.write(\'</title>\\n    <meta name="description" content="">\\n    <meta name="viewport" content="width=device-width, initial-scale=1">\\n\\n    <link href="https://fonts.googleapis.com/css?family=Montserrat:400,600,700" rel="stylesheet">\\n    <link href="https://maxcdn.bootstrapcdn.com/font-awesome/4.7.0/css/font-awesome.min.css" rel="stylesheet">\\n    <link rel="stylesheet" href="\', escape=False)\nresponse.write(URL(\'static\',\'css/main.css\'))\nresponse.write(\'" rel="stylesheet">\\n    \', escape=False)\nresponse.write(\'\\n<style>\\n    high {\\n        background-color: #82cde2;\\n        color: white;\\n    }\\n    <link href="https://cdnjs.cloudflare.com/ajax/libs/billboard.js/1.0.1/billboard.min.css" rel="stylesheet">\\n</style>\\n\', escape=False)\nresponse.write(\'\\n</head>\\n<body>\\n    <nav id="main-nav" class="flex">\\n        <img src="\', escape=False)\nresponse.write(URL(\'static\',\'assets/logo.svg\'))\nresponse.write(\'" alt="Observatoire Insoumis">\\n        <ul>\\n            <li>Programme Pr\\xc3\\xa9sidentiel</li>\\n            <li>Gouvernement</li>\\n            <li>Assembl\\xc3\\xa9e Nationale</li>\\n        </ul>\\n    </nav>\\n    <header id="header">\\n        Header super chouette sisi !\\n    </header>\\n    <nav id="sub-nav">\\n        <ul>\\n            <li><i class="fa fa-users" aria-hidden="true"></i> Groupes</li>\\n            <li><i class="fa fa-user-circle-o" aria-hidden="true"></i> D\\xc3\\xa9put\\xc3\\xa9s</li>\\n            <li><i class="fa fa-thumbs-up" aria-hidden="true"></i> Suivi FI</li>\\n        </ul>\\n    </nav>\\n    \', escape=False)\nresponse.write(\'\\n    <div id="depute-template" class="container">\\n        <div class="depute-header">\\n            <div class="depute-photo">\\n                <img src="http://www2.assemblee-nationale.fr/static/tribun/15/photos/\', escape=False)\nresponse.write(depute_uid[2:])\nresponse.write(\'.jpg"/>\\n            </div>\\n            <div class="depute-identite">\\n                <header>\\n                    <h2><span>\', escape=False)\nresponse.write("%s / %s / %se circ" % (depute_region,depute_departement,depute_circo))\nresponse.write(\'</span></h2>\\n                    <h1>\', escape=False)\nresponse.write(depute_nom)\nresponse.write(\'</h1>\\n                </header>\\n\\n                <div class="depute-contacts">\\n                    \', escape=False)\nfor contact in depute_contacts:\n    if (contact[\'type\']==u\'mail\'):\n        response.write(\'<a class="depute-contact" href="\', escape=False)\n        response.write(contact[\'lien\'])\n        response.write(\'"><i class="fa fa-envelope"></i></a>\\n                    \', escape=False)\n    elif (contact[\'type\']==\'twitter\'):\n        response.write(\'<a class="depute-contact" href="\', escape=False)\n        response.write(contact[\'lien\'])\n        response.write(\'"><i class="fa fa-twitter"></i></a>\\n                    \', escape=False)\n    elif (contact[\'type\']==\'facebook\'):\n        response.write(\'<a class="depute-contact" href="\', escape=False)\n        response.write(contact[\'lien\'])\n        response.write(\'"><i class="fa fa-facebook-square"></i></a>\\n                    \', escape=False)\n    elif (contact[\'type\']==\'site\'):\n        response.write(\'<a class="depute-contact" href="\', escape=False)\n        response.write(contact[\'lien\'])\n        response.write(\'"><i class="fa fa-globe"></i></a>\\n                    \', escape=False)\n        pass\n    response.write(\'\\n                    \', escape=False)\n    pass\nresponse.write(\'\\n                </div>\\n\\n                <div class="depute-groupe \', escape=False)\nresponse.write(groupe_abrev)\nresponse.write(\'"><i class="fa fa-group"></i> <a href="\', escape=False)\nresponse.write(URL(\'groupe\',\'index\',args=[groupe_abrev]))\nresponse.write(\'">\', escape=False)\nresponse.write(groupe_libelle)\nresponse.write(\'</a></div>\\n                <div class="depute-infos"><span>\', escape=False)\nresponse.write("%s, %s" % (depute_profession, depute_naissance))\nresponse.write(\'</span></div>\\n                <div class="depute-infos"><span>Suppl\\xc3\\xa9ant : \', escape=False)\nresponse.write(depute_suppleant)\nresponse.write(\'</span></div>\\n            </div>\\n        </div>\\n\\n        <div class="tab-container">\\n            <header>\\n                <input id="tab1" type="radio" name="tabs" value="presentation">\\n                <label for="tab1"><i class="fa fa-id-card-o"></i><span>Pr\\xc3\\xa9sentation</span></label>\\n\\n                <input id="tab2" type="radio" name="tabs" value="interventions" checked>\\n                <label for="tab2"><i class="fa fa-comment-o"></i><span>Interventions</span></label>\\n\\n                <input id="tab3" type="radio" name="tabs" value="votes">\\n                <label for="tab3"><i class="fa fa-hand-paper-o"></i><span>Votes</span></label>\\n            </header>\\n\\n            <section id="presentation" class="tab-content"> <!-- Pr\\xc3\\xa9sentation -->\\n                <div class="depute-hemicycle">\\n                    \', escape=False)\nresponse.write(svgcirco(depute_circo_id))\nresponse.write(\'\\n                    <object id="hemicycle" data="\', escape=False)\nresponse.write(URL(\'static\',\'images/hemicyclelight.svg\'))\nresponse.write(\'" type="image/svg+xml"></object>\\n                </div>\\n                <div class="depute-fonctions">\\n                    <h2>Fonctions / Mandats</h2>\\n                    <ul class="fa-ul">\\n                        <li><i class="fa fa-li fa-arrow-circle-o-right"></i> Membre de l\\\'Assembl\\xc3\\xa9e \', escape=False)\nif \'depute_actif\':\n    response.write(\'depuis le \', escape=False)\n    response.write(depute_mandat_debut)\nelse:\n    response.write(\'du %s au %s\' % (depute_mandat_debut,depute_mandat_fin))\n    pass\nresponse.write(\'</li>\\n                        \', escape=False)\nif depute_bureau:\n    response.write(\'<li><i class="fa fa-li fa-arrow-circle-o-right"></i> \', escape=False)\n    response.write(depute_bureau)\n    response.write(\'</li>\', escape=False)\n    pass\nresponse.write(\'\\n                        \', escape=False)\nfor typ,mandats in depute_mandats.iteritems():\n    for m in mandats:\n        response.write(\'\\n                        <li>\\n                            <i class="fa fa-li fa-arrow-circle-o-right"></i> <a href="\', escape=False)\n        response.write(m[\'lien\'])\n        response.write(\'">\', escape=False)\n        response.write(m[\'nom\'])\n        response.write(\'</a> (\', escape=False)\n        response.write(m[\'qualite\'])\n        response.write(\')\\n                        </li>\\n                        \', escape=False)\n        pass\n    pass\nresponse.write(\'\\n                    </ul>\\n                    \', escape=False)\nif depute_autresmandats:\n    response.write(\'\\n                    <h2>Autres Mandats</h2>\\n                    <ul class="fa-ul">\\n                        \', escape=False)\n    for am in depute_autresmandats:\n        response.write(\'\\n                        <li>\\n                            <i class="fa fa-li fa-arrow-circle-o-right"></i> \', escape=False)\n        response.write(am)\n        response.write(\'\\n                        </li>\', escape=False)\n        pass\n    response.write(\'\\n                    </ul>\\n                    \', escape=False)\n    pass\nresponse.write(\'\\n                    \', escape=False)\nif depute_collaborateurs:\n    response.write(\'\\n                    <h2>Collaborateurs</h2>\\n                    <ul class="fa-ul">\\n                        \', escape=False)\n    for co in depute_collaborateurs:\n        response.write(\'\\n                        <li>\\n                            <i class="fa fa-li fa-arrow-circle-o-right"></i> \', escape=False)\n        response.write(co)\n        response.write(\'\\n                        </li>\', escape=False)\n        pass\n    response.write(\'\\n                    </ul>\\n                    \', escape=False)\n    pass\nresponse.write(\'\\n                </div>\\n                \', escape=False)\nif depute_deputywatch:\n    response.write(\'\\n                <div class="depute-watch">\\n                    <h2>Deputy Watch</h2>\\n                    <div class="flex">\\n                        <img src="\', escape=False)\n    response.write(URL(\'static\',\'assets/deputywatch.png\'))\n    response.write(\'" alt="Deputy Watch">\\n                        <div>\\n                            Le site Deputy Watch tente de recenser les ant\\xc3\\xa9c\\xc3\\xa9dents judiciaires de notori\\xc3\\xa9t\\xc3\\xa9 publique des \\xc3\\xa9lus.\\n                            Nous y avons cherch\\xc3\\xa9 ce d\\xc3\\xa9put\\xc3\\xa9 et il semblerait qu\\\'il y soit list\\xc3\\xa9.<br />\\n                            <a href="\', escape=False)\n    response.write(depute_deputywatch[\'url\'])\n    response.write(\'" target="_blank">\\n                                <i class="fa fa-arrow-circle-o-right"></i> Voir le r\\xc3\\xa9sultat\\n                            </a>\\n                        </div>\\n                    </div>\\n                </div>\\n                \', escape=False)\n    pass\nresponse.write(\'\\n                \', escape=False)\nif len(depute_hatvp)>0:\n    response.write(\'\\n                <div>\\n                    <h2>D\\xc3\\xa9claration \\xc3\\xa0 la HATVP</h2>\\n                    <ul class="fa-ul">\\n                        \', escape=False)\n    for dec in depute_hatvp:\n        response.write(\'\\n                        <li>\\n                            <a href="\', escape=False)\n        response.write(dec[\'docurl\'])\n        response.write(\'" target="_blank">\\n                                <i class="fa fa-li fa-file-text-o"></i>\\n                                \', escape=False)\n        response.write("%s - %s" % (dec[\'typedoc\'], dec[\'qualite\']))\n        response.write(\'\\n                            </a>\\n                        </li>\\n                        \', escape=False)\n        pass\n    response.write(\'\\n                    </ul>\\n                </div>\\n                \', escape=False)\n    pass\nresponse.write(\'\\n            </section>\\n\\n\\t\\t\\t<section id="interventions" class="tab-content"> <!-- Interventions -->\\n                <div class="depute-interventions-recap">\\n                    Nombre d\\\'interventions : <span>\', escape=False)\nresponse.write(stats[\'nbitvs\'])\nresponse.write(\'</span>, nombre de mots : <span>\', escape=False)\nresponse.write(stats[\'nbmots\'])\nresponse.write(\'</span>\\n                </div>\\n                <div class="depute-interventions-cloud">\\n                    <div>\\n                        <h2>Ses mots</h2>\\n                        <div id="sourrounding_div_noms" class="cloud">\\n                            <canvas id="wordcanvas_noms"></canvas>\\n                        </div>\\n                    </div>\\n                    <div>\\n                        <h2>Ses verbes</h2>\\n                        <div id="sourrounding_div_verbes" class="cloud">\\n                            <canvas id="wordcanvas_verbes"></canvas>\\n                        </div>\\n                    </div>\\n                </div>\\n                <div id="itvlist">\\n                    <h2>Ses interventions</h2>\\n                    <div class="depute-interventions-search">\\n                        <input class="search" placeholder="Rechercher une intervention">\\n                        <button type="button"><i class="fa fa-search" aria-hidden="true"></i></button>\\n                    </div>\\n                    <ul id="itv-items" class="fa-ul">\\n\\n                    </ul>\\n                </div>\\n\\t\\t\\t</section>\\n\\n\\t\\t\\t<section id="votes" class="tab-content"> <!-- Votes -->\\n\\t\\t\\t\\t<div class="depute-votes-recap">\\n                    <div class="gauge">\\n                        <h2>Participation</h2>\\n                        \', escape=False)\nresponse.write(svggauge(\'vote\',stats[\'positions\'][\'exprimes\']))\nresponse.write(\'\\n                    </div>\\n                    <div class="gauge">\\n                        <h2>Contre son groupe</h2>\\n                        \', escape=False)\nresponse.write(svggauge(\'diss\',stats[\'positions\'][\'dissidence\']))\nresponse.write(\'\\n                    </div>\\n                    <div class="gauge">\\n                        <h2>FI-Compatibilit\\xc3\\xa9</h2>\\n                        \', escape=False)\nresponse.write(svggauge(\'compfi\',stats[\'compat\'][\'FI\']))\nresponse.write(\'\\n                    </div>\\n                    <div class="gauge">\\n                        <h2>EM-Compatibilit\\xc3\\xa9</h2>\\n                        \', escape=False)\nresponse.write(svggauge(\'compem\',stats[\'compat\'][\'REM\']))\nresponse.write(\'\\n                    </div>\\n                </div>\\n                <div class="depute-votes-calendar">\\n                    <h2>Calendrier des votes</h2>\\n                    <div id="calendar"></div>\\n                </div>\\n                 <div class="depute-votes-calendar">\\n                    <h2>Calendrier des votes</h2>\\n                    <div id="presenceChart"></div>\\n                </div>\\n\\n                <div class="depute-votes-list">\\n                    <h2>Ses votes</h2>\\n                    <div class="depute-votes-search">\\n                        <input class="search" placeholder="Rechercher un vote">\\n                        <button type="button"><i class="fa fa-search" aria-hidden="true"></i></button>\\n                    </div>\\n                    <ul id="vote-items">\\n\\n                    </ul>\\n                </div>\\n            </section>\\n        </div>\\n    </div>\\n\', escape=False)\nresponse.write(\'\\n    \', escape=False)\nresponse.write(\'\\n  <script src="https://cdnjs.cloudflare.com/ajax/libs/jquery/3.2.1/jquery.min.js"></script>\\n  <script src="\', escape=False)\nresponse.write(URL(\'static\',\'js/wordcloud2.js\'))\nresponse.write(\'"></script>\\n  <script src="https://d3js.org/d3.v4.min.js"></script>\\n  <script src="https://cdnjs.cloudflare.com/ajax/libs/billboard.js/1.0.1/billboard.min.js"></script>\\n  <script src="https://unpkg.com/infinite-scroll@3/dist/infinite-scroll.pkgd.min.js"></script>\\n  <script src="\', escape=False)\nresponse.write(URL(\'static\',\'js/depute.js\'))\nresponse.write(\'"></script>\\n  <script>\\n      \\n      \\n    // Interventions\\n    var itv_IS = setInfiniteScroll(id=\\\'itv-items\\\',path=\\\'\', escape=False)\nresponse.write(URL("depute","ajax_itvs"))\nresponse.write(\'\\\',args={depute_uid:"\', escape=False)\nresponse.write(depute_uid)\nresponse.write(\'"},append=\\\'.itv-item\\\');\\n    \\n    function searchitv() {\\n        itv_IS.element.innerHTML = \\\'\\\';\\n         itv_IS.destroy();\\n         search = $(\\\'.depute-interventions-search input.search\\\').val();\\n         itv_IS = setInfiniteScroll(id=\\\'itv-items\\\',path=\\\'\', escape=False)\nresponse.write(URL("depute","ajax_itvs"))\nresponse.write(\'\\\',args={depute_uid:"\', escape=False)\nresponse.write(depute_uid)\nresponse.write(\'",search:search},append=\\\'.itv-item\\\', emptyMsg=\\\'<li>Aucune intervention n\\\\\\\'a \\xc3\\xa9t\\xc3\\xa9 trouv\\xc3\\xa9e pour cette recherche.</li>\\\');\\n        itv_IS.on(\\\'append\\\', function(response) {\\n            if (itv_IS.element.childElementCount === 0) {\\n                itv_IS.element.innerHTML = \\\'<li>Aucune intervention n\\\\\\\'a \\xc3\\xa9t\\xc3\\xa9 trouv\\xc3\\xa9e pour cette recherche.</li>\\\';\\n            }\\n        });\\n    }\\n      \\n    $(\\\'.depute-interventions-search button\\\').click(function() {\\n        searchitv();\\n    });\\n    \\n    $(\\\'.depute-interventions-search\\\').keypress(function(e) {\\n    if ((e.which && e.which == 13) || (e.keyCode && e.keyCode == 13)) {\\n        e.preventDefault();\\n        searchitv();\\n    }\\n    });\\n\\n    // Votes\\n    var vote_IS = setInfiniteScroll(id=\\\'vote-items\\\',path=\\\'\', escape=False)\nresponse.write(URL("depute","ajax_votes"))\nresponse.write(\'\\\',args={depute_uid:"\', escape=False)\nresponse.write(depute_uid)\nresponse.write(\'"},append=\\\'.vote-item\\\');\\n    \\n    function searchvote() {\\n        vote_IS.element.innerHTML = \\\'\\\';\\n         vote_IS.destroy();\\n         search = $(\\\'.depute-votes-search input.search\\\').val();\\n         vote_IS = setInfiniteScroll(id=\\\'vote-items\\\',path=\\\'\', escape=False)\nresponse.write(URL("depute","ajax_votes"))\nresponse.write(\'\\\',args={depute_uid:"\', escape=False)\nresponse.write(depute_uid)\nresponse.write(\'",search:search},append=\\\'.vote-item\\\');\\n        vote_IS.on(\\\'append\\\', function(response) {\\n            if (vote_IS.element.childElementCount === 0) {\\n                vote_IS.element.innerHTML = \\\'<li>Aucun vote n\\\\\\\'a \\xc3\\xa9t\\xc3\\xa9 trouv\\xc3\\xa9 pour cette recherche.</li>\\\';\\n            }\\n        });\\n    }\\n    \\n    $(\\\'.depute-votes-search button\\\').click(function() {\\n        searchvote();\\n    });\\n      \\n    $(\\\'.depute-votes-search\\\').keypress(function(e) {\\n    if ((e.which && e.which == 13) || (e.keyCode && e.keyCode == 13)) {\\n        e.preventDefault();\\n        searchvote();\\n    }\\n    });\\n    \\n    // Init Calendrier\\n    var csv = JSON.parse(\\\'\', escape=False)\nresponse.write(XML(json.dumps(dates)))\nresponse.write("\');\\n    // test areachart\\n   \\n\\n\\n\\n    // Init Nuages\\n    ", escape=False)\nimport json\nresponse.write(\'\\n    var wordlist = {};\\n    \', escape=False)\nif depute_nuages:\n    response.write(\'\\n    \', escape=False)\n    for lex in depute_nuages.keys():\n        response.write("\\n       wordlist[\'", escape=False)\n        response.write(lex)\n        response.write("\'] = JSON.parse(\'", escape=False)\n        response.write(XML(json.dumps(depute_nuages[lex])))\n        response.write("\');\\n    ", escape=False)\n        pass\n    response.write(\'\\n    \', escape=False)\n    pass\nresponse.write(\'\\n\\n    var svg = document.getElementById(\\\'hemicycle\\\');\\n    $(document).ready(function() {\\n        \\n        var visible = $(\\\'.tab-container input:checked\\\').val();\\n        $(\\\'#\\\' + visible).addClass(\\\'visible\\\');\\n\\n        $(\\\'.tab-container header input[name=tabs]\\\').change(function(e) {\\n            $(\\\'.tab-content\\\').removeClass(\\\'visible\\\');\\n            $(\\\'#\\\' + e.target.value).addClass(\\\'visible\\\');\\n        });\\n        \\n        /* position hemicycle */\\n        \\n        svg.addEventListener(\\\'load\\\', function () {\\n          initHemicycle("\', escape=False)\nresponse.write(depute_place)\nresponse.write(\'");\\n        });\\n        \\n        var chart = bb.generate({\\n          "data": {\\n            "columns": [\\n                JSON.parse("\', escape=False)\nresponse.write(XML(json.dumps([d[\'pct\'] for d in dates.values()])))\nresponse.write(\'")\\n            ],\\n            "types": {\\n              "data": "area"\\n            }\\n          },\\n          "bindto": "#presenceChart"\\n        });\\n                genCalendar();\\n        drawNuages();  \\n\\n        var resizeDebounce;\\n        $(window).resize(function() {\\n            clearTimeout(resizeDebounce);\\n            resizeDebounce = setTimeout(function() {\\n                window.requestAnimationFrame(function() {\\n                    drawNuages();\\n                    $(\\\'#calendar svg\\\').remove();\\n                    genCalendar();\\n                });\\n            }, 100);\\n        });\\n    });\\n</script>\\n\', escape=False)\nresponse.write(\'\\n</body>\\n</html>\\n\', escape=False)'
p7
sS'snapshot'
p8
(dp9
S'exception'
p10
(dp11
S'__getslice__'
p12
S"<method-wrapper '__getslice__' of exceptions.NameError object>"
p13
sS'__str__'
p14
S"<method-wrapper '__str__' of exceptions.NameError object>"
p15
sS'__reduce__'
p16
S'<built-in method __reduce__ of exceptions.NameError object>'
p17
sS'__dict__'
p18
S'{}'
p19
sS'message'
p20
S'"name \'json\' is not defined"'
p21
sS'__sizeof__'
p22
S'<built-in method __sizeof__ of exceptions.NameError object>'
p23
sS'__init__'
p24
S"<method-wrapper '__init__' of exceptions.NameError object>"
p25
sS'__setattr__'
p26
S"<method-wrapper '__setattr__' of exceptions.NameError object>"
p27
sS'__reduce_ex__'
p28
S'<built-in method __reduce_ex__ of exceptions.NameError object>'
p29
sS'__new__'
p30
S'<built-in method __new__ of type object>'
p31
sS'__format__'
p32
S'<built-in method __format__ of exceptions.NameError object>'
p33
sS'__class__'
p34
S"<type 'exceptions.NameError'>"
p35
sS'__doc__'
p36
S"'Name not found globally.'"
p37
sS'__getitem__'
p38
S"<method-wrapper '__getitem__' of exceptions.NameError object>"
p39
sS'__setstate__'
p40
S'<built-in method __setstate__ of exceptions.NameError object>'
p41
sS'__getattribute__'
p42
S"<method-wrapper '__getattribute__' of exceptions.NameError object>"
p43
sS'args'
p44
S'("name \'json\' is not defined",)'
p45
sS'__subclasshook__'
p46
S'<built-in method __subclasshook__ of type object>'
p47
sS'__unicode__'
p48
S'<built-in method __unicode__ of exceptions.NameError object>'
p49
sS'__delattr__'
p50
S"<method-wrapper '__delattr__' of exceptions.NameError object>"
p51
sS'__repr__'
p52
S"<method-wrapper '__repr__' of exceptions.NameError object>"
p53
sS'__hash__'
p54
S"<method-wrapper '__hash__' of exceptions.NameError object>"
p55
ssS'evalue'
p56
S"name 'json' is not defined"
p57
sS'request'
p58
cgluon.html
XML_unpickle
p59
(S's\x94q\x00\x00<div><table><tr><td style="font-weight:bold;vertical-align:top;">ajax</td><td style="vertical-align:top;">:</td><td><div>False</div></td></tr><tr><td style="font-weight:bold;vertical-align:top;">application</td><td style="vertical-align:top;">:</td><td><div>oadev</div></td></tr><tr><td style="font-weight:bold;vertical-align:top;">args</td><td style="vertical-align:top;">:</td><td><div><table></table></div></td></tr><tr><td style="font-weight:bold;vertical-align:top;">cid</td><td style="vertical-align:top;">:</td><td><div>None</div></td></tr><tr><td style="font-weight:bold;vertical-align:top;">client</td><td style="vertical-align:top;">:</td><td><div>83.203.225.71</div></td></tr><tr><td style="font-weight:bold;vertical-align:top;">controller</td><td style="vertical-align:top;">:</td><td><div>depute</div></td></tr><tr><td style="font-weight:bold;vertical-align:top;">cookies</td><td style="vertical-align:top;">:</td><td><div><table><tr><td style="font-weight:bold;vertical-align:top;">session_id_admin</td><td style="vertical-align:top;">:</td><td><div>83.203.183.214-9e4831cd-10f8-4436-b4dd-503aa7157164<table><tr><td style="font-weight:bold;vertical-align:top;">comment</td><td style="vertical-align:top;">:</td><td><div></div></td></tr><tr><td style="font-weight:bold;vertical-align:top;">domain</td><td style="vertical-align:top;">:</td><td><div></div></td></tr><tr><td style="font-weight:bold;vertical-align:top;">expires</td><td style="vertical-align:top;">:</td><td><div></div></td></tr><tr><td style="font-weight:bold;vertical-align:top;">httponly</td><td style="vertical-align:top;">:</td><td><div></div></td></tr><tr><td style="font-weight:bold;vertical-align:top;">max-age</td><td style="vertical-align:top;">:</td><td><div></div></td></tr><tr><td style="font-weight:bold;vertical-align:top;">path</td><td style="vertical-align:top;">:</td><td><div></div></td></tr><tr><td style="font-weight:bold;vertical-align:top;">secure</td><td style="vertical-align:top;">:</td><td><div></div></td></tr><tr><td style="font-weight:bold;vertical-align:top;">version</td><td style="vertical-align:top;">:</td><td><div></div></td></tr></table></div></td></tr><tr><td style="font-weight:bold;vertical-align:top;">session_id_oadev</td><td style="vertical-align:top;">:</td><td><div>83.203.225.71-036ba45c-05ed-4959-b490-261a64d1c0c5<table><tr><td style="font-weight:bold;vertical-align:top;">comment</td><td style="vertical-align:top;">:</td><td><div></div></td></tr><tr><td style="font-weight:bold;vertical-align:top;">domain</td><td style="vertical-align:top;">:</td><td><div></div></td></tr><tr><td style="font-weight:bold;vertical-align:top;">expires</td><td style="vertical-align:top;">:</td><td><div></div></td></tr><tr><td style="font-weight:bold;vertical-align:top;">httponly</td><td style="vertical-align:top;">:</td><td><div></div></td></tr><tr><td style="font-weight:bold;vertical-align:top;">max-age</td><td style="vertical-align:top;">:</td><td><div></div></td></tr><tr><td style="font-weight:bold;vertical-align:top;">path</td><td style="vertical-align:top;">:</td><td><div></div></td></tr><tr><td style="font-weight:bold;vertical-align:top;">secure</td><td style="vertical-align:top;">:</td><td><div></div></td></tr><tr><td style="font-weight:bold;vertical-align:top;">version</td><td style="vertical-align:top;">:</td><td><div></div></td></tr></table></div></td></tr></table></div></td></tr><tr><td style="font-weight:bold;vertical-align:top;">env</td><td style="vertical-align:top;">:</td><td><div><table><tr><td style="font-weight:bold;vertical-align:top;">CONTEXT_DOCUMENT_ROOT</td><td style="vertical-align:top;">:</td><td><div>/var/www/html</div></td></tr><tr><td style="font-weight:bold;vertical-align:top;">CONTEXT_PREFIX</td><td style="vertical-align:top;">:</td><td><div></div></td></tr><tr><td style="font-weight:bold;vertical-align:top;">DOCUMENT_ROOT</td><td style="vertical-align:top;">:</td><td><div>/var/www/html</div></td></tr><tr><td style="font-weight:bold;vertical-align:top;">GATEWAY_INTERFACE</td><td style="vertical-align:top;">:</td><td><div>CGI/1.1</div></td></tr><tr><td style="font-weight:bold;vertical-align:top;">HTTP_ACCEPT</td><td style="vertical-align:top;">:</td><td><div>text/html,application/xhtml+xml,application/xml;q=0.9,image/webp,image/apng,*/*;q=0.8</div></td></tr><tr><td style="font-weight:bold;vertical-align:top;">HTTP_ACCEPT_ENCODING</td><td style="vertical-align:top;">:</td><td><div>gzip, deflate, br</div></td></tr><tr><td style="font-weight:bold;vertical-align:top;">HTTP_ACCEPT_LANGUAGE</td><td style="vertical-align:top;">:</td><td><div>fr-FR,fr;q=0.8,en-US;q=0.6,en;q=0.4</div></td></tr><tr><td style="font-weight:bold;vertical-align:top;">HTTP_CACHE_CONTROL</td><td style="vertical-align:top;">:</td><td><div>max-age=0</div></td></tr><tr><td style="font-weight:bold;vertical-align:top;">HTTP_CONNECTION</td><td style="vertical-align:top;">:</td><td><div>keep-alive</div></td></tr><tr><td style="font-weight:bold;vertical-align:top;">HTTP_COOKIE</td><td style="vertical-align:top;">:</td><td><div>session_id_oadev=83.203.225.71-036ba45c-05ed-4959-b490-261a64d1c0c5; session_id_admin=83.203.183.214-9e4831cd-10f8-4436-b4dd-503aa7157164</div></td></tr><tr><td style="font-weight:bold;vertical-align:top;">HTTP_HOST</td><td style="vertical-align:top;">:</td><td><div>admin.obsas.orvdev.fr</div></td></tr><tr><td style="font-weight:bold;vertical-align:top;">HTTP_REFERER</td><td style="vertical-align:top;">:</td><td><div>https://admin.obsas.orvdev.fr/admin/edit/oadev/controllers/deputes.py?id=controllers__deputes__py</div></td></tr><tr><td style="font-weight:bold;vertical-align:top;">HTTP_UPGRADE_INSECURE_REQUESTS</td><td style="vertical-align:top;">:</td><td><div>1</div></td></tr><tr><td style="font-weight:bold;vertical-align:top;">HTTP_USER_AGENT</td><td style="vertical-align:top;">:</td><td><div>Mozilla/5.0 (X11; Linux x86_64) AppleWebKit/537.36 (KHTML, like Gecko) Chrome/60.0.3112.101 Safari/537.36</div></td></tr><tr><td style="font-weight:bold;vertical-align:top;">PATH_INFO</td><td style="vertical-align:top;">:</td><td><div>/oadev/depute</div></td></tr><tr><td style="font-weight:bold;vertical-align:top;">PATH_TRANSLATED</td><td style="vertical-align:top;">:</td><td><div>/home/www-data/web2py/wsgihandler.py/oadev/depute</div></td></tr><tr><td style="font-weight:bold;vertical-align:top;">QUERY_STRING</td><td style="vertical-align:top;">:</td><td><div></div></td></tr><tr><td style="font-weight:bold;vertical-align:top;">REMOTE_ADDR</td><td style="vertical-align:top;">:</td><td><div>83.203.225.71</div></td></tr><tr><td style="font-weight:bold;vertical-align:top;">REMOTE_PORT</td><td style="vertical-align:top;">:</td><td><div>45191</div></td></tr><tr><td style="font-weight:bold;vertical-align:top;">REQUEST_METHOD</td><td style="vertical-align:top;">:</td><td><div>GET</div></td></tr><tr><td style="font-weight:bold;vertical-align:top;">REQUEST_SCHEME</td><td style="vertical-align:top;">:</td><td><div>https</div></td></tr><tr><td style="font-weight:bold;vertical-align:top;">REQUEST_URI</td><td style="vertical-align:top;">:</td><td><div>/oadev/depute</div></td></tr><tr><td style="font-weight:bold;vertical-align:top;">SCRIPT_FILENAME</td><td style="vertical-align:top;">:</td><td><div>/home/www-data/web2py/wsgihandler.py</div></td></tr><tr><td style="font-weight:bold;vertical-align:top;">SCRIPT_NAME</td><td style="vertical-align:top;">:</td><td><div></div></td></tr><tr><td style="font-weight:bold;vertical-align:top;">SERVER_ADDR</td><td style="vertical-align:top;">:</td><td><div>151.80.57.169</div></td></tr><tr><td style="font-weight:bold;vertical-align:top;">SERVER_ADMIN</td><td style="vertical-align:top;">:</td><td><div>[no address given]</div></td></tr><tr><td style="font-weight:bold;vertical-align:top;">SERVER_NAME</td><td style="vertical-align:top;">:</td><td><div>admin.obsas.orvdev.fr</div></td></tr><tr><td style="font-weight:bold;vertical-align:top;">SERVER_PORT</td><td style="vertical-align:top;">:</td><td><div>443</div></td></tr><tr><td style="font-weight:bold;vertical-align:top;">SERVER_PROTOCOL</td><td style="vertical-align:top;">:</td><td><div>HTTP/1.1</div></td></tr><tr><td style="font-weight:bold;vertical-align:top;">SERVER_SIGNATURE</td><td style="vertical-align:top;">:</td><td><div>&lt;address&gt;Apache/2.4.18 (Ubuntu) Server at admin.obsas.orvdev.fr Port 443&lt;/address&gt;\n</div></td></tr><tr><td style="font-weight:bold;vertical-align:top;">SERVER_SOFTWARE</td><td style="vertical-align:top;">:</td><td><div>Apache/2.4.18 (Ubuntu)</div></td></tr><tr><td style="font-weight:bold;vertical-align:top;">SSL_TLS_SNI</td><td style="vertical-align:top;">:</td><td><div>admin.obsas.orvdev.fr</div></td></tr><tr><td style="font-weight:bold;vertical-align:top;">apache.version</td><td style="vertical-align:top;">:</td><td><div><table><tr><td><div>2</div></td></tr><tr><td><div>4</div></td></tr><tr><td><div>18</div></td></tr></table></div></td></tr><tr><td style="font-weight:bold;vertical-align:top;">apache_version</td><td style="vertical-align:top;">:</td><td><div><table><tr><td><div>2</div></td></tr><tr><td><div>4</div></td></tr><tr><td><div>18</div></td></tr></table></div></td></tr><tr><td style="font-weight:bold;vertical-align:top;">app_folders</td><td style="vertical-align:top;">:</td><td><div>set([&#x27;/home/www-data/web2py/applications/observatoireassemblee/&#x27;, &#x27;/home/www-data/web2py/applications/obsas_dev/&#x27;, &#x27;/home/www-data/web2py/applications/admin/&#x27;, &#x27;/home/www-data/web2py/applications/oadev/&#x27;])</div></td></tr><tr><td style="font-weight:bold;vertical-align:top;">applications_parent</td><td style="vertical-align:top;">:</td><td><div>/home/www-data/web2py</div></td></tr><tr><td style="font-weight:bold;vertical-align:top;">context_document_root</td><td style="vertical-align:top;">:</td><td><div>/var/www/html</div></td></tr><tr><td style="font-weight:bold;vertical-align:top;">context_prefix</td><td style="vertical-align:top;">:</td><td><div></div></td></tr><tr><td style="font-weight:bold;vertical-align:top;">db_sessions</td><td style="vertical-align:top;">:</td><td><div>set([])</div></td></tr><tr><td style="font-weight:bold;vertical-align:top;">debugging</td><td style="vertical-align:top;">:</td><td><div>True</div></td></tr><tr><td style="font-weight:bold;vertical-align:top;">document_root</td><td style="vertical-align:top;">:</td><td><div>/var/www/html</div></td></tr><tr><td style="font-weight:bold;vertical-align:top;">gateway_interface</td><td style="vertical-align:top;">:</td><td><div>CGI/1.1</div></td></tr><tr><td style="font-weight:bold;vertical-align:top;">gluon_parent</td><td style="vertical-align:top;">:</td><td><div>/home/www-data/web2py</div></td></tr><tr><td style="font-weight:bold;vertical-align:top;">http_accept</td><td style="vertical-align:top;">:</td><td><div>text/html,application/xhtml+xml,application/xml;q=0.9,image/webp,image/apng,*/*;q=0.8</div></td></tr><tr><td style="font-weight:bold;vertical-align:top;">http_accept_encoding</td><td style="vertical-align:top;">:</td><td><div>gzip, deflate, br</div></td></tr><tr><td style="font-weight:bold;vertical-align:top;">http_accept_language</td><td style="vertical-align:top;">:</td><td><div>fr-FR,fr;q=0.8,en-US;q=0.6,en;q=0.4</div></td></tr><tr><td style="font-weight:bold;vertical-align:top;">http_cache_control</td><td style="vertical-align:top;">:</td><td><div>max-age=0</div></td></tr><tr><td style="font-weight:bold;vertical-align:top;">http_connection</td><td style="vertical-align:top;">:</td><td><div>keep-alive</div></td></tr><tr><td style="font-weight:bold;vertical-align:top;">http_cookie</td><td style="vertical-align:top;">:</td><td><div>session_id_oadev=83.203.225.71-036ba45c-05ed-4959-b490-261a64d1c0c5; session_id_admin=83.203.183.214-9e4831cd-10f8-4436-b4dd-503aa7157164</div></td></tr><tr><td style="font-weight:bold;vertical-align:top;">http_host</td><td style="vertical-align:top;">:</td><td><div>admin.obsas.orvdev.fr</div></td></tr><tr><td style="font-weight:bold;vertical-align:top;">http_referer</td><td style="vertical-align:top;">:</td><td><div>https://admin.obsas.orvdev.fr/admin/edit/oadev/controllers/deputes.py?id=controllers__deputes__py</div></td></tr><tr><td style="font-weight:bold;vertical-align:top;">http_upgrade_insecure_requests</td><td style="vertical-align:top;">:</td><td><div>1</div></td></tr><tr><td style="font-weight:bold;vertical-align:top;">http_user_agent</td><td style="vertical-align:top;">:</td><td><div>Mozilla/5.0 (X11; Linux x86_64) AppleWebKit/537.36 (KHTML, like Gecko) Chrome/60.0.3112.101 Safari/537.36</div></td></tr><tr><td style="font-weight:bold;vertical-align:top;">is_jython</td><td style="vertical-align:top;">:</td><td><div>False</div></td></tr><tr><td style="font-weight:bold;vertical-align:top;">is_py2</td><td style="vertical-align:top;">:</td><td><div>True</div></td></tr><tr><td style="font-weight:bold;vertical-align:top;">is_pypy</td><td style="vertical-align:top;">:</td><td><div>False</div></td></tr><tr><td style="font-weight:bold;vertical-align:top;">is_source</td><td style="vertical-align:top;">:</td><td><div>True</div></td></tr><tr><td style="font-weight:bold;vertical-align:top;">local_hosts</td><td style="vertical-align:top;">:</td><td><div><table><tr><td><div>vps433020</div></td></tr><tr><td><div>::ffff:127.0.0.1</div></td></tr><tr><td><div>::1</div></td></tr><tr><td><div>151.80.57.169</div></td></tr><tr><td><div>vps433020.ovh.net</div></td></tr><tr><td><div>127.0.1.1</div></td></tr><tr><td><div>admin.obsas.orvdev.fr</div></td></tr><tr><td><div>127.0.0.1</div></td></tr></table></div></td></tr><tr><td style="font-weight:bold;vertical-align:top;">mod_wsgi.application_group</td><td style="vertical-align:top;">:</td><td><div></div></td></tr><tr><td style="font-weight:bold;vertical-align:top;">mod_wsgi.callable_object</td><td style="vertical-align:top;">:</td><td><div>application</div></td></tr><tr><td style="font-weight:bold;vertical-align:top;">mod_wsgi.daemon_connects</td><td style="vertical-align:top;">:</td><td><div>1</div></td></tr><tr><td style="font-weight:bold;vertical-align:top;">mod_wsgi.daemon_restarts</td><td style="vertical-align:top;">:</td><td><div>0</div></td></tr><tr><td style="font-weight:bold;vertical-align:top;">mod_wsgi.daemon_start</td><td style="vertical-align:top;">:</td><td><div>1505854164725002</div></td></tr><tr><td style="font-weight:bold;vertical-align:top;">mod_wsgi.enable_sendfile</td><td style="vertical-align:top;">:</td><td><div>0</div></td></tr><tr><td style="font-weight:bold;vertical-align:top;">mod_wsgi.handler_script</td><td style="vertical-align:top;">:</td><td><div></div></td></tr><tr><td style="font-weight:bold;vertical-align:top;">mod_wsgi.input_chunked</td><td style="vertical-align:top;">:</td><td><div>0</div></td></tr><tr><td style="font-weight:bold;vertical-align:top;">mod_wsgi.listener_host</td><td style="vertical-align:top;">:</td><td><div></div></td></tr><tr><td style="font-weight:bold;vertical-align:top;">mod_wsgi.listener_port</td><td style="vertical-align:top;">:</td><td><div>443</div></td></tr><tr><td style="font-weight:bold;vertical-align:top;">mod_wsgi.process_group</td><td style="vertical-align:top;">:</td><td><div>obsasadm</div></td></tr><tr><td style="font-weight:bold;vertical-align:top;">mod_wsgi.queue_start</td><td style="vertical-align:top;">:</td><td><div>1505854164724886</div></td></tr><tr><td style="font-weight:bold;vertical-align:top;">mod_wsgi.request_handler</td><td style="vertical-align:top;">:</td><td><div>wsgi-script</div></td></tr><tr><td style="font-weight:bold;vertical-align:top;">mod_wsgi.request_start</td><td style="vertical-align:top;">:</td><td><div>1505854164724714</div></td></tr><tr><td style="font-weight:bold;vertical-align:top;">mod_wsgi.script_reloading</td><td style="vertical-align:top;">:</td><td><div>1</div></td></tr><tr><td style="font-weight:bold;vertical-align:top;">mod_wsgi.script_start</td><td style="vertical-align:top;">:</td><td><div>1505854164725034</div></td></tr><tr><td style="font-weight:bold;vertical-align:top;">mod_wsgi.version</td><td style="vertical-align:top;">:</td><td><div><table><tr><td><div>4</div></td></tr><tr><td><div>3</div></td></tr><tr><td><div>0</div></td></tr></table></div></td></tr><tr><td style="font-weight:bold;vertical-align:top;">mod_wsgi_application_group</td><td style="vertical-align:top;">:</td><td><div></div></td></tr><tr><td style="font-weight:bold;vertical-align:top;">mod_wsgi_callable_object</td><td style="vertical-align:top;">:</td><td><div>application</div></td></tr><tr><td style="font-weight:bold;vertical-align:top;">mod_wsgi_daemon_connects</td><td style="vertical-align:top;">:</td><td><div>1</div></td></tr><tr><td style="font-weight:bold;vertical-align:top;">mod_wsgi_daemon_restarts</td><td style="vertical-align:top;">:</td><td><div>0</div></td></tr><tr><td style="font-weight:bold;vertical-align:top;">mod_wsgi_daemon_start</td><td style="vertical-align:top;">:</td><td><div>1505854164725002</div></td></tr><tr><td style="font-weight:bold;vertical-align:top;">mod_wsgi_enable_sendfile</td><td style="vertical-align:top;">:</td><td><div>0</div></td></tr><tr><td style="font-weight:bold;vertical-align:top;">mod_wsgi_handler_script</td><td style="vertical-align:top;">:</td><td><div></div></td></tr><tr><td style="font-weight:bold;vertical-align:top;">mod_wsgi_input_chunked</td><td style="vertical-align:top;">:</td><td><div>0</div></td></tr><tr><td style="font-weight:bold;vertical-align:top;">mod_wsgi_listener_host</td><td style="vertical-align:top;">:</td><td><div></div></td></tr><tr><td style="font-weight:bold;vertical-align:top;">mod_wsgi_listener_port</td><td style="vertical-align:top;">:</td><td><div>443</div></td></tr><tr><td style="font-weight:bold;vertical-align:top;">mod_wsgi_process_group</td><td style="vertical-align:top;">:</td><td><div>obsasadm</div></td></tr><tr><td style="font-weight:bold;vertical-align:top;">mod_wsgi_queue_start</td><td style="vertical-align:top;">:</td><td><div>1505854164724886</div></td></tr><tr><td style="font-weight:bold;vertical-align:top;">mod_wsgi_request_handler</td><td style="vertical-align:top;">:</td><td><div>wsgi-script</div></td></tr><tr><td style="font-weight:bold;vertical-align:top;">mod_wsgi_request_start</td><td style="vertical-align:top;">:</td><td><div>1505854164724714</div></td></tr><tr><td style="font-weight:bold;vertical-align:top;">mod_wsgi_script_reloading</td><td style="vertical-align:top;">:</td><td><div>1</div></td></tr><tr><td style="font-weight:bold;vertical-align:top;">mod_wsgi_script_start</td><td style="vertical-align:top;">:</td><td><div>1505854164725034</div></td></tr><tr><td style="font-weight:bold;vertical-align:top;">mod_wsgi_version</td><td style="vertical-align:top;">:</td><td><div><table><tr><td><div>4</div></td></tr><tr><td><div>3</div></td></tr><tr><td><div>0</div></td></tr></table></div></td></tr><tr><td style="font-weight:bold;vertical-align:top;">nokeepalive</td><td style="vertical-align:top;">:</td><td><div>ssl-unclean-shutdown</div></td></tr><tr><td style="font-weight:bold;vertical-align:top;">path_info</td><td style="vertical-align:top;">:</td><td><div>/oadev/depute</div></td></tr><tr><td style="font-weight:bold;vertical-align:top;">path_translated</td><td style="vertical-align:top;">:</td><td><div>/home/www-data/web2py/wsgihandler.py/oadev/depute</div></td></tr><tr><td style="font-weight:bold;vertical-align:top;">query_string</td><td style="vertical-align:top;">:</td><td><div></div></td></tr><tr><td style="font-weight:bold;vertical-align:top;">remote_addr</td><td style="vertical-align:top;">:</td><td><div>83.203.225.71</div></td></tr><tr><td style="font-weight:bold;vertical-align:top;">remote_port</td><td style="vertical-align:top;">:</td><td><div>45191</div></td></tr><tr><td style="font-weight:bold;vertical-align:top;">request_method</td><td style="vertical-align:top;">:</td><td><div>GET</div></td></tr><tr><td style="font-weight:bold;vertical-align:top;">request_scheme</td><td style="vertical-align:top;">:</td><td><div>https</div></td></tr><tr><td style="font-weight:bold;vertical-align:top;">request_uri</td><td style="vertical-align:top;">:</td><td><div>/oadev/depute/index</div></td></tr><tr><td style="font-weight:bold;vertical-align:top;">script_filename</td><td style="vertical-align:top;">:</td><td><div>/home/www-data/web2py/wsgihandler.py</div></td></tr><tr><td style="font-weight:bold;vertical-align:top;">script_name</td><td style="vertical-align:top;">:</td><td><div></div></td></tr><tr><td style="font-weight:bold;vertical-align:top;">server_addr</td><td style="vertical-align:top;">:</td><td><div>151.80.57.169</div></td></tr><tr><td style="font-weight:bold;vertical-align:top;">server_admin</td><td style="vertical-align:top;">:</td><td><div>[no address given]</div></td></tr><tr><td style="font-weight:bold;vertical-align:top;">server_name</td><td style="vertical-align:top;">:</td><td><div>admin.obsas.orvdev.fr</div></td></tr><tr><td style="font-weight:bold;vertical-align:top;">server_port</td><td style="vertical-align:top;">:</td><td><div>443</div></td></tr><tr><td style="font-weight:bold;vertical-align:top;">server_protocol</td><td style="vertical-align:top;">:</td><td><div>HTTP/1.1</div></td></tr><tr><td style="font-weight:bold;vertical-align:top;">server_signature</td><td style="vertical-align:top;">:</td><td><div>&lt;address&gt;Apache/2.4.18 (Ubuntu) Server at admin.obsas.orvdev.fr Port 443&lt;/address&gt;\n</div></td></tr><tr><td style="font-weight:bold;vertical-align:top;">server_software</td><td style="vertical-align:top;">:</td><td><div>Apache/2.4.18 (Ubuntu)</div></td></tr><tr><td style="font-weight:bold;vertical-align:top;">ssl_tls_sni</td><td style="vertical-align:top;">:</td><td><div>admin.obsas.orvdev.fr</div></td></tr><tr><td style="font-weight:bold;vertical-align:top;">web2py_original_uri</td><td style="vertical-align:top;">:</td><td><div>/oadev/depute</div></td></tr><tr><td style="font-weight:bold;vertical-align:top;">web2py_path</td><td style="vertical-align:top;">:</td><td><div>/home/www-data/web2py</div></td></tr><tr><td style="font-weight:bold;vertical-align:top;">web2py_version</td><td style="vertical-align:top;">:</td><td><div>2.15.1-stable+timestamp.2017.07.10.21.25.06</div></td></tr><tr><td style="font-weight:bold;vertical-align:top;">wsgi.errors</td><td style="vertical-align:top;">:</td><td><div>&lt;mod_wsgi.Log object at 0x7f399ddf1618&gt;</div></td></tr><tr><td style="font-weight:bold;vertical-align:top;">wsgi.file_wrapper</td><td style="vertical-align:top;">:</td><td><div>&lt;type &#x27;mod_wsgi.FileWrapper&#x27;&gt;</div></td></tr><tr><td style="font-weight:bold;vertical-align:top;">wsgi.input</td><td style="vertical-align:top;">:</td><td><div>&lt;mod_wsgi.Input object at 0x7f39bc4784b0&gt;</div></td></tr><tr><td style="font-weight:bold;vertical-align:top;">wsgi.multiprocess</td><td style="vertical-align:top;">:</td><td><div>False</div></td></tr><tr><td style="font-weight:bold;vertical-align:top;">wsgi.multithread</td><td style="vertical-align:top;">:</td><td><div>True</div></td></tr><tr><td style="font-weight:bold;vertical-align:top;">wsgi.run_once</td><td style="vertical-align:top;">:</td><td><div>False</div></td></tr><tr><td style="font-weight:bold;vertical-align:top;">wsgi.url_scheme</td><td style="vertical-align:top;">:</td><td><div>https</div></td></tr><tr><td style="font-weight:bold;vertical-align:top;">wsgi.version</td><td style="vertical-align:top;">:</td><td><div><table><tr><td><div>1</div></td></tr><tr><td><div>0</div></td></tr></table></div></td></tr><tr><td style="font-weight:bold;vertical-align:top;">wsgi_errors</td><td style="vertical-align:top;">:</td><td><div>&lt;mod_wsgi.Log object at 0x7f399ddf1618&gt;</div></td></tr><tr><td style="font-weight:bold;vertical-align:top;">wsgi_file_wrapper</td><td style="vertical-align:top;">:</td><td><div>&lt;type &#x27;mod_wsgi.FileWrapper&#x27;&gt;</div></td></tr><tr><td style="font-weight:bold;vertical-align:top;">wsgi_input</td><td style="vertical-align:top;">:</td><td><div>&lt;mod_wsgi.Input object at 0x7f39bc4784b0&gt;</div></td></tr><tr><td style="font-weight:bold;vertical-align:top;">wsgi_multiprocess</td><td style="vertical-align:top;">:</td><td><div>False</div></td></tr><tr><td style="font-weight:bold;vertical-align:top;">wsgi_multithread</td><td style="vertical-align:top;">:</td><td><div>True</div></td></tr><tr><td style="font-weight:bold;vertical-align:top;">wsgi_run_once</td><td style="vertical-align:top;">:</td><td><div>False</div></td></tr><tr><td style="font-weight:bold;vertical-align:top;">wsgi_url_scheme</td><td style="vertical-align:top;">:</td><td><div>https</div></td></tr><tr><td style="font-weight:bold;vertical-align:top;">wsgi_version</td><td style="vertical-align:top;">:</td><td><div><table><tr><td><div>1</div></td></tr><tr><td><div>0</div></td></tr></table></div></td></tr></table></div></td></tr><tr><td style="font-weight:bold;vertical-align:top;">extension</td><td style="vertical-align:top;">:</td><td><div>html</div></td></tr><tr><td style="font-weight:bold;vertical-align:top;">folder</td><td style="vertical-align:top;">:</td><td><div>/home/www-data/web2py/applications/oadev/</div></td></tr><tr><td style="font-weight:bold;vertical-align:top;">function</td><td style="vertical-align:top;">:</td><td><div>index</div></td></tr><tr><td style="font-weight:bold;vertical-align:top;">global_settings</td><td style="vertical-align:top;">:</td><td><div><table><tr><td style="font-weight:bold;vertical-align:top;">app_folders</td><td style="vertical-align:top;">:</td><td><div>set([&#x27;/home/www-data/web2py/applications/observatoireassemblee/&#x27;, &#x27;/home/www-data/web2py/applications/obsas_dev/&#x27;, &#x27;/home/www-data/web2py/applications/admin/&#x27;, &#x27;/home/www-data/web2py/applications/oadev/&#x27;])</div></td></tr><tr><td style="font-weight:bold;vertical-align:top;">applications_parent</td><td style="vertical-align:top;">:</td><td><div>/home/www-data/web2py</div></td></tr><tr><td style="font-weight:bold;vertical-align:top;">db_sessions</td><td style="vertical-align:top;">:</td><td><div>set([])</div></td></tr><tr><td style="font-weight:bold;vertical-align:top;">debugging</td><td style="vertical-align:top;">:</td><td><div>True</div></td></tr><tr><td style="font-weight:bold;vertical-align:top;">gluon_parent</td><td style="vertical-align:top;">:</td><td><div>/home/www-data/web2py</div></td></tr><tr><td style="font-weight:bold;vertical-align:top;">is_jython</td><td style="vertical-align:top;">:</td><td><div>False</div></td></tr><tr><td style="font-weight:bold;vertical-align:top;">is_py2</td><td style="vertical-align:top;">:</td><td><div>True</div></td></tr><tr><td style="font-weight:bold;vertical-align:top;">is_pypy</td><td style="vertical-align:top;">:</td><td><div>False</div></td></tr><tr><td style="font-weight:bold;vertical-align:top;">is_source</td><td style="vertical-align:top;">:</td><td><div>True</div></td></tr><tr><td style="font-weight:bold;vertical-align:top;">local_hosts</td><td style="vertical-align:top;">:</td><td><div><table><tr><td><div>vps433020</div></td></tr><tr><td><div>::ffff:127.0.0.1</div></td></tr><tr><td><div>::1</div></td></tr><tr><td><div>151.80.57.169</div></td></tr><tr><td><div>vps433020.ovh.net</div></td></tr><tr><td><div>127.0.1.1</div></td></tr><tr><td><div>admin.obsas.orvdev.fr</div></td></tr><tr><td><div>127.0.0.1</div></td></tr></table></div></td></tr><tr><td style="font-weight:bold;vertical-align:top;">web2py_version</td><td style="vertical-align:top;">:</td><td><div>2.15.1-stable+timestamp.2017.07.10.21.25.06</div></td></tr></table></div></td></tr><tr><td style="font-weight:bold;vertical-align:top;">is_https</td><td style="vertical-align:top;">:</td><td><div>True</div></td></tr><tr><td style="font-weight:bold;vertical-align:top;">is_local</td><td style="vertical-align:top;">:</td><td><div>False</div></td></tr><tr><td style="font-weight:bold;vertical-align:top;">is_restful</td><td style="vertical-align:top;">:</td><td><div>False</div></td></tr><tr><td style="font-weight:bold;vertical-align:top;">is_scheduler</td><td style="vertical-align:top;">:</td><td><div>False</div></td></tr><tr><td style="font-weight:bold;vertical-align:top;">is_shell</td><td style="vertical-align:top;">:</td><td><div>False</div></td></tr><tr><td style="font-weight:bold;vertical-align:top;">now</td><td style="vertical-align:top;">:</td><td><div>datetime.datetime(2017, 9, 19, 22, 49, 24, 725255)</div></td></tr><tr><td style="font-weight:bold;vertical-align:top;">url</td><td style="vertical-align:top;">:</td><td><div>/oadev/depute</div></td></tr><tr><td style="font-weight:bold;vertical-align:top;">utcnow</td><td style="vertical-align:top;">:</td><td><div>datetime.datetime(2017, 9, 19, 20, 49, 24, 725275)</div></td></tr><tr><td style="font-weight:bold;vertical-align:top;">wsgi</td><td style="vertical-align:top;">:</td><td><div>&lt;gluon.main.LazyWSGI object at 0x7f39ccca5710&gt;</div></td></tr></table></div>'
tRp60
sS'frames'
p61
(lp62
(dp63
S'file'
p64
S'/home/www-data/web2py/gluon/restricted.py'
p65
sS'dump'
p66
(dp67
S'environment'
p68
S"{'A': <class 'gluon.html.A'>, 'ANY_OF': <class 'gluon.validators.ANY_OF'>, 'ASSIGNJS': <function ASSIGNJS>, 'AppCache': <class __restricted__.AppCache>, 'AppConfig': <function AppConfig>, 'Auth': <class 'gluon.tools.Auth'>, 'B': <class 'gluon.html.B'>, 'BEAUTIFY': <class 'gluon.html.BEAUTIFY'>, 'BODY': <class 'gluon.html.BODY'>, 'BR': <class 'gluon.html.BR'>, ...}"
p69
sS'ccode'
p70
S'\'response.write(\\\'<!DOCTYPE html>\\\\n<html lang="fr"...ponse.write(\\\'\\\\n</body>\\\\n</html>\\\\n\\\', escape=False)\''
p71
ssS'lnum'
p72
I219
sS'lines'
p73
(dp74
I214
S'    if environment is None:'
p75
sI215
S'        environment = {}'
p76
sI216
S"    environment['__file__'] = layer"
p77
sI217
S"    environment['__name__'] = '__restricted__'"
p78
sI218
S'    try:'
p79
sI219
S'        exec(ccode, environment)'
p80
sI220
S'    except HTTP:'
p81
sI221
S'        raise'
p82
sI222
S'    except RestrictedError:'
p83
sI223
S'        # do not encapsulate (obfuscate) the original RestrictedError'
p84
ssS'call'
p85
S'(ccode=\'response.write(\\\'<!DOCTYPE html>\\\\n<html lang="fr"...ponse.write(\\\'\\\\n</body>\\\\n</html>\\\\n\\\', escape=False)\', environment={\'A\': <class \'gluon.html.A\'>, \'ANY_OF\': <class \'gluon.validators.ANY_OF\'>, \'ASSIGNJS\': <function ASSIGNJS>, \'AppCache\': <class __restricted__.AppCache>, \'AppConfig\': <function AppConfig>, \'Auth\': <class \'gluon.tools.Auth\'>, \'B\': <class \'gluon.html.B\'>, \'BEAUTIFY\': <class \'gluon.html.BEAUTIFY\'>, \'BODY\': <class \'gluon.html.BODY\'>, \'BR\': <class \'gluon.html.BR\'>, ...}, layer=\'/home/www-data/web2py/applications/oadev/views/depute/index.html\')'
p86
sS'func'
p87
S'restricted'
p88
sa(dp89
g64
S'/home/www-data/web2py/<string>'
p90
sg66
(dp91
sg72
I152
sg73
(dp92
sg85
S'()'
p93
sg87
S'<module>'
p94
sasS'pyver'
p95
S'Python 2.7.12: /home/www-data/web2py/applications/obsas_dev/.pyenv/bin/python (prefix: /home/www-data/web2py/applications/obsas_dev/.pyenv)'
p96
sS'session'
p97
g59
(S's\x1a\x00\x00\x00<div><table></table></div>'
tRp98
sS'etype'
p99
S"<type 'exceptions.NameError'>"
p100
sS'date'
p101
S'Tue Sep 19 22:49:25 2017'
p102
sS'response'
p103
g59
(S's\x16>\x00\x00<div><table><tr><td style="font-weight:bold;vertical-align:top;">body</td><td style="vertical-align:top;">:</td><td><div>&lt;cStringIO.StringO object at 0x7f39a81afbc8&gt;</div></td></tr><tr><td style="font-weight:bold;vertical-align:top;">cookies</td><td style="vertical-align:top;">:</td><td><div><table><tr><td style="font-weight:bold;vertical-align:top;">session_id_oadev</td><td style="vertical-align:top;">:</td><td><div>83.203.225.71-46736610-5550-4095-b639-1cc81587426b<table><tr><td style="font-weight:bold;vertical-align:top;">comment</td><td style="vertical-align:top;">:</td><td><div></div></td></tr><tr><td style="font-weight:bold;vertical-align:top;">domain</td><td style="vertical-align:top;">:</td><td><div></div></td></tr><tr><td style="font-weight:bold;vertical-align:top;">expires</td><td style="vertical-align:top;">:</td><td><div></div></td></tr><tr><td style="font-weight:bold;vertical-align:top;">httponly</td><td style="vertical-align:top;">:</td><td><div></div></td></tr><tr><td style="font-weight:bold;vertical-align:top;">max-age</td><td style="vertical-align:top;">:</td><td><div></div></td></tr><tr><td style="font-weight:bold;vertical-align:top;">path</td><td style="vertical-align:top;">:</td><td><div>/</div></td></tr><tr><td style="font-weight:bold;vertical-align:top;">secure</td><td style="vertical-align:top;">:</td><td><div></div></td></tr><tr><td style="font-weight:bold;vertical-align:top;">version</td><td style="vertical-align:top;">:</td><td><div></div></td></tr></table></div></td></tr></table></div></td></tr><tr><td style="font-weight:bold;vertical-align:top;">delimiters</td><td style="vertical-align:top;">:</td><td><div><table><tr><td><div>{{</div></td></tr><tr><td><div>}}</div></td></tr></table></div></td></tr><tr><td style="font-weight:bold;vertical-align:top;">files</td><td style="vertical-align:top;">:</td><td><div><table></table></div></td></tr><tr><td style="font-weight:bold;vertical-align:top;">flash</td><td style="vertical-align:top;">:</td><td><div></div></td></tr><tr><td style="font-weight:bold;vertical-align:top;">form_label_separator</td><td style="vertical-align:top;">:</td><td><div></div></td></tr><tr><td style="font-weight:bold;vertical-align:top;">formstyle</td><td style="vertical-align:top;">:</td><td><div>bootstrap3_inline</div></td></tr><tr><td style="font-weight:bold;vertical-align:top;">generic_patterns</td><td style="vertical-align:top;">:</td><td><div><table><tr><td><div>*.json</div></td></tr></table></div></td></tr><tr><td style="font-weight:bold;vertical-align:top;">google_analytics_id</td><td style="vertical-align:top;">:</td><td><div>None</div></td></tr><tr><td style="font-weight:bold;vertical-align:top;">headers</td><td style="vertical-align:top;">:</td><td><div><table><tr><td style="font-weight:bold;vertical-align:top;">X-Powered-By</td><td style="vertical-align:top;">:</td><td><div>web2py</div></td></tr></table></div></td></tr><tr><td style="font-weight:bold;vertical-align:top;">logo</td><td style="vertical-align:top;">:</td><td><div><a class="navbar-brand" href="http://www.web2py.com/" id="web2py-logo"><b>web<span>2</span>py</b>&trade;&nbsp;</a></div></td></tr><tr><td style="font-weight:bold;vertical-align:top;">menu</td><td style="vertical-align:top;">:</td><td><div><table><tr><td><div><table><tr><td><div>Accueil</div></td></tr><tr><td><div>False</div></td></tr><tr><td><div>/oadev</div></td></tr><tr><td><div><table></table></div></td></tr></table></div></td></tr><tr><td><div><table><tr><td><div>Mes sites</div></td></tr><tr><td><div>False</div></td></tr><tr><td><div>/admin/site</div></td></tr></table></div></td></tr><tr><td><div><table><tr><td><div>Cette Appli</div></td></tr><tr><td><div>False</div></td></tr><tr><td><div>#</div></td></tr><tr><td><div><table><tr><td><div><table><tr><td><div>Design</div></td></tr><tr><td><div>False</div></td></tr><tr><td><div>/admin/design/oadev</div></td></tr></table></div></td></tr><tr><td><div><li class="divider"></li></div></td></tr><tr><td><div><table><tr><td><div>Contr\xc3\xb4leur</div></td></tr><tr><td><div>False</div></td></tr><tr><td><div>/admin/edit/oadev/controllers/depute.py</div></td></tr></table></div></td></tr><tr><td><div><table><tr><td><div>Pr\xc3\xa9sentation</div></td></tr><tr><td><div>False</div></td></tr><tr><td><div>/admin/edit/oadev/views/depute/index.html</div></td></tr></table></div></td></tr><tr><td><div><table><tr><td><div>Mod\xc3\xa8le BD</div></td></tr><tr><td><div>False</div></td></tr><tr><td><div>/admin/edit/oadev/models/db.py</div></td></tr></table></div></td></tr><tr><td><div><table><tr><td><div>Menu mod\xc3\xa8le</div></td></tr><tr><td><div>False</div></td></tr><tr><td><div>/admin/edit/oadev/models/menu.py</div></td></tr></table></div></td></tr><tr><td><div><table><tr><td><div>Config.ini</div></td></tr><tr><td><div>False</div></td></tr><tr><td><div>/admin/edit/oadev/private/appconfig.ini</div></td></tr></table></div></td></tr><tr><td><div><table><tr><td><div>Mise en page</div></td></tr><tr><td><div>False</div></td></tr><tr><td><div>/admin/edit/oadev/views/layout.html</div></td></tr></table></div></td></tr><tr><td><div><table><tr><td><div>Feuille de style</div></td></tr><tr><td><div>False</div></td></tr><tr><td><div>/admin/edit/oadev/static/css/web2py-bootstrap3.css</div></td></tr></table></div></td></tr><tr><td><div><table><tr><td><div>base de donn\xc3\xa9es</div></td></tr><tr><td><div>False</div></td></tr><tr><td><div>/oadev/appadmin</div></td></tr></table></div></td></tr><tr><td><div><table><tr><td><div>Erreurs</div></td></tr><tr><td><div>False</div></td></tr><tr><td><div>/admin/errors/oadev</div></td></tr></table></div></td></tr><tr><td><div><table><tr><td><div>\xc3\x80 propos</div></td></tr><tr><td><div>False</div></td></tr><tr><td><div>/admin/about/oadev</div></td></tr></table></div></td></tr></table></div></td></tr></table></div></td></tr><tr><td><div><table><tr><td><div>web2py.com</div></td></tr><tr><td><div>False</div></td></tr><tr><td><div>#</div></td></tr><tr><td><div><table><tr><td><div><table><tr><td><div>T\xc3\xa9l\xc3\xa9chargement</div></td></tr><tr><td><div>False</div></td></tr><tr><td><div>http://www.web2py.com/examples/default/download</div></td></tr></table></div></td></tr><tr><td><div><table><tr><td><div>Soutien</div></td></tr><tr><td><div>False</div></td></tr><tr><td><div>http://www.web2py.com/examples/default/support</div></td></tr></table></div></td></tr><tr><td><div><table><tr><td><div>D\xc3\xa9mo</div></td></tr><tr><td><div>False</div></td></tr><tr><td><div>http://web2py.com/demo_admin</div></td></tr></table></div></td></tr><tr><td><div><table><tr><td><div>Exemples Rapides</div></td></tr><tr><td><div>False</div></td></tr><tr><td><div>http://web2py.com/examples/default/examples</div></td></tr></table></div></td></tr><tr><td><div><table><tr><td><div>FAQ</div></td></tr><tr><td><div>False</div></td></tr><tr><td><div>http://web2py.com/AlterEgo</div></td></tr></table></div></td></tr><tr><td><div><table><tr><td><div>Vid\xc3\xa9os</div></td></tr><tr><td><div>False</div></td></tr><tr><td><div>http://www.web2py.com/examples/default/videos/</div></td></tr></table></div></td></tr><tr><td><div><table><tr><td><div>Applications gratuites</div></td></tr><tr><td><div>False</div></td></tr><tr><td><div>http://web2py.com/appliances</div></td></tr></table></div></td></tr><tr><td><div><table><tr><td><div>Plugiciels</div></td></tr><tr><td><div>False</div></td></tr><tr><td><div>http://web2py.com/plugins</div></td></tr></table></div></td></tr><tr><td><div><table><tr><td><div>Recettes</div></td></tr><tr><td><div>False</div></td></tr><tr><td><div>http://web2pyslices.com/</div></td></tr></table></div></td></tr></table></div></td></tr></table></div></td></tr><tr><td><div><table><tr><td><div>Documentation</div></td></tr><tr><td><div>False</div></td></tr><tr><td><div>#</div></td></tr><tr><td><div><table><tr><td><div><table><tr><td><div>Online book</div></td></tr><tr><td><div>False</div></td></tr><tr><td><div>http://www.web2py.com/book</div></td></tr></table></div></td></tr><tr><td><div><li class="divider"></li></div></td></tr><tr><td><div><table><tr><td><div>Pr\xc3\xa9face</div></td></tr><tr><td><div>False</div></td></tr><tr><td><div>http://www.web2py.com/book/default/chapter/00</div></td></tr></table></div></td></tr><tr><td><div><table><tr><td><div>Pr\xc3\xa9sentation</div></td></tr><tr><td><div>False</div></td></tr><tr><td><div>http://www.web2py.com/book/default/chapter/01</div></td></tr></table></div></td></tr><tr><td><div><table><tr><td><div>Python</div></td></tr><tr><td><div>False</div></td></tr><tr><td><div>http://www.web2py.com/book/default/chapter/02</div></td></tr></table></div></td></tr><tr><td><div><table><tr><td><div>Pr\xc3\xa9sentation</div></td></tr><tr><td><div>False</div></td></tr><tr><td><div>http://www.web2py.com/book/default/chapter/03</div></td></tr></table></div></td></tr><tr><td><div><table><tr><td><div>Le noyau</div></td></tr><tr><td><div>False</div></td></tr><tr><td><div>http://www.web2py.com/book/default/chapter/04</div></td></tr></table></div></td></tr><tr><td><div><table><tr><td><div>Les Vues</div></td></tr><tr><td><div>False</div></td></tr><tr><td><div>http://www.web2py.com/book/default/chapter/05</div></td></tr></table></div></td></tr><tr><td><div><table><tr><td><div>base de donn\xc3\xa9es</div></td></tr><tr><td><div>False</div></td></tr><tr><td><div>http://www.web2py.com/book/default/chapter/06</div></td></tr></table></div></td></tr><tr><td><div><table><tr><td><div>Formulaires et Validateurs</div></td></tr><tr><td><div>False</div></td></tr><tr><td><div>http://www.web2py.com/book/default/chapter/07</div></td></tr></table></div></td></tr><tr><td><div><table><tr><td><div>Courriel et texto</div></td></tr><tr><td><div>False</div></td></tr><tr><td><div>http://www.web2py.com/book/default/chapter/08</div></td></tr></table></div></td></tr><tr><td><div><table><tr><td><div>Contr\xc3\xb4le d\'acc\xc3\xa8s</div></td></tr><tr><td><div>False</div></td></tr><tr><td><div>http://www.web2py.com/book/default/chapter/09</div></td></tr></table></div></td></tr><tr><td><div><table><tr><td><div>Services</div></td></tr><tr><td><div>False</div></td></tr><tr><td><div>http://www.web2py.com/book/default/chapter/10</div></td></tr></table></div></td></tr><tr><td><div><table><tr><td><div>Recettes Ajax</div></td></tr><tr><td><div>False</div></td></tr><tr><td><div>http://www.web2py.com/book/default/chapter/11</div></td></tr></table></div></td></tr><tr><td><div><table><tr><td><div>Composants et Plugiciels</div></td></tr><tr><td><div>False</div></td></tr><tr><td><div>http://www.web2py.com/book/default/chapter/12</div></td></tr></table></div></td></tr><tr><td><div><table><tr><td><div>Recettes de d\xc3\xa9ploiement</div></td></tr><tr><td><div>False</div></td></tr><tr><td><div>http://www.web2py.com/book/default/chapter/13</div></td></tr></table></div></td></tr><tr><td><div><table><tr><td><div>Autres recettes</div></td></tr><tr><td><div>False</div></td></tr><tr><td><div>http://www.web2py.com/book/default/chapter/14</div></td></tr></table></div></td></tr><tr><td><div><table><tr><td><div>Aider web2py</div></td></tr><tr><td><div>False</div></td></tr><tr><td><div>http://www.web2py.com/book/default/chapter/15</div></td></tr></table></div></td></tr><tr><td><div><table><tr><td><div>Buy web2py\'s book</div></td></tr><tr><td><div>False</div></td></tr><tr><td><div>http://stores.lulu.com/web2py</div></td></tr></table></div></td></tr></table></div></td></tr></table></div></td></tr><tr><td><div><table><tr><td><div>Communaut\xc3\xa9</div></td></tr><tr><td><div>False</div></td></tr><tr><td><div>None</div></td></tr><tr><td><div><table><tr><td><div><table><tr><td><div>Groupes</div></td></tr><tr><td><div>False</div></td></tr><tr><td><div>http://www.web2py.com/examples/default/usergroups</div></td></tr></table></div></td></tr><tr><td><div><table><tr><td><div>Twitter</div></td></tr><tr><td><div>False</div></td></tr><tr><td><div>http://twitter.com/web2py</div></td></tr></table></div></td></tr><tr><td><div><table><tr><td><div>Clavardage en direct</div></td></tr><tr><td><div>False</div></td></tr><tr><td><div>http://webchat.freenode.net/?channels=web2py</div></td></tr></table></div></td></tr></table></div></td></tr></table></div></td></tr></table></div></td></tr><tr><td style="font-weight:bold;vertical-align:top;">meta</td><td style="vertical-align:top;">:</td><td><div><table><tr><td style="font-weight:bold;vertical-align:top;">author</td><td style="vertical-align:top;">:</td><td><div>Your Name &lt;you@example.com&gt;</div></td></tr><tr><td style="font-weight:bold;vertical-align:top;">description</td><td style="vertical-align:top;">:</td><td><div>a cool new app</div></td></tr><tr><td style="font-weight:bold;vertical-align:top;">generator</td><td style="vertical-align:top;">:</td><td><div>Web2py Web Framework</div></td></tr><tr><td style="font-weight:bold;vertical-align:top;">keywords</td><td style="vertical-align:top;">:</td><td><div><table><tr><td><div>web2py</div></td></tr><tr><td><div>python</div></td></tr><tr><td><div>framework</div></td></tr></table></div></td></tr></table></div></td></tr><tr><td style="font-weight:bold;vertical-align:top;">models_to_run</td><td style="vertical-align:top;">:</td><td><div><table><tr><td><div>^\\w+\\.py$</div></td></tr><tr><td><div>^depute/\\w+\\.py$</div></td></tr><tr><td><div>^depute/index/\\w+\\.py$</div></td></tr></table></div></td></tr><tr><td style="font-weight:bold;vertical-align:top;">postprocessing</td><td style="vertical-align:top;">:</td><td><div><table></table></div></td></tr><tr><td style="font-weight:bold;vertical-align:top;">session_client</td><td style="vertical-align:top;">:</td><td><div>83.203.225.71</div></td></tr><tr><td style="font-weight:bold;vertical-align:top;">session_cookie_compression_level</td><td style="vertical-align:top;">:</td><td><div>None</div></td></tr><tr><td style="font-weight:bold;vertical-align:top;">session_cookie_expires</td><td style="vertical-align:top;">:</td><td><div>None</div></td></tr><tr><td style="font-weight:bold;vertical-align:top;">session_data_name</td><td style="vertical-align:top;">:</td><td><div>session_data_oadev</div></td></tr><tr><td style="font-weight:bold;vertical-align:top;">session_file</td><td style="vertical-align:top;">:</td><td><div>None</div></td></tr><tr><td style="font-weight:bold;vertical-align:top;">session_filename</td><td style="vertical-align:top;">:</td><td><div>/home/www-data/web2py/applications/oadev/sessions/83.203.225.71-46736610-5550-4095-b639-1cc81587426b</div></td></tr><tr><td style="font-weight:bold;vertical-align:top;">session_hash</td><td style="vertical-align:top;">:</td><td><div>c0762cbf4baf7f9af97c051e7fcb8083</div></td></tr><tr><td style="font-weight:bold;vertical-align:top;">session_id</td><td style="vertical-align:top;">:</td><td><div>83.203.225.71-46736610-5550-4095-b639-1cc81587426b</div></td></tr><tr><td style="font-weight:bold;vertical-align:top;">session_id_name</td><td style="vertical-align:top;">:</td><td><div>session_id_oadev</div></td></tr><tr><td style="font-weight:bold;vertical-align:top;">session_masterapp</td><td style="vertical-align:top;">:</td><td><div>oadev</div></td></tr><tr><td style="font-weight:bold;vertical-align:top;">session_new</td><td style="vertical-align:top;">:</td><td><div>True</div></td></tr><tr><td style="font-weight:bold;vertical-align:top;">session_storage_type</td><td style="vertical-align:top;">:</td><td><div>file</div></td></tr><tr><td style="font-weight:bold;vertical-align:top;">status</td><td style="vertical-align:top;">:</td><td><div>200</div></td></tr><tr><td style="font-weight:bold;vertical-align:top;">subtitle</td><td style="vertical-align:top;">:</td><td><div></div></td></tr><tr><td style="font-weight:bold;vertical-align:top;">title</td><td style="vertical-align:top;">:</td><td><div>Oadev</div></td></tr><tr><td style="font-weight:bold;vertical-align:top;">view</td><td style="vertical-align:top;">:</td><td><div>depute/index.html</div></td></tr></table></div>'
tRp104
sS'locals'
p105
(dp106
S'Service'
p107
S"<class 'gluon.tools.Service'>"
p108
sS'PY2'
p109
S'True'
p110
sS'OBJECT'
p111
S"<class 'gluon.html.OBJECT'>"
p112
sS'SQLDB'
p113
S"<class 'pydal.base.DAL'>"
p114
sS'colors'
p115
S"{'FI': 'rgba(12,195,214,1)', 'GDR': 'rgba(192,0,0,1)', 'LC': 'rgba(112,48,160,1)', 'LR': 'rgba(47,85,151,1)', 'MODEM': 'rgba(237,125,49,1)', 'NG': 'rgba(234,52,208,1)', 'NI': 'rgba(191,191,191,1)', 'REM': 'rgba(255,192,0,1)'}"
p116
sg97
S'<Storage {}>'
p117
sS'LINK'
p118
S"<class 'gluon.html.LINK'>"
p119
sS'BR'
p120
S"<class 'gluon.html.BR'>"
p121
sS'local_import'
p122
S'<function <lambda>>'
p123
sVdepute_suppleant
p124
S"u'Mme Agn\\xe8s Pinson'"
p125
sVdepute_dateelec
p126
S"u'18/06/2017'"
p127
sS'__package__'
p128
S'None'
p129
sS'PRE'
p130
S"<class 'gluon.html.PRE'>"
p131
sS'IS_INT_IN_RANGE'
p132
S"<class 'gluon.validators.IS_INT_IN_RANGE'>"
p133
sS'to_bytes'
p134
S'<function to_bytes>'
p135
sS'IS_LOWER'
p136
S"<class 'gluon.validators.IS_LOWER'>"
p137
sS'IS_STRONG'
p138
S"<class 'gluon.validators.IS_STRONG'>"
p139
sS'cache'
p140
S'<gluon.cache.Cache object>'
p141
sS'vide'
p142
S'<function vide>'
p143
sS'IS_IN_DB'
p144
S"<class 'gluon.validators.IS_IN_DB'>"
p145
sS'TAG'
p146
S'<gluon.html.__TAG__ object>'
p147
sVdeputes_nuages
p148
g19
sS'CRYPT'
p149
S"<class 'gluon.validators.CRYPT'>"
p150
sS'SQLField'
p151
S"<class 'pydal.objects.Field'>"
p152
sS'mail'
p153
S'<gluon.tools.Mail object>'
p154
sS'_c'
p155
S"{u'_id': ObjectId('59b9502b6d8669a20455624d'), u'carte': u'france', u'd': u'm 707.18934,58.873282 -0.84526,0.12927 -0.6301...305,-0.014 -0.94567,-0.44506 -0.54474,-2.10337 z', u'dep': u'059', u'desc': u'Cantons de : Lannoy (moins les communes de Ans...y-lez-Lannoy, Tressin et Willems), Roubaix Ouest', u'h': u'8.749279022216797', u'id': u'059-07', u'paris': False, u'title': u'Septi\\xe8me circonscription du Nord', u'ville': True, ...}"
p156
sS'BODY'
p157
S"<class 'gluon.html.BODY'>"
p158
sS'IS_DATE_IN_RANGE'
p159
S"<class 'gluon.validators.IS_DATE_IN_RANGE'>"
p160
sVdepute_circo
p161
S"u'1'"
p162
sS'IFRAME'
p163
S"<class 'gluon.html.IFRAME'>"
p164
sS'URL'
p165
S'<function URL>'
p166
sS'__file__'
p167
S"'/home/www-data/web2py/applications/oadev/views/svg/gauge.svg'"
p168
sS'db'
p169
S'<DAL uri="sqlite://storage.sqlite">'
p170
sS'hashlib'
p171
S"<module 'hashlib' from '/usr/lib/python2.7/hashlib.pyc'>"
p172
sS'auth'
p173
S'<gluon.tools.Auth object>'
p174
sS'nuages_excl'
p175
S"('ministre', 'monsieur', u'coll\\xe8gue', 'madame', 'premier', 'cher', 'effet', 'commission', 'parlementaire', u'd\\xe9put\\xe9', 'deux', 'amendement', 'sujet', 'texte', 'an', 'fois', 'lieu', 'trois', 'mois', 'rapporteur', ...)"
p176
sVdepute_departement_id
p177
S"u'059'"
p178
sS'P'
S"<class 'gluon.html.P'>"
p179
sS'TFOOT'
p180
S"<class 'gluon.html.TFOOT'>"
p181
sS'iteritems'
p182
S'<function <lambda>>'
p183
sVdepute_contacts
p184
S"[{u'lien': u'mailto:adrien.quatennens@assemblee-nationale.fr', u'type': u'mail'}, {u'lien': u'https://fr-fr.facebook.com/AQuatennens/', u'type': u'facebook'}, {u'lien': u'https://twitter.com/@AQuatennens/', u'type': u'twitter'}]"
p185
sS'XHTML'
p186
S"<class 'gluon.html.XHTML'>"
p187
sS'datetime'
p188
S"<module 'datetime' (built-in)>"
p189
sS'ON'
p190
g110
sS'THEAD'
p191
S"<class 'gluon.html.THEAD'>"
p192
sS'OL'
p193
S"<class 'gluon.html.OL'>"
p194
sVgroupe_qualite
p195
S"u'membre'"
p196
sS'TEXTAREA'
p197
S"<class 'gluon.html.TEXTAREA'>"
p198
sS'MENU'
p199
S"<class 'gluon.html.MENU'>"
p200
sS'AppCache'
p201
S'<class __restricted__.AppCache>'
p202
sS'IS_IPADDRESS'
p203
S"<class 'gluon.validators.IS_IPADDRESS'>"
p204
sS'IS_IMAGE'
p205
S"<class 'gluon.validators.IS_IMAGE'>"
p206
sS'EM'
p207
S"<class 'gluon.html.EM'>"
p208
sS'CODE'
p209
S"<class 'gluon.html.CODE'>"
p210
sS'HTTP'
p211
S"<class 'gluon.http.HTTP'>"
p212
sS'locale'
p213
S"<module 'locale' from '/home/www-data/web2py/app...tions/obsas_dev/.pyenv/lib/python2.7/locale.pyc'>"
p214
sS'IS_DATETIME'
p215
S"<class 'gluon.validators.IS_DATETIME'>"
p216
sS'reduce'
p217
S'<built-in function reduce>'
p218
sS'STYLE'
p219
S"<class 'gluon.html.STYLE'>"
p220
sS'tinyurl'
p221
S'<__restricted__.TinyURL instance>'
p222
sS'LABEL'
p223
S"<class 'gluon.html.LABEL'>"
p224
sS'OPTGROUP'
p225
S"<class 'gluon.html.OPTGROUP'>"
p226
sS'CLEANUP'
p227
S"<class 'gluon.validators.CLEANUP'>"
p228
sS'departements_ids'
p229
S"{u'Ain': '001', u'Aisne': '002', u'Allier': '003', u'Alpes-Maritimes': '006', u'Alpes-de-Haute-Provence': '004', u'Ardennes': '008', u'Ard\\xe8che': '007', u'Ari\\xe8ge': '009', u'Aube': '010', u'Aude': '011', ...}"
p230
sS'svgcirco'
p231
S'<function svgcirco>'
p232
sS'plugins'
p233
S'<gluon.tools.PluginManager object>'
p234
sS'SELECT'
p235
S"<class 'gluon.html.SELECT'>"
p236
sVstats
p237
S"{u'compat': {u'FI': 100.0, u'GDR': 89.552, u'LC': 25.373, u'LR': 23.881, u'MODEM': 4.478, u'NG': 68.657, u'NI': 47.761, u'REM': 1.493}, u'compat_sort': [{u'g': u'FI', u'p': 100.0}, {u'g': u'GDR', u'p': 89.552}, {u'g': u'NG', u'p': 68.657}, {u'g': u'NI', u'p': 47.761}, {u'g': u'LC', u'p': 25.373}, {u'g': u'LR', u'p': 23.881}, {u'g': u'MODEM', u'p': 4.478}, {u'g': u'REM', u'p': 1.493}], u'nbitvs': 151, u'nbmots': 14072, u'positions': {u'absent': 43.697, u'abstention': 6.723, u'contre': 5.042, u'dissidence': 0.0, u'exprimes': 56.303, u'pour': 44.538}, u'ranks': {u'absent': 479, u'abstention': 35, u'compatFI': 13, u'compatGDR': 22, u'compatLC': 552, u'compatLR': 554, u'compatMODEM': 558, u'compatNG': 68, u'compatNI': 134, u'compatREM': 559, ...}}"
p238
sS'CENTER'
p239
S"<class 'gluon.html.CENTER'>"
p240
sS'axes'
p241
S'{\'ages\': {\'elements\': \'G\', \'libelle\': "Classes d\'age", \'source\': {\'filtre\': {}, \'key\': \'classeage\', \'label\': \'classeage\', \'nom\': \'acteurs\'}, \'titre\': "Votes par classe d\'age", \'tri_defaut\': (\'alpha\', False), \'votes\': {\'field\': \'classeage\'}}, \'assemblee\': {\'elements\': \'G\', \'hidechart\': False, \'libelle\': \'Assembl\\xc3\\xa9e\', \'source\': {\'filtre\': {\'actif\': True, \'codeType\': \'ASSEMBLEE\'}, \'key\': \'libelleAbrev\', \'label\': \'libelle\', \'nom\': \'organes\'}, \'titre\': "Votes de l\'Assembl\\xc3\\xa9e", \'tri_defaut\': (\'alpha\', False), \'votes\': {\'field\': \'organes\'}}, \'commissions\': {\'elements\': \'G\', \'libelle\': \'Commissions\', \'source\': {\'filtre\': {\'$and\': [{\'$or\': [...]}, {\'actif\': True}]}, \'key\': \'uid\', \'label\': \'libelle\', \'nom\': \'organes\'}, \'titre\': \'Votes par Commissions\', \'tri_defaut\': (\'alpha\', False), \'votes\': {\'field\': \'commissions\'}}, \'csp\': {\'elements\': \'G\', \'libelle\': \'Cat\\xc3\\xa9gorie Socio-professionnelle\', \'source\': {\'filtre\': {}, \'key\': \'csp\', \'label\': \'csp\', \'nom\': \'acteurs\'}, \'titre\': \'Votes par Cat\\xc3\\xa9gorie Socio-professionnelle\', \'tri_defaut\': (\'alpha\', False), \'votes\': {\'field\': \'csp\'}}, \'departements\': {\'elements\': \'G\', \'libelle\': \'D\\xc3\\xa9partements\', \'source\': {\'filtre\': {}, \'key\': \'departement\', \'label\': \'departement\', \'nom\': \'acteurs\'}, \'titre\': \'Votes par D\\xc3\\xa9partements\', \'tri_defaut\': (\'alpha\', False), \'votes\': {\'field\': \'departement\'}}, \'depute\': {\'elements\': \'P\', \'libelle\': \'D\\xc3\\xa9put\\xc3\\xa9s\', \'source\': {\'filtre\': {}, \'key\': \'uid\', \'label\': \'prenomnom\', \'nom\': \'acteurs\'}, \'titre\': \'Votes par d\\xc3\\xa9put\\xc3\\xa9\', \'tri_defaut\': (\'alphanom\', False), \'votes\': {\'field\': \'uid\'}}, \'dossierleg\': {\'elements\': \'G\', \'libelle\': \'Dossier l\\xc3\\xa9gislatif\', \'source\': {\'filtre\': {}, \'key\': \'scrutin_dossier\', \'label\': \'scrutin_dossierLibelle\', \'nom\': \'scrutins\'}, \'titre\': \'Votes par dossier l\\xc3\\xa9gislatif\', \'tri_defaut\': (\'alpha\', False), \'votes\': {\'field\': \'scrutin_dossier\'}}, \'groupes\': {\'elements\': \'G\', \'hidechart\': False, \'libelle\': \'Groupes\', \'source\': {\'filtre\': {\'actif\': True, \'codeType\': \'GP\'}, \'key\': \'uid\', \'label\': \'libelle\', \'nom\': \'organes\'}, \'titre\': \'Votes par Groupe parlementaire\', \'tri_defaut\': (\'alpha\', False), \'votes\': {\'field\': \'groupe\'}}, \'regions\': {\'elements\': \'G\', \'libelle\': \'R\\xc3\\xa9gions\', \'source\': {\'filtre\': {}, \'key\': \'region\', \'label\': \'region\', \'nom\': \'acteurs\'}, \'titre\': \'Votes par R\\xc3\\xa9gions\', \'tri_defaut\': (\'alpha\', False), \'votes\': {\'field\': \'region\'}}, \'scrutin\': {\'elements\': \'G\', \'libelle\': \'Scrutins\', \'source\': {\'filtre\': {}, \'key\': \'scrutin_id\', \'label\': \'scrutin_fulldesc\', \'nom\': \'scrutins\'}, \'titre\': \'Votes par scrutin\', \'tri_defaut\': (\'datescrutin\', True), \'tris\': [\'datescrutin\'], \'votes\': {\'field\': \'scrutin_id\'}}, ...}'
p242
sS'Auth'
p243
S"<class 'gluon.tools.Auth'>"
p244
sS'DEVELOPMENT_MENU'
p245
g110
sS'__builtins__'
p246
S"{'ArithmeticError': <type 'exceptions.ArithmeticError'>, 'AssertionError': <type 'exceptions.AssertionError'>, 'AttributeError': <type 'exceptions.AttributeError'>, 'BaseException': <type 'exceptions.BaseException'>, 'BufferError': <type 'exceptions.BufferError'>, 'BytesWarning': <type 'exceptions.BytesWarning'>, 'DeprecationWarning': <type 'exceptions.DeprecationWarning'>, 'EOFError': <type 'exceptions.EOFError'>, 'Ellipsis': Ellipsis, 'EnvironmentError': <type 'exceptions.EnvironmentError'>, ...}"
p247
sS'HTML'
p248
S"<class 'gluon.html.HTML'>"
p249
sS'filtresitm_order'
p250
S"['participation', 'ficompat', 'emcompat']"
p251
sS'SQLFORM'
p252
S"<class 'gluon.sqlhtml.SQLFORM'>"
p253
sVdepute_id
p254
S"u'm.adrienquatennens'"
p255
sS'LOAD'
p256
S'<function LOAD>'
p257
sS'redirect'
p258
S'<function redirect>'
p259
sS'FIELDSET'
p260
S"<class 'gluon.html.FIELDSET'>"
p261
sS'embed64'
p262
S'<function embed64>'
p263
sS'IS_EQUAL_TO'
p264
S"<class 'gluon.validators.IS_EQUAL_TO'>"
p265
sS'sortfcts_order'
p266
S"['participation', 'pctpour', 'pctcontre', 'pctabs', 'alpha', 'ficompat', 'emcompat']"
p267
sVdepute_age
p268
S'27'
p269
sS'filtresitm'
p270
S"{'emcompat': {'fct': <function <lambda>>, 'libelle': 'Taux de EM-compatibilit\\xc3\\xa9', 'max': 100, 'min': 0}, 'ficompat': {'fct': <function <lambda>>, 'libelle': 'Taux de FI-compatibilit\\xc3\\xa9', 'max': 100, 'min': 0}, 'participation': {'fct': <function <lambda>>, 'libelle': 'Taux de participation', 'max': 100, 'min': 0}}"
p271
sS'TinyURL'
p272
S'<class __restricted__.TinyURL>'
p273
sVdepute_compat
p274
S"{u'FI': 67, u'GDR': 60, u'LC': 17, u'LR': 16, u'MODEM': 3, u'NG': 46, u'NI': 32, u'REM': 1}"
p275
sS'IS_LIST_OF'
p276
S"<class 'gluon.validators.IS_LIST_OF'>"
p277
sS'__name__'
p278
S"'__restricted__'"
p279
sS'EMBED'
p280
S"<class 'gluon.html.EMBED'>"
p281
sS'_'
S'<function _>'
p282
sVdepute_circo_id
p283
S"u'059-01'"
p284
sS'c'
S"{u'_id': ObjectId('59b9502b6d8669a20455624d'), u'carte': u'france', u'd': u'm 707.18934,58.873282 -0.84526,0.12927 -0.6301...305,-0.014 -0.94567,-0.44506 -0.54474,-2.10337 z', u'dep': u'059', u'desc': u'Cantons de : Lannoy (moins les communes de Ans...y-lez-Lannoy, Tressin et Willems), Roubaix Ouest', u'h': u'8.749279022216797', u'id': u'059-07', u'paris': False, u'title': u'Septi\\xe8me circonscription du Nord', u'ville': True, ...}"
p285
sVdepute_uid
p286
S"u'PA720422'"
p287
sS'myconf'
p288
S"{'forms': {'formstyle': 'bootstrap3_inline', 'se...': {'names': 'localhost:*, 127.0.0.1:*, *:*, *'}}"
p289
sS'IS_NOT_IN_DB'
p290
S"<class 'gluon.validators.IS_NOT_IN_DB'>"
p291
sS'H2'
p292
S"<class 'gluon.html.H2'>"
p293
sS'H3'
p294
S"<class 'gluon.html.H3'>"
p295
sS'AppConfig'
p296
S'<function AppConfig>'
p297
sS'H1'
p298
S"<class 'gluon.html.H1'>"
p299
sS'H6'
p300
S"<class 'gluon.html.H6'>"
p301
sVdepute_typeregion
p302
S"u'M\\xe9tropolitain'"
p303
sS'H4'
p304
S"<class 'gluon.html.H4'>"
p305
sS'H5'
p306
S"<class 'gluon.html.H5'>"
p307
sS'UL'
p308
S"<class 'gluon.html.UL'>"
p309
sS'IS_UPPER'
p310
S"<class 'gluon.validators.IS_UPPER'>"
p311
sVdepute_autresmandats
p312
S'[]'
p313
sS'xmlescape'
p314
S'<function xmlescape>'
p315
sS'IS_TIME'
p316
S"<class 'gluon.validators.IS_TIME'>"
p317
sS'svggauge'
p318
S'<function svggauge>'
p319
sS'co'
p320
S"u'M. Thomas Duthoit'"
p321
sS'OPTION'
p322
S"<class 'gluon.html.OPTION'>"
p323
sS'TITLE'
p324
S"<class 'gluon.html.TITLE'>"
p325
sS'color'
p326
S"'#82cde2'"
p327
sS'short_url'
p328
S"<module 'short_url' from '/home/www-data/web2py/.../python2.7/site-packages/short_url/__init__.pyc'>"
p329
sS'IS_EMPTY_OR'
p330
S"<class 'gluon.validators.IS_EMPTY_OR'>"
p331
sS'MARKMIN'
p332
S"<class 'gluon.html.MARKMIN'>"
p333
sVdepute_ddn
p334
S"u'23/05/1990'"
p335
sS'pct'
p336
S'1'
sS'INPUT'
p337
S"<class 'gluon.html.INPUT'>"
p338
sS'STRONG'
p339
S"<class 'gluon.html.STRONG'>"
p340
sS'COL'
p341
S"<class 'gluon.html.COL'>"
p342
sS'unit'
p343
S"'%'"
p344
sVdepute_votes
p345
S"{u'absent': 52, u'abstention': 8, u'compat': {u'FI': 72, u'GDR': 68, u'LC': 50, u'LR': 51, u'MODEM': 41, u'NG': 52, u'NI': 55, u'REM': 42, u'assemblee': 51}, u'contre': 6, u'exprimes': 67, u'pour': 53, u'total': 119, u'votants': 0}"
p346
sS'service'
p347
S'<gluon.tools.Service object>'
p348
sS'SCRIPT'
p349
S"<class 'gluon.html.SCRIPT'>"
p350
sVdepute_deputywatch
p351
S'None'
p352
sS'HR'
p353
S"<class 'gluon.html.HR'>"
p354
sVdepute_mandat_debut
p355
S"u'21/06/2017'"
p356
sVdepute_actif
p357
g110
sS'mdb'
p358
S"Database(MongoClient(host=['localhost:27017'], d...s=dict, tz_aware=False, connect=True), u'obsass')"
p359
sVgroupe_abrev
p360
S"u'FI'"
p361
sVdepute_hatvp
p362
S"[{u'civilite': u'M.', u'classement': u'QUATENNENS Adrien12889', u'date_depot': u'', u'date_publication': u'', u'departement': u'59', u'docurl': u'http://www.hatvp.fr/livraison/dossiers/', u'id_origine': u'720422', u'nom': u'QUATENNENS', u'nom_fichier': u'', u'open_data': u'', ...}]"
p363
sVdepute_classeage
p364
S"u'20-30 ans'"
p365
sS'TABLE'
p366
S"<class 'gluon.html.TABLE'>"
p367
sVdepute_naissance
p368
S"u'N\\xe9\\n\\t\\t\\t le 23 mai 1990 \\xe0 Lille\\xa0(Nord)'"
p369
sS'IS_IPV4'
p370
S"<class 'gluon.validators.IS_IPV4'>"
p371
sS'IS_LENGTH'
p372
S"<class 'gluon.validators.IS_LENGTH'>"
p373
sS'IS_IPV6'
p374
S"<class 'gluon.validators.IS_IPV6'>"
p375
sS'XML'
p376
S"<class 'gluon.html.XML'>"
p377
sVdepute_collaborateurs
p378
S"[u'M. Samy Olivier', u'M. Thomas Duthoit']"
p379
sS'B'
S"<class 'gluon.html.B'>"
p380
sS'IMG'
p381
S"<class 'gluon.html.IMG'>"
p382
sS'SQLTABLE'
p383
S"<class 'gluon.sqlhtml.SQLTABLE'>"
p384
sVdepute_region
p385
S"u'Hauts-de-France'"
p386
sS'IS_MATCH'
p387
S"<class 'gluon.validators.IS_MATCH'>"
p388
sVdepute_bureau
p389
S'None'
p390
sS'dates'
p391
S"[{'date': '2017-07-04', 'pct': 1.0}, {'date': '2017-07-06', 'pct': 1.0}, {'date': '2017-07-10', 'pct': 1.0}, {'date': '2017-07-11', 'pct': 1.0}, {'date': '2017-07-12', 'pct': 0.0}, {'date': '2017-07-13', 'pct': 0.4}, {'date': '2017-07-18', 'pct': 1.0}, {'date': '2017-07-19', 'pct': 1.0}, {'date': '2017-07-24', 'pct': 1.0}, {'date': '2017-07-25', 'pct': 0.0}, {'date': '2017-07-26', 'pct': 0.0}, {'date': '2017-07-27', 'pct': 0.8}, {'date': '2017-07-28', 'pct': 0.5}, {'date': '2017-08-01', 'pct': 1.0}, {'date': '2017-08-03', 'pct': 0.9}, {'date': '2017-08-09', 'pct': 0.5}]"
p392
sVdepute_mandats
p393
S"{u'commissions': [{u'id': u'PO420120', u'lien': u'http://www2.assemblee-nationale.fr/instances/fiche/OMC_PO420120', u'nom': u'Commission des affaires sociales', u'qualite': u'Membre'}], u'delegations_bureau': [], u'delegations_office': []}"
p394
sVdeputes_mots
p395
S'None'
p396
sVdepute_sexe
p397
S"u'Femme'"
p398
sVdepute_mots
p399
S"{u'noms': {u'aberrant': 2, u'abord': 10, u'abstention': 4, u'absurde': 2, u'abusif': 8, u'accident': 6, u'accord': 16, u'acc\\xe8s': 4, u'achev\\xe9': 2, u'acquis': 4, ...}, u'verbes': {u'aboutir': 4, u'abstenir': 2, u'accepter': 6, u'accorder': 2, u'accro\\xeetre': 2, u'accueillir': 2, u'accuser': 4, u'achever': 2, u'admettre': 2, u'adresser': 2, ...}}"
p400
sS'CAT'
p401
S"<class 'gluon.html.CAT'>"
p402
sS'getVoteData_fct'
p403
S'<function getVoteData_fct>'
p404
sS'axes_order'
p405
S"['assemblee', 'groupes', 'commissions', 'typeregion', 'regions', 'departements', 'ages', 'csp', 'sexe', 'depute', 'scrutin', 'typescrutin', 'dossierleg']"
p406
sVdepute_nom_tri
p407
S"u'QUATENNENS'"
p408
sS'SPAN'
p409
S"<class 'gluon.html.SPAN'>"
p410
sS'IS_JSON'
p411
S"<class 'gluon.validators.IS_JSON'>"
p412
sS'dep'
p413
S"u'059'"
p414
sS'IS_SLUG'
p415
S"<class 'gluon.validators.IS_SLUG'>"
p416
sVdepute_departement
p417
S"u'Nord'"
p418
sVdepute_nuages
p419
S"{u'noms': [[u'travail', 496], [u'salari\\xe9', 325], [u'loi', 293], [u'entreprise', 240], [u'projet', 197], [u'social', 197], [u'code', 186], [u'politique', 186], [u'droit', 165], [u'employeur', 133], [u'confiance', 122], [u'int\\xe9r\\xeat', 122], [u'temps', 101], [u'grand', 101], [u'moins', 90], [u'raison', 90], [u'licenciement', 90], [u'gouvernement', 90], [u'pays', 90], [u'fran\\xe7ais', 80], ...], u'verbes': [[u'faire', 739], [u'pouvoir', 465], [u'permettre', 264], [u'vouloir', 264], [u'agir', 228], [u'appeler', 191], [u'falloir', 191], [u'proposer', 173], [u'savoir', 173], [u'mettre', 155], [u'prendre', 136], [u'demander', 118], [u'concerner', 100], [u'voir', 100], [u'r\\xe9tablir', 100], [u'laisser', 100], [u'devoir', 100], [u'souhaiter', 82], [u'trouver', 82], [u'cr\\xe9er', 82], ...]}"
p420
sVdepute_shortid
p421
S"u'adrienquatennens'"
p422
sS'META'
p423
S"<class 'gluon.html.META'>"
p424
sS'client'
p425
S"MongoClient(host=['localhost:27017'], document_class=dict, tz_aware=False, connect=True)"
p426
sVdepute_commissions
p427
S"[{u'id': u'PO420120', u'lien': u'http://www2.assemblee-nationale.fr/instances/fiche/OMC_PO420120', u'nom': u'Commission des affaires sociales', u'qualite': u'Membre'}]"
p428
sS'dec'
p429
S"{u'civilite': u'M.', u'classement': u'QUATENNENS Adrien12889', u'date_depot': u'', u'date_publication': u'', u'departement': u'59', u'docurl': u'http://www.hatvp.fr/livraison/dossiers/', u'id_origine': u'720422', u'nom': u'QUATENNENS', u'nom_fichier': u'', u'open_data': u'', ...}"
p430
sS'pickle'
p431
S"<module 'pickle' from '/usr/lib/python2.7/pickle.pyc'>"
p432
sS'BUTTON'
p433
S"<class 'gluon.html.BUTTON'>"
p434
sVdepute_mandat_fin_cause
p435
S'None'
p436
sVdepute_nom
p437
S"u'M. Adrien Quatennens'"
p438
sS'IS_DATE'
p439
S"<class 'gluon.validators.IS_DATE'>"
p440
sS'IS_EMAIL'
p441
S"<class 'gluon.validators.IS_EMAIL'>"
p442
sS'mandats'
p443
S'[]'
p444
sS'IS_NOT_EMPTY'
p445
S"<class 'gluon.validators.IS_NOT_EMPTY'>"
p446
sS'xrange'
p447
S"<type 'xrange'>"
p448
sVgroupe_libelle
p449
S"u'La France insoumise'"
p450
sS'BEAUTIFY'
p451
S"<class 'gluon.html.BEAUTIFY'>"
p452
sS'transp'
p453
S"'0.33'"
p454
sS'TBODY'
p455
S"<class 'gluon.html.TBODY'>"
p456
sS'appcache'
p457
S'<__restricted__.AppCache instance>'
p458
sS'Field'
p459
S"<class 'pydal.objects.Field'>"
p460
sS'stroke'
p461
S"'light'"
p462
sVmots
p463
S'None'
p464
sS'circo'
p465
S"{u'_id': ObjectId('59b9502b6d8669a20455624a'), u'carte': u'france', u'd': u'm 691.64038,63.639602 1.25546,2.17291 1.42872,...842,-0.46089 -1.25124,0.28748 -0.17264,0.71548 z', u'dep': u'059', u'desc': u'Cantons de : Lille Centre, Lille Sud, Lille Su...ommunes de Lezennes et Ronchin), commune de Loos', u'h': u'7.818737030029297', u'id': u'059-01', u'paris': False, u'title': u'Premi\\xe8re circonscription du Nord', u'ville': True, ...}"
p466
sS'IS_LIST_OF_EMAILS'
p467
S"<class 'gluon.validators.IS_LIST_OF_EMAILS'>"
p468
sg58
S"<Storage {'_vars': None, 'function': 'index', 'c...r': '/home/www-data/web2py/applications/oadev/'}>"
p469
sS'DIV'
p470
S"<class 'gluon.html.DIV'>"
p471
sS'LEGEND'
p472
S"<class 'gluon.html.LEGEND'>"
p473
sS'sortfcts'
p474
S"{'alpha': {'fct': <function <lambda>>, 'libelle': 'Ordre Alphab\\xc3\\xa9tique'}, 'alphanom': {'fct': <function <lambda>>, 'libelle': 'Ordre Alphab\\xc3\\xa9tique (nom prenom)'}, 'datescrutin': {'fct': <function <lambda>>, 'libelle': 'par N\\xc2\\xb0 de scrutin'}, 'emcompat': {'fct': <function <lambda>>, 'libelle': 'EM-Compatibilit\\xc3\\xa9'}, 'ficompat': {'fct': <function <lambda>>, 'libelle': 'FI-Compatibilit\\xc3\\xa9'}, 'participation': {'fct': <function <lambda>>, 'libelle': 'Participation'}, 'pctabs': {'fct': <function <lambda>>, 'libelle': '% Votes abstention'}, 'pctcontre': {'fct': <function <lambda>>, 'libelle': '% Votes contre'}, 'pctpour': {'fct': <function <lambda>>, 'libelle': '% Votes pour'}}"
p475
sS'strokewidth'
p476
S'8.749279022216797'
p477
sS'svgtop'
p478
S'<function svgtop>'
p479
sS'to_native'
p480
S'<function to_native>'
p481
sS'COLGROUP'
p482
S"<class 'gluon.html.COLGROUP'>"
p483
sS'DAL'
p484
S"<class 'pydal.base.DAL'>"
p485
sS'ASSIGNJS'
p486
S'<function ASSIGNJS>'
p487
sS'TR'
p488
S"<class 'gluon.html.TR'>"
p489
sS'LI'
p490
S"<class 'gluon.html.LI'>"
p491
sVgroupe_uid
p492
S"u'PO730958'"
p493
sS'TH'
p494
S"<class 'gluon.html.TH'>"
p495
sS'TD'
p496
S"<class 'gluon.html.TD'>"
p497
sS'PluginManager'
p498
S"<class 'gluon.tools.PluginManager'>"
p499
sS'IS_URL'
p500
S"<class 'gluon.validators.IS_URL'>"
p501
sVdepute_place
p502
S"u'612'"
p503
sS'A'
S"<class 'gluon.html.A'>"
p504
sS'HEAD'
p505
S"<class 'gluon.html.HEAD'>"
p506
sS'IS_DATETIME_IN_RANGE'
p507
S"<class 'gluon.validators.IS_DATETIME_IN_RANGE'>"
p508
sS'FORM'
p509
S"<class 'gluon.html.FORM'>"
p510
sS'I'
S"<class 'gluon.html.I'>"
p511
sS'symbol'
p512
S'<g\n     transform="translate(100,65),scale(0.14)...ill-opacity:1;stroke-width:0.97821659" />\n  </g>\n'
p513
sS'm'
S"{u'id': u'PO420120', u'lien': u'http://www2.assemblee-nationale.fr/instances/fiche/OMC_PO420120', u'nom': u'Commission des affaires sociales', u'qualite': u'Membre'}"
p514
sS'IS_ALPHANUMERIC'
p515
S"<class 'gluon.validators.IS_ALPHANUMERIC'>"
p516
sS'pymongo'
p517
S"<module 'pymongo' from '/home/www-data/web2py/ap...ib/python2.7/site-packages/pymongo/__init__.pyc'>"
p518
sVdepute_mandat_fin
p519
S'None'
p520
sVdepute_positions
p521
S"{u'absent': 52, u'abstention': 8, u'contre': 6, u'dissidence': 0, u'exprimes': 67, u'pour': 53, u'total': 119}"
p522
sS'typ'
p523
S"u'delegations_office'"
p524
sg103
S"<Storage {'body': <cStringIO.StringO object at 0...at 0x7f39cc259f50>, 'view': 'depute/index.html'}>"
p525
sVdepute_profession
p526
S"u'Employ\\xe9 (secteur priv\\xe9)'"
p527
sS'ANY_OF'
p528
S"<class 'gluon.validators.ANY_OF'>"
p529
sS'IS_NULL_OR'
p530
S"<class 'gluon.validators.IS_EMPTY_OR'>"
p531
sS'circos'
p532
S'[{u\'_id\': ObjectId(\'59b9502b6d8669a20455624a\'), u\'carte\': u\'france\', u\'d\': u\'m 691.64038,63.639602 1.25546,2.17291 1.42872,...842,-0.46089 -1.25124,0.28748 -0.17264,0.71548 z\', u\'dep\': u\'059\', u\'desc\': u\'Cantons de : Lille Centre, Lille Sud, Lille Su...ommunes de Lezennes et Ronchin), commune de Loos\', u\'h\': u\'7.818737030029297\', u\'id\': u\'059-01\', u\'paris\': False, u\'title\': u\'Premi\\xe8re circonscription du Nord\', u\'ville\': True, ...}, {u\'_id\': ObjectId(\'59b9502b6d8669a20455624c\'), u\'carte\': u\'france\', u\'d\': u\'m 697.26298,60.985512 -0.80304,-0.0258 -1.0255...3684,2.00282 -0.69226,1.03891 -1.09491,0.79157 z\', u\'dep\': u\'059\', u\'desc\': u\'Cantons de : Lille Nord, Lille Ouest, Quesnoy-sur-De\\xfble\', u\'h\': u\'19.40857696533203\', u\'id\': u\'059-04\', u\'paris\': False, u\'title\': u\'Quatri\\xe8me circonscription du Nord\', u\'ville\': True, ...}, {u\'_id\': ObjectId(\'59b9502b6d8669a20455624e\'), u\'carte\': u\'france\', u\'d\': u\'m 706.75109,50.774112 1.87995,-3.08203 0.22848...91,-0.66545 -1.35349,-1.00981 1.06087,-1.91228 z\', u\'dep\': u\'059\', u\'desc\': u\'Cantons de : Roubaix Centre, Roubaix Est, Roubaix Nord\', u\'h\': u\'9.152809143066406\', u\'id\': u\'059-08\', u\'paris\': False, u\'title\': u\'Huiti\\xe8me circonscription du Nord\', u\'ville\': True, ...}, {u\'_id\': ObjectId(\'59b9502b6d8669a20455624f\'), u\'carte\': u\'france\', u\'d\': u\'m 702.09942,49.105382 -0.6859,0.5473 -0.79901,...907,-0.0967 -0.0658,-0.85799 -1.12653,-0.61042 z\', u\'dep\': u\'059\', u\'desc\': u\'Cantons de : Lille Nord-Est (moins la commune ...r\\u0153ul), Marcq-en-Bar\\u0153ul, Tourcoing Sud.\', u\'h\': u\'14.9644775390625\', u\'id\': u\'059-09\', u\'paris\': False, u\'title\': u\'Neuvi\\xe8me circonscription du Nord\', u\'ville\': True, ...}, {u\'_id\': ObjectId(\'59b9502b6d8669a204556250\'), u\'carte\': u\'france\', u\'d\': u\'m 696.82653,45.397222 0.51534,0.75646 -0.50564...86401,-1.05483 0.18591,2.2619 -0.30167,1.32391 z\', u\'dep\': u\'059\', u\'desc\': u\'Cantons de : Tourcoing Nord, Tourcoing Nord-Est\', u\'h\': u\'10.51702880859375\', u\'id\': u\'059-10\', u\'paris\': False, u\'title\': u\'Dixi\\xe8me circonscription du Nord\', u\'ville\': True, ...}, {u\'_id\': ObjectId(\'59b9502c6d8669a2045563ba\'), u\'carte\': u\'france\', u\'d\': u\'m 770.69682,128.80841 -0.2636,-0.26324 -0.6218...0.1461,0.61051 -0.9908,-0.2996 -0.0302,-0.3362 z\', u\'dep\': u\'059\', u\'desc\': u\'Cantons de : Avesnes-sur-Helpe Nord, Bavay, Ma...rd, Maubeuge Sud, Solre-le-Ch\\xe2teau, Tr\\xe9lon\', u\'h\': u\'51.384376525878906\', u\'id\': u\'059-03\', u\'paris\': False, u\'title\': u\'Troisi\\xe8me circonscription du Nord\', u\'ville\': False, ...}, {u\'_id\': ObjectId(\'59b9502c6d8669a2045563bb\'), u\'carte\': u\'france\', u\'d\': u\'m 674.02782,68.322512 0.2541,-0.43201 1.3915,-...601,-2.22921 -0.5791,-1.72467 -1.6286,-0.56304 z\', u\'dep\': u\'059\', u\'desc\': u\'Cantons de : La Bass\\xe9e, Haubourdin (moins la commune de Loos), Seclin Nord, Seclin Sud.\', u\'h\': u\'18.040042877197266\', u\'id\': u\'059-05\', u\'paris\': False, u\'title\': u\'Cinqui\\xe8me circonscription du Nord\', u\'ville\': False, ...}, {u\'_id\': ObjectId(\'59b9502c6d8669a2045563bc\'), u\'carte\': u\'france\', u\'d\': u\'m 711.03717,58.393402 -0.3125,0.28125 -1.09375...25 0.4375,0.0312 0.25,-0.84375 -0.9375,-0.4375 z\', u\'dep\': u\'059\', u\'desc\': u\'Cantons de : Cysoing, Orchies, Pont-\\xe0-Marcq...ue, Gruson, Sailly-lez-Lannoy, Tressin, Willems.\', u\'h\': u\'30.90625\', u\'id\': u\'059-06\', u\'paris\': False, u\'title\': u\'Sixi\\xe8me circonscription du Nord\', u\'ville\': False, ...}, {u\'_id\': ObjectId(\'59b9502c6d8669a2045563bd\'), u\'carte\': u\'france\', u\'d\': u\'m 677.89092,55.710132 -1.4831,-0.74559 -0.6145... -1.1982,0.4005 -1.1873,2.26577 -1.843,1.18711 z\', u\'dep\': u\'059\', u\'desc\': u\'Cantons de : Armenti\\xe8res, Lille Sud-Ouest, Lomme\', u\'h\': u\'18.84168243408203\', u\'id\': u\'059-11\', u\'paris\': False, u\'title\': u\'Onzi\\xe8me circonscription du Nord\', u\'ville\': False, ...}, {u\'_id\': ObjectId(\'59b9502c6d8669a2045563be\'), u\'carte\': u\'france\', u\'d\': u\'m 769.81142,129.52635 -3.4879,2.82945 -0.4444,...0.2636,-0.26324 -0.0719,0.10858 -0.5499,0.8726 z\', u\'dep\': u\'059\', u\'desc\': u\'Cantons de : Avesnes-sur-Helpe Sud, Berlaimont...cies, Le Quesnoy Est, Le Quesnoy Ouest, Solesmes\', u\'h\': u\'43.164642333984375\', u\'id\': u\'059-12\', u\'paris\': False, u\'title\': u\'Douzi\\xe8me circonscription du Nord\', u\'ville\': False, ...}, {u\'_id\': ObjectId(\'59b9502c6d8669a2045563bf\'), u\'carte\': u\'france\', u\'d\': u\'m 634.20952,12.301462 -0.2933,0.31511 0.0672,0...1.326,-1.3033 -0.3408,-1.34071 -2.5641,0.13196 z\', u\'dep\': u\'059\', u\'desc\': u\'Cantons de : Coudekerque-Branche, Dunkerque Ouest, Grande-Synthe\', u\'h\': u\'11.709449768066406\', u\'id\': u\'059-13\', u\'paris\': False, u\'title\': u\'Treizi\\xe8me circonscription du Nord\', u\'ville\': False, ...}, {u\'_id\': ObjectId(\'59b9502c6d8669a2045563c0\'), u\'carte\': u\'france\', u\'d\': u\'m 633.91622,12.616572 0.0672,0.0829 -2.5377,2.....3408,-1.34071 -2.5641,0.13196 -0.2933,0.31511 z\', u\'dep\': u\'059\', u\'desc\': u\'Cantons de : Bergues, Bourbourg, Dunkerque Est, Gravelines, Hondschoote, Wormhout\', u\'h\': u\'42.12982177734375\', u\'id\': u\'059-14\', u\'paris\': False, u\'title\': u\'Quatorzi\\xe8me circonscription du Nord\', u\'ville\': False, ...}, {u\'_id\': ObjectId(\'59b9502c6d8669a2045563c1\'), u\'carte\': u\'france\', u\'d\': u\'m 671.07242,42.628322 -1.3389,-0.80495 -1.1511...9151,-1.99326 0.1235,-0.90474 -0.5651,-0.71829 z\', u\'dep\': u\'059\', u\'desc\': u\'Cantons de : Bailleul Nord-Est, Bailleul Sud-O...ouck Nord, Hazebrouck Sud, Merville, Steenvoorde\', u\'h\': u\'40.458168029785156\', u\'id\': u\'059-15\', u\'paris\': False, u\'title\': u\'Quinzi\\xe8me circonscription du Nord\', u\'ville\': False, ...}, {u\'_id\': ObjectId(\'59b9502c6d8669a2045563c2\'), u\'carte\': u\'france\', u\'d\': u\'m 704.02462,91.420132 0.722,-0.38175 0.1218,-1...5031,-0.85332 0.4799,-0.65513 -0.6327,-1.35527 z\', u\'dep\': u\'059\', u\'desc\': u\'Canton de Marchiennes, Communes de : Anhiers, ...ny, Montigny-en-Ostrevent, Sin-le-Noble, Waziers\', u\'h\': u\'18.58831024169922\', u\'id\': u\'059-16\', u\'paris\': False, u\'title\': u\'Seizi\\xe8me circonscription du Nord\', u\'ville\': False, ...}, {u\'_id\': ObjectId(\'59b9502c6d8669a2045563c3\'), u\'carte\': u\'france\', u\'d\': u\'m 701.09962,110.28401 -2.557,-0.77083 -1.3019,...9292,-0.3682 -0.4522,-0.13098 -2.1489,-0.31011 z\', u\'dep\': u\'059\', u\'desc\': u\'Cantons de : Arleux, Douai Nord (moins les com..., Masny, Montigny-en-Ostreven), Douai Sud-Ouest.\', u\'h\': u\'25.895355224609375\', u\'id\': u\'059-17\', u\'paris\': False, u\'title\': u\'Dix-septi\\xe8me circonscription du Nord\', u\'ville\': False, ...}, {u\'_id\': ObjectId(\'59b9502c6d8669a2045563c4\'), u\'carte\': u\'france\', u\'d\': u\'m 713.91212,110.67465 -1.1562,0.59375 -1.0938,...5625,-0.375 -0.34375,-0.78125 -2.3125,-0.28125 z\', u\'dep\': u\'059\', u\'desc\': u\'Cantons de : Cambrai Est, Cambrai Ouest, Le Cateau-Cambr\\xe9sis, Clary, Marcoing\', u\'h\': u\'33.62504577636719\', u\'id\': u\'059-18\', u\'paris\': False, u\'title\': u\'Dix-huiti\\xe8me circonscription du Nord\', u\'ville\': False, ...}, {u\'_id\': ObjectId(\'59b9502c6d8669a2045563c5\'), u\'carte\': u\'france\', u\'d\': u\'m 722.71002,115.49167 -0.3797,-1.30364 -0.7139....1354,-0.25054 -2.1955,2.46069 -0.6443,-0.6294 z\', u\'dep\': u\'059\', u\'desc\': u\'Cantons de : Bouchain, Denain, Valenciennes Sud (moins la commune de Valenciennes)\', u\'h\': u\'24.076637268066406\', u\'id\': u\'059-19\', u\'paris\': False, u\'title\': u\'Dix-neuvi\\xe8me circonscription du Nord\', u\'ville\': False, ...}, {u\'_id\': ObjectId(\'59b9502c6d8669a2045563c6\'), u\'carte\': u\'france\', u\'d\': u\'m 740.76512,91.999112 -0.7961,0.1235 -0.006,0.....6879,-0.70368 -0.7099,-0.0891 -0.5264,0.62834 z\', u\'dep\': u\'059\', u\'desc\': u\'Cantons de : Anzin (moins la commune de Saint-...r-Escaut, Hergnies, Odomez, Vicq, Vieux-Cond\\xe9\', u\'h\': u\'22.492881774902344\', u\'id\': u\'059-20\', u\'paris\': False, u\'title\': u\'Vingti\\xe8me circonscription du Nord\', u\'ville\': False, ...}, {u\'_id\': ObjectId(\'59b9502c6d8669a2045563c7\'), u\'carte\': u\'france\', u\'d\': u\'m 743.63092,79.893402 -2.0938,0.75 -0.3124,1.2....8438,-3.46875 -0.5625,0.5625 -1.4687,-0.90625 z\', u\'dep\': u\'059\', u\'desc\': u"Cantons de : Cond\\xe9-sur-l\'Escaut (moins les ...on de Valenciennes Sud), Commune de Saint-Saulve", u\'h\': u\'26.281356811523438\', u\'id\': u\'059-21\', u\'paris\': False, u\'title\': u\'Vingt-et-uni\\xe8me circonscription du Nord\', u\'ville\': False, ...}, {u\'_id\': ObjectId(\'59b9502b6d8669a20455624b\'), u\'carte\': u\'france\', u\'d\': u\'m 699.96291,60.638392 0.73261,0.6533 -0.20692,...529,0.69328 -1.37471,-0.50619 -0.75562,1.58017 z\', u\'dep\': u\'059\', u\'desc\': u"Cantons de : Lille Est, Villeneuve-d\'Ascq Nord...unes de Lezennes, Mons-en-Bar\\u0153ul et Ronchin", u\'h\': u\'11.33016586303711\', u\'id\': u\'059-02\', u\'paris\': False, u\'title\': u\'Deuxi\\xe8me circonscription du Nord\', u\'ville\': True, ...}, ...]'
p533
sS'IS_FLOAT_IN_RANGE'
p534
S"<class 'gluon.validators.IS_FLOAT_IN_RANGE'>"
p535
sS'IS_EXPR'
p536
S"<class 'gluon.validators.IS_EXPR'>"
p537
sS'T'
S'<gluon.languages.translator object>'
p538
sS'IS_IN_SET'
p539
S"<class 'gluon.validators.IS_IN_SET'>"
p540
sS'contact'
p541
S"{u'lien': u'https://twitter.com/@AQuatennens/', u'type': u'twitter'}"
p542
sS'IS_UPLOAD_FILENAME'
p543
S"<class 'gluon.validators.IS_UPLOAD_FILENAME'>"
p544
sS'getdot'
p545
S'<function getdot>'
p546
sV_id
p547
S"ObjectId('59af324a6d8669a20452a404')"
p548
sVdepute_csp
p549
S"u'Professions Interm\\xe9diaires'"
p550
sS'TT'
p551
S"<class 'gluon.html.TT'>"
p552
sS'IS_DECIMAL_IN_RANGE'
p553
S"<class 'gluon.validators.IS_DECIMAL_IN_RANGE'>"
p554
sssS'traceback'
p555
S'Traceback (most recent call last):\n  File "/home/www-data/web2py/gluon/restricted.py", line 219, in restricted\n    exec(ccode, environment)\n  File "<string>", line 152, in <module>\nNameError: name \'json\' is not defined\n'
p556
s.