(dp1
S'output'
p2
S"<type 'exceptions.SyntaxError'> EOL while scanning string literal (<string>, line 139)"
p3
sS'layer'
p4
S'/home/www-data/web2py/applications/oadev/views/depute/index.html'
p5
sS'code'
p6
S'response.write(\'<!DOCTYPE html>\\n<html lang="fr">\\n<head>\\n    <meta charset="utf-8">\\n    <meta http-equiv="x-ua-compatible" content="ie=edge">\\n    <title>ObsAss</title>\\n    <meta name="description" content="">\\n    <meta name="viewport" content="width=device-width, initial-scale=1">\\n\\n    <link href="https://fonts.googleapis.com/css?family=Montserrat:400,600,700" rel="stylesheet">\\n    <link href="https://maxcdn.bootstrapcdn.com/font-awesome/4.7.0/css/font-awesome.min.css" rel="stylesheet">\\n    <link rel="stylesheet" href="\', escape=False)\nresponse.write(URL(\'static\',\'css/main.css\'))\nresponse.write(\'" rel="stylesheet">\\n</head>\\n<body>\\n    <nav id="main-nav" class="flex">\\n        <img src="\', escape=False)\nresponse.write(URL(\'static\',\'assets/logo.png\'))\nresponse.write(\'" alt="Observatoire Insoumis">\\n        <ul>\\n            <li>Programme Pr\\xc3\\xa9sidentiel</li>\\n            <li>Gouvernement</li>\\n            <li>Assembl\\xc3\\xa9e Nationale</li>\\n        </ul>\\n    </nav>\\n    <header id="header">\\n        Header super chouette sisi !\\n    </header>\\n    <nav id="sub-nav">\\n        <ul>\\n            <li><i class="fa fa-users" aria-hidden="true"></i> Groupes</li>\\n            <li><i class="fa fa-user-circle-o" aria-hidden="true"></i> D\\xc3\\xa9put\\xc3\\xa9s</li>\\n            <li><i class="fa fa-thumbs-up" aria-hidden="true"></i> Suivi FI</li>\\n        </ul>\\n    </nav>\\n    \', escape=False)\nresponse.write(\'\\n    <div id="depute-template" class="container">\\n        <div class="depute-header">\\n            <div class="depute-photo">\\n                <img src="http://www2.assemblee-nationale.fr/static/tribun/15/photos/\', escape=False)\nresponse.write(depute_uid[2:])\nresponse.write(\'.jpg"/>\\n            </div>\\n            <div class="depute-identite">\\n                <header>\\n                    <h2><span>\', escape=False)\nresponse.write("%s / %s / %se circ" % (depute_region,depute_departement,depute_circo))\nresponse.write(\'</span></h2>\\n                    <h1>\', escape=False)\nresponse.write(depute_nom)\nresponse.write(\'</h1>\\n                </header>\\n\\n                <div class="depute-contacts">\\n                    \', escape=False)\nfor contact in depute_contacts:\n    if (contact[\'type\']==u\'mail\'):\n        response.write(\'<a class="depute-contact" href="mailto:\', escape=False)\n        response.write(contact[\'lien\'])\n        response.write(\'"><i class="fa fa-envelope-o"></i></a>\\n                    \', escape=False)\n    elif (contact[\'type\']==\'twitter\'):\n        response.write(\'<a class="depute-contact" href="https://twitter.com/\', escape=False)\n        response.write(contact[\'lien\'][2:])\n        response.write(\'"><i class="fa fa-twitter"></i></a>\\n                    \', escape=False)\n    elif (contact[\'type\']==\'facebook\'):\n        response.write(\'<a class="depute-contact" href="https://fr-fr.facebook.com/\', escape=False)\n        response.write(contact[\'lien\'])\n        response.write(\'"><i class="fa fa-facebook-square"></i></a>\\n                    \', escape=False)\n    elif (contact[\'type\']==\'site\'):\n        response.write(\'<a class="depute-contact" href="http://\', escape=False)\n        response.write(contact[\'lien\'])\n        response.write(\'"><i class="fa fa-globe"></i></a>\\n                    \', escape=False)\n        pass\n    response.write(\'\\n                    \', escape=False)\n    pass\nresponse.write(\'\\n                </div>\\n\\n                <div class="depute-groupe \', escape=False)\nresponse.write(groupe_abrev)\nresponse.write(\'"><i class="fa fa-group"></i> <a href="\', escape=False)\nresponse.write(URL(\'groupe\',\'index\',args=[groupe_abrev]))\nresponse.write(\'">\', escape=False)\nresponse.write(groupe_libelle)\nresponse.write(\'</a></div>\\n                <div class="depute-infos"><span>\', escape=False)\nresponse.write("%s, %s" % (depute_profession, depute_naissance))\nresponse.write(\'</span></div>\\n                <div class="depute-infos"><span>Participation : \', escape=False)\nresponse.write("%s/%s" % (stats[\'ranks\'][\'exprimes\'] or \'-\', 577))\nresponse.write(\'</span><br /><span>Dissidence : \', escape=False)\nresponse.write("%s/%s" % (stats[\'ranks\'][\'dissidence\'] or \'-\', 577))\nresponse.write(\'</span></div>\\n                <div class="depute-infos"><span>Suppl\\xc3\\xa9ant : \', escape=False)\nresponse.write(depute_suppleant)\nresponse.write(\'</span></div>\\n            </div>\\n        </div>\\n\\n        <div class="tab-container">\\n            <header>\\n                <input id="tab1" type="radio" name="tabs" value="presentation">\\n                <label for="tab1"><i class="fa fa-id-card-o"></i><span>Pr\\xc3\\xa9sentation</span></label>\\n\\n                <input id="tab2" type="radio" name="tabs" value="interventions">\\n                <label for="tab2"><i class="fa fa-comment-o"></i><span>Interventions</span></label>\\n\\n                <input id="tab3" type="radio" name="tabs" value="votes" checked>\\n                <label for="tab3"><i class="fa fa-hand-paper-o"></i><span>Votes</span></label>\\n            </header>\\n\\n            <section id="presentation" class="tab-content"> <!-- Pr\\xc3\\xa9sentation -->\\n                <div class="depute-hemicycle">\\n                    <object id="hemicycle" data="\', escape=False)\nresponse.write(URL(\'static\',\'images/hemicyclelight.svg\'))\nresponse.write(\'" type="image/svg+xml"></object>\\n                    \', escape=False)\nresponse.write(svgcirco(depute_circo_id))\nresponse.write(\'\\n                </div>\\n                <div class="depute-fonctions">\\n                    <h2>Fonctions / Mandats</h2>\\n                    <ul class="fa-ul">\\n                        <li><i class="fa fa-li fa-arrow-circle-o-right"></i> Membre de l\\\'Assembl\\xc3\\xa9e \', escape=False)\nif \'depute_actif\':\n    response.write(\'depuis le \', escape=False)\n    response.write(depute_mandat_debut)\nelse:\n    response.write(\'du %s au %s\' % (depute_mandat_debut,depute_mandat_fin))\n    pass\nresponse.write(\'</li>\\n                        \', escape=False)\nif depute_bureau:\n    response.write(\'<li><i class="fa fa-li fa-arrow-circle-o-right"></i> \', escape=False)\n    response.write(depute_bureau)\n    response.write(\'</li>\', escape=False)\n    pass\nresponse.write(\'\\n                        \', escape=False)\nfor typ,mandats in depute_mandats.iteritems():\n    for m in mandats:\n        response.write(\'\\n                        <li>\\n                            <i class="fa fa-li fa-arrow-circle-o-right"></i> <a href="\', escape=False)\n        response.write(m[\'lien\'])\n        response.write(\'">\', escape=False)\n        response.write(m[\'nom\'])\n        response.write(\'</a> (\', escape=False)\n        response.write(m[\'qualite\'])\n        response.write(\')\\n                        </li>\\n                        \', escape=False)\n        pass\n    pass\nresponse.write(\'\\n                    </ul>\\n                    \', escape=False)\nif depute_autresmandats:\n    response.write(\'\\n                    <h2>Autres Mandats</h2>\\n                    <ul class="fa-ul">\\n                        \', escape=False)\n    for am in depute_autresmandats:\n        response.write(\'\\n                        <li>\\n                            <i class="fa fa-li fa-arrow-circle-o-right"></i> \', escape=False)\n        response.write(am)\n        response.write(\'\\n                        </li>\', escape=False)\n        pass\n    response.write(\'\\n                    </ul>\\n                    \', escape=False)\n    pass\nresponse.write(\'\\n                    \', escape=False)\nif depute_collaborateurs:\n    response.write(\'\\n                    <h2>Collaborateurs</h2>\\n                    <ul class="fa-ul">\\n                        \', escape=False)\n    for co in depute_collaborateurs:\n        response.write(\'\\n                        <li>\\n                            <i class="fa fa-li fa-arrow-circle-o-right"></i> \', escape=False)\n        response.write(co)\n        response.write(\'\\n                        </li>\', escape=False)\n        pass\n    response.write(\'\\n                    </ul>\\n                    \', escape=False)\n    pass\nresponse.write(\'\\n                </div>\\n                \', escape=False)\nif depute_deputywatch:\n    response.write(\'\\n                <div class="depute-watch">\\n                    <h2>Deputy Watch</h2>\\n                    <div class="flex">\\n                        <img src="\', escape=False)\n    response.write(URL(\'static\',\'assets/deputywatch.png\'))\n    response.write(\'" alt="Deputy Watch">\\n                        <div>\\n                            Le site Deputy Watch tente de recenser les ant\\xc3\\xa9c\\xc3\\xa9dents judiciaires de notori\\xc3\\xa9t\\xc3\\xa9 publique des \\xc3\\xa9lus.\\n                            Nous y avons cherch\\xc3\\xa9 ce d\\xc3\\xa9put\\xc3\\xa9 et il semblerait qu\\\'il y soit list\\xc3\\xa9.<br />\\n                            <a href="\', escape=False)\n    response.write(depute_deputywatch[\'url\'])\n    response.write(\'" target="_blank">\\n                                <i class="fa fa-arrow-circle-o-right"></i> Voir le r\\xc3\\xa9sultat\\n                            </a>\\n                        </div>\\n                    </div>\\n                </div>\\n                \', escape=False)\n    pass\nresponse.write(\'\\n                \', escape=False)\nif len(depute_hatvp)>0:\n    response.write(\'\\n                <div>\\n                    <h2>D\\xc3\\xa9claration \\xc3\\xa0 la HATVP</h2>\\n                    <ul class="fa-ul">\\n                        \', escape=False)\n    for dec in depute_hatvp:\n        response.write(\'\\n                        <li>\\n                            <a href="\', escape=False)\n        response.write(dec[\'docurl\'])\n        response.write(\'" target="_blank">\\n                                <i class="fa fa-li fa-file-text-o"></i>\\n                                \', escape=False)\n        response.write("%s - %s" % (dec[\'typedoc\'], dec[\'qualite\']))\n        response.write(\'\\n                            </a>\\n                        </li>\\n                        \', escape=False)\n        pass\n    response.write(\'\\n                    </ul>\\n                </div>\\n                \', escape=False)\n    pass\nresponse.write(\'\\n            </section>\\n\\n\\t\\t\\t<section id="interventions" class="tab-content"> <!-- Interventions -->\\n                <div class="depute-interventions-recap">\\n                    Nombre d\\\'interventions : <span>\', escape=False)\nresponse.write(stats[\'nbitvs\'])\nresponse.write(\'</span>, nombre de mots : <span>\', escape=False)\nresponse.write(stats[\'nbmots\'])\nresponse.write(\'</span>\\n                </div>\\n                <div class="depute-interventions-cloud">\\n                    <div>\\n                        <h2>Ses mots</h2>\\n                        <div id="sourrounding_div_noms" class="cloud">\\n                            <canvas id="wordcanvas_noms"></canvas>\\n                        </div>\\n                    </div>\\n                    <div>\\n                        <h2>Ses verbes</h2>\\n                        <div id="sourrounding_div_verbes" class="cloud">\\n                            <canvas id="wordcanvas_verbes"></canvas>\\n                        </div>\\n                    </div>\\n                </div>\\n                <div id="itvlist">\\n                    <h2>Ses interventions</h2>\\n                    <div class="depute-interventions-search">\\n                        <label for="search"><i class="fa fa-search" aria-hidden="true"></i></label>\\n                        <input class="search" placeholder="Rechercher une intervention">\\n                    </div>\\n                    <ul class="fa-ul">\\n                        \', escape=False)\nfor iv in itvs:\n    response.write(\'\\n                        <li>\\n                            <i class="fa fa-list fa-comment"></i>\\n                            <a href="\', escape=False)\n    response.write(iv[\'itv_url\'])\n    response.write(\'" target="_blank">\\n                                <h3>\', escape=False)\n    response.write(\' / \'.join(iv[\'itv_ctx\']))\n    response.write(\'</h3>\\n                            </a>\\n                            <blockquote>\', escape=False)\n    response.write(XML(iv[\'itv_contenu\']))\n    response.write(\'</blockquote>\\n                        </li>\', escape=False)\n    pass\nresponse.write(\'\\n                    </ul>\\n                </div>\\n\\t\\t\\t</section>\\n\\n\\t\\t\\t<section id="votes" class="tab-content"> <!-- Votes -->\\n\\t\\t\\t\\t<div class="depute-votes-recap">\\n                    <div class="gauge">\\n                        <h2>Participation</h2>\\n                        \', escape=False)\nresponse.write(svggauge(\'vote\',stats[\'positions\'][\'exprimes\']))\nresponse.write(\'\\n                    </div>\\n                    <div class="gauge">\\n                        <h2>Contre son groupe</h2>\\n                        \', escape=False)\nresponse.write(svggauge(\'diss\',stats[\'positions\'][\'dissidence\']))\nresponse.write(\'\\n                    </div>\\n                    <div class="gauge">\\n                        <h2>FI-Compatibilit\\xc3\\xa9</h2>\\n                        \', escape=False)\nresponse.write(svggauge(\'compfi\',stats[\'compat\'][\'FI\']))\nresponse.write(\'\\n                    </div>\\n                    <div class="gauge">\\n                        <h2>EM-Compatibilit\\xc3\\xa9</h2>\\n                        \', escape=False)\nresponse.write(svggauge(\'compem\',stats[\'compat\'][\'REM\']))\nresponse.write(\'\\n                    </div>\\n                </div>\\n                <div class="depute-votes-calendar">\\n                    <h2>Calendrier des votes</h2>\\n                    <div id="calendar"></div>\\n                </div>\\n\\n                <div class="depute-votes-list">\\n                    <h2>Ses votes</h2>\\n                    <div class="depute-votes-search">\\n                        <label for="search"><i class="fa fa-search" aria-hidden="true"></i></label>\\n                        <input class="search" placeholder="Rechercher un vote">\\n                    </div>\\n                    <ul>\\n                        \', escape=False)\ngenres = {\'loi\':\'e\',\'motion\':e\'}\nresponse.write(\'\\n                        \', escape=False)\nfor v in votes:\n    response.write(\'\\n                        <li>\\n                            <div class="ico \', escape=False)\n    response.write(v[\'vote_position\'])\n    response.write(\'">\\n                                <i class="fa fa-book"></i>\\n                            </div>\\n                            <div>\\n                                <header>\\n                                    <div>\\n                                        <h3><span>\', escape=False)\n    response.write(v[\'scrutin_dossierLibelle\'])\n    response.write(\' - \', escape=False)\n    response.write(v[\'scrutin_typedetail\'][0].upper()+v[\'scrutin_typedetail\'][1:])\n    if v[\'scrutin_groupe\']:\n        response.write(\'propos\\xc3\\xa9\', escape=False)\n        response.write(genres[v[\'scrutin_typedetail\']])\n        response.write(\' par le groupe \', escape=False)\n        response.write(v[\'scrutin_groupe\'])\n        pass\n    response.write(\'</span></h3>\\n                                        <a href="\', escape=False)\n    response.write(URL(\'scrutin\',\'index\',args=[v[\'scrutin_id\']]))\n    response.write(\'">Scrutin n\\xc2\\xb0\', escape=False)\n    response.write("%d du %s (%s)" % (v[\'scrutin_num\'],v[\'scrutin_date\'],v[\'scrutin_sort\']))\n    response.write(\'</a>\\n                                    </div>\\n                                    <div class="vote \', escape=False)\n    response.write(v[\'vote_position\'])\n    response.write(\'"><i class="fa fa-microphone-slash"></i> \', escape=False)\n    response.write(v[\'vote_position\'][0].upper()+v[\'vote_position\'][1:])\n    response.write(\'</div>\\n                                </header>\\n                                <p><i class="fa fa-arrow-circle-o-right"></i> \', escape=False)\n    response.write(v[\'scrutin_desc\'])\n    response.write(\'</p>\\n                            </div>\\n                        </li>\\n                        \', escape=False)\n    pass\nresponse.write(\'\\n                        <li>\\n                            <div class="ico abstention">\\n                                <i class="fa fa-book"></i>\\n                            </div>\\n                            <div>\\n                                <header>\\n                                    <div>\\n                                        <h3><span>Pouvoirs publics : confiance dans l&#x27;action publique - Loi propos\\xc3\\xa9e par LREM</span></h3>\\n                                        <a href="/obsas_dev/fiches/scrutin?id=15_119">Scrutin n\\xc2\\xb0119 du 09/08/2017 (adopt\\xc3\\xa9)</a>\\n                                    </div>\\n                                    <div class="vote abstention"><i class="fa fa-microphone-slash"></i> Abstention</div>\\n                                </header>\\n                                <p><i class="fa fa-arrow-circle-o-right"></i> l&#x27;ensemble du projet de loi organique pour la confiance dans la vie politique (lecture d\\xc3\\xa9finitive).</p>\\n                            </div>\\n                        </li>\\n                        <li>\\n                            <div class="ico contre">\\n                                <i class="fa fa-pencil-square"></i>\\n                            </div>\\n                            <div>\\n                                <header>\\n                                    <div>\\n                                        <h3><span>Pouvoirs publics : confiance dans l&#x27;action publique - Amendement propos\\xc3\\xa9 par LFI</span></h3>\\n                                        <a href="/obsas_dev/fiches/scrutin?id=15_118">Scrutin n\\xc2\\xb0118 du 09/08/2017 (rejet\\xc3\\xa9)</a>\\n                                    </div>\\n                                    <div class="vote contre"><i class="fa fa-thumbs-down"></i> Contre</div>\\n                                </header>\\n                                <p><i class="fa fa-arrow-circle-o-right"></i> l&#x27;amendement n\\xc2\\xb0 1 de M. Saddier et les amendements identiques suivants au projet de loi organique pour la confiance dans la vie politique (lecture d\\xc3\\xa9finitive).</p>\\n                            </div>\\n                        </li>\\n                        <li>\\n                            <div class="ico pour">\\n                                <i class="fa fa-file"></i>\\n                            </div>\\n                            <div>\\n                                <header>\\n                                    <div>\\n                                        <h3><span>Pouvoirs publics : confiance dans l&#x27;action publique - Loi propos\\xc3\\xa9e par LR</span></h3>\\n                                        <a href="/obsas_dev/fiches/scrutin?id=15_117">Scrutin n\\xc2\\xb0117 du 03/08/2017 (adopt\\xc3\\xa9)</a>\\n                                    </div>\\n                                    <div class="vote pour"><i class="fa fa-thumbs-up"></i> Pour</div>\\n                                </header>\\n                                <p><i class="fa fa-arrow-circle-o-right"></i> l&#x27;ensemble du projet de loi organique pour la confiance dans la vie politique (nouvelle lecture).</p>\\n                            </div>\\n                        </li>\\n                        <li>\\n                            <div class="ico absent">\\n                                <i class="fa fa-undo"></i>\\n                            </div>\\n                            <div>\\n                                <header>\\n                                    <div>\\n                                        <h3><span>Pouvoirs publics : confiance dans l&#x27;action publique - Motion propos\\xc3\\xa9e par le PCF</span></h3>\\n                                        <a href="/obsas_dev/fiches/scrutin?id=15_116">Scrutin n\\xc2\\xb0116 du 03/08/2017 (rejet\\xc3\\xa9)</a>\\n                                    </div>\\n                                    <div class="vote absent"><i class="fa fa-question"></i> Absent</div>\\n                                </header>\\n                                <p><i class="fa fa-arrow-circle-o-right"></i> l&#x27;amendement n\\xc2\\xb0 59 de Mme Batho \\xc3\\xa0 l&#x27;article 12 du projet de loi organique pour la confiance dans la vie politique (nouvelle lecture).</p>\\n                            </div>\\n                        </li>\\n                        <li>\\n                            <div class="ico absent">\\n                                <i class="fa fa-microphone"></i>\\n                            </div>\\n                            <div>\\n                                <header>\\n                                    <div>\\n                                        <h3><span>Pouvoirs publics : confiance dans l&#x27;action publique - D\\xc3\\xa9claration</span></h3>\\n                                        <a href="/obsas_dev/fiches/scrutin?id=15_116">Scrutin n\\xc2\\xb0116 du 03/08/2017 (rejet\\xc3\\xa9)</a>\\n                                    </div>\\n                                    <div class="vote absent"><i class="fa fa-question"></i> Absent</div>\\n                                </header>\\n                                <p><i class="fa fa-arrow-circle-o-right"></i> l&#x27;amendement n\\xc2\\xb0 59 de Mme Batho \\xc3\\xa0 l&#x27;article 12 du projet de loi organique pour la confiance dans la vie politique (nouvelle lecture).</p>\\n                            </div>\\n                        </li>\\n                        <li>\\n                            <div class="ico absent">\\n                                <i class="fa fa-undo"></i>\\n                            </div>\\n                            <div>\\n                                <header>\\n                                    <div>\\n                                        <h3><span>Pouvoirs publics : confiance dans l&#x27;action publique - Motion propos\\xc3\\xa9e par le MODEM</span></h3>\\n                                        <a href="/obsas_dev/fiches/scrutin?id=15_116">Scrutin n\\xc2\\xb0116 du 03/08/2017 (rejet\\xc3\\xa9)</a>\\n                                    </div>\\n                                    <div class="vote absent"><i class="fa fa-question"></i> Absent</div>\\n                                </header>\\n                                <p><i class="fa fa-arrow-circle-o-right"></i> l&#x27;amendement n\\xc2\\xb0 59 de Mme Batho \\xc3\\xa0 l&#x27;article 12 du projet de loi organique pour la confiance dans la vie politique (nouvelle lecture).</p>\\n                            </div>\\n                        </li>\\n                        <li>\\n                            <div class="ico absent">\\n                                <i class="fa fa-undo"></i>\\n                            </div>\\n                            <div>\\n                                <header>\\n                                    <div>\\n                                        <h3><span>Pouvoirs publics : confiance dans l&#x27;action publique - Motion propos\\xc3\\xa9e par le PS</span></h3>\\n                                        <a href="/obsas_dev/fiches/scrutin?id=15_116">Scrutin n\\xc2\\xb0116 du 03/08/2017 (rejet\\xc3\\xa9)</a>\\n                                    </div>\\n                                    <div class="vote absent"><i class="fa fa-question"></i> Absent</div>\\n                                </header>\\n                                <p><i class="fa fa-arrow-circle-o-right"></i> l&#x27;amendement n\\xc2\\xb0 59 de Mme Batho \\xc3\\xa0 l&#x27;article 12 du projet de loi organique pour la confiance dans la vie politique (nouvelle lecture).</p>\\n                            </div>\\n                        </li>\\n                    </ul>\\n                </div>\\n            </section>\\n        </div>\\n    </div>\\n\', escape=False)\nresponse.write(\'\\n    \', escape=False)\nresponse.write(\'\\n  <script src="https://cdnjs.cloudflare.com/ajax/libs/jquery/3.2.1/jquery.min.js"></script>\\n  <script src="\', escape=False)\nresponse.write(URL(\'static\',\'js/wordcloud2.js\'))\nresponse.write(\'"></script>\\n  <script src="https://d3js.org/d3.v4.min.js"></script>\\n  <script>\\n    $(document).ready(function() {\\n        var visible = $(\\\'.tab-container input:checked\\\').val();\\n        $(\\\'#\\\' + visible).addClass(\\\'visible\\\');\\n\\n        $(\\\'.tab-container input\\\').change(function(e) {\\n            $(\\\'.tab-content\\\').removeClass(\\\'visible\\\');\\n            $(\\\'#\\\' + e.target.value).addClass(\\\'visible\\\');\\n        });\\n        /* position hemicycle */\\n        var svg = document.getElementById(\\\'hemicycle\\\');\\n        svg.addEventListener(\\\'load\\\', function () {\\n          //var svg = document.getElementById(\\\'hemicycle\\\');\\n          var svgDoc = svg.contentDocument;\\n          $.each(svgDoc.getElementsByTagName(\\\'a\\\'), function() {\\n              $(this).attr(\\\'href\\\',"depute/index/"+$(this).attr(\\\'href\\\'));\\n          });\\n          var styleElement = svgDoc.createElementNS("http://www.w3.org/2000/svg", "style");\\n          styleElement.textContent = "#p\', escape=False)\nresponse.write(depute_place)\nresponse.write(\' { fill:  black; stroke-width:5px; stroke: black;}"; // add whatever you need here\\n          svgDoc.getElementById(\\\'defs\\\').appendChild(styleElement);\\n\\n        });\\n        // Nuages\\n        \', escape=False)\nimport json\nresponse.write(\'\\n        var wordlist = {};\\n        \', escape=False)\nif depute_nuages:\n    response.write(\'\\n        \', escape=False)\n    for lex in depute_nuages.keys():\n        response.write("\\n           wordlist[\'", escape=False)\n        response.write(lex)\n        response.write("\'] = JSON.parse(\'", escape=False)\n        response.write(XML(json.dumps(depute_nuages[lex])))\n        response.write("\');\\n        ", escape=False)\n        pass\n    response.write(\'\\n        \', escape=False)\n    pass\nresponse.write(\'\\n        \\n\\n        function showNuage(lex) {\\n            if (lex==\\\'verbatim\\\') {\\n                return\\n            }\\n            var div = document.getElementById("sourrounding_div_"+lex);\\n            var canvas = document.getElementById("wordcanvas_"+lex);\\n\\n            canvas.height = div.offsetHeight;\\n            canvas.width  = div.offsetWidth;\\n\\n            WordCloud(document.getElementById(\\\'wordcanvas_\\\'+lex), {\\n                gridSize: Math.round(16 * document.getElementById(\\\'wordcanvas_\\\'+lex).offsetWidth / 1024),\\n                weightFactor: function (size) {\\n                    return 0.3*size;\\n                },\\n                list: wordlist[lex],\\n                color: function(word, weight) {\\n                    if (weight < 50) {\\n                        return \\\'#82cde2\\\';\\n                    } else if (weight < 130) {\\n                        return \\\'#213558\\\';\\n                    }\\n                    return \\\'#ff0052\\\';\\n                },\\n                backgroundColor: \\\'transparent\\\'\\n            });\\n        }\\n\\n        function drawNuages() {\\n            showNuage(\\\'noms\\\');\\n            showNuage(\\\'verbes\\\');\\n        }\\n\\n        // Calendrier\\n        function genCalendar() {\\n            var width = document.getElementById(\\\'calendar\\\').offsetWidth+20,\\n                yearHeight = width / 7,\\n                height = yearHeight,\\n                cellSize = yearHeight / 8;\\n\\n            var percent = d3.format(".1%"),\\n                format = d3.timeFormat("%Y-%m-%d");\\n\\n            var color = d3.scaleQuantize()\\n                .domain([.0, 1.0])\\n                .range(d3.range(5).map(function(d) { return "q" + d + "-5"; }));\\n\\n            var svgcal = d3.select("#calendar").selectAll("svg")\\n                .data(d3.range(2017, 2018))\\n              .enter().append("svg")\\n                .attr("width", width)\\n                .attr("height", height+20)\\n                .attr("class", "RdYlGn")\\n              .append("g")\\n                .attr("transform", "translate(" + ((width - cellSize * 53) / 2) + "," + (20+height - cellSize * 7 - 1) + ")");\\n\\n            svgcal.append("text")\\n                .attr("transform", "translate(-6," + cellSize * 3.5 + ")rotate(-90)")\\n                .style("text-anchor", "middle")\\n                .text(function(d) { return d; });\\n\\n            var rect = svgcal.selectAll(".day")\\n                .data(function(d) { return d3.timeDays(new Date(d, 0, 1), new Date(d + 1, 0, 1)); })\\n              .enter().append("rect")\\n                .attr("class", "day")\\n                .attr("width", cellSize)\\n                .attr("height", cellSize)\\n                .attr("x", function(d) { return d3.timeMonday.count(d3.timeYear(d), d) * cellSize; })\\n                .attr("y", function(d) { return ((d.getDay()+6)%7) * cellSize; })\\n                .datum(format);\\n\\n            rect.append("title")\\n                .text(function(d) { return d; });\\n\\n            svgcal.selectAll(".month")\\n                .data(function(d) { return d3.timeMonths(new Date(d, 0, 1), new Date(d + 1, 0, 1)); })\\n              .enter().append("text").text(monthLabel).style("font-size:10px;", "middle").attr("transform",monthLabelTransform);\\n            function monthLabel(t0) {\\n                return Array(\\\'JAN\\\',\\\'FEV\\\',\\\'MAR\\\',\\\'AVR\\\',\\\'MAI\\\',\\\'JUN\\\',\\\'JUI\\\',\\\'AOU\\\',\\\'SEP\\\',\\\'OCT\\\',\\\'NOV\\\',\\\'DEC\\\')[t0.getMonth()];\\n            }\\n            function monthLabelTransform(t0) {\\n              var t1 = new Date(t0.getFullYear(), t0.getMonth() + 1, 0),\\n                  d0 = ((t0.getDay()+6)%7), w0 = d3.timeMonday.count(d3.timeYear(t0), t0)\\n                  d1 = ((t1.getDay()+6)%7), w1 = d3.timeMonday.count(d3.timeYear(t1), t1);\\n              return "translate("+(2+w0)*cellSize+",-5)";\\n            }\\n\\n            svgcal.selectAll(".month")\\n                .data(function(d) { return d3.timeMonths(new Date(d, 0, 1), new Date(d + 1, 0, 1)); })\\n              .enter().append("path")\\n                .attr("class", "month")\\n                .attr("d", monthPath);\\n\\n\\n            var csv = JSON.parse(\\\'[{"date": "2017-07-04", "pct": 1.0}, {"date": "2017-07-06", "pct": 0.0}, {"date": "2017-07-10", "pct": 1.0}, {"date": "2017-07-11", "pct": 0.9411764705882353}, {"date": "2017-07-12", "pct": 0.6666666666666666}, {"date": "2017-07-13", "pct": 0.8333333333333334}, {"date": "2017-07-18", "pct": 0.5}, {"date": "2017-07-19", "pct": 0.0}, {"date": "2017-07-24", "pct": 1.0}, {"date": "2017-07-25", "pct": 0.23076923076923078}, {"date": "2017-07-26", "pct": 0.0}, {"date": "2017-07-27", "pct": 0.375}, {"date": "2017-07-28", "pct": 0.6}, {"date": "2017-08-01", "pct": 1.0}, {"date": "2017-08-03", "pct": 0.5454545454545454}, {"date": "2017-08-09", "pct": 1.0}]\\\');\\n            var data = d3.nest()\\n                .key(function(d) { return d.date; })\\n                .rollup(function(d) { return d[0].pct; })\\n                .map(csv);\\n\\n              rect.filter(function(d) { return data.has(d); })\\n                  .attr("class", function(d) { return "day " + color(data.get(d)); })\\n                .select("title")\\n                  .text(function(d) { return d + ": " + percent(data.get(d)); });\\n\\n            function monthPath(t0) {\\n              var t1 = new Date(t0.getFullYear(), t0.getMonth() + 1, 0),\\n                  d0 = ((t0.getDay()+6)%7), w0 = d3.timeMonday.count(d3.timeYear(t0), t0)\\n                  d1 = ((t1.getDay()+6)%7), w1 = d3.timeMonday.count(d3.timeYear(t1), t1);\\n              return "M" + (w0 + 1) * cellSize + "," + d0 * cellSize\\n                  + "H" + w0 * cellSize + "V" + 7 * cellSize\\n                  + "H" + w1 * cellSize + "V" + (d1 + 1) * cellSize\\n                  + "H" + (w1 + 1) * cellSize + "V" + 0\\n                  + "H" + (w0 + 1) * cellSize + "Z";\\n            }\\n        }\\n\\n        drawNuages();\\n        genCalendar();\\n        var resizeDebounce;\\n        $(window).resize(function() {\\n            clearTimeout(resizeDebounce);\\n            resizeDebounce = setTimeout(function() {\\n                window.requestAnimationFrame(function() {\\n                    drawNuages();\\n                    $(\\\'#calendar svg\\\').remove();\\n                    genCalendar();\\n                });\\n            }, 100);\\n        });\\n    });\\n    </script>\\n\', escape=False)\nresponse.write(\'\\n</body>\\n</html>\\n\', escape=False)'
p7
sS'snapshot'
p8
(dp9
S'exception'
p10
(dp11
S'__getslice__'
p12
S"<method-wrapper '__getslice__' of exceptions.SyntaxError object>"
p13
sS'text'
p14
S'"genres = {\'loi\':\'e\',\'motion\':e\'}\\n"'
p15
sS'__str__'
p16
S"<method-wrapper '__str__' of exceptions.SyntaxError object>"
p17
sS'__reduce__'
p18
S'<built-in method __reduce__ of exceptions.SyntaxError object>'
p19
sS'__dict__'
p20
S'{}'
p21
sS'__sizeof__'
p22
S'<built-in method __sizeof__ of exceptions.SyntaxError object>'
p23
sS'message'
p24
S"''"
p25
sS'__init__'
p26
S"<method-wrapper '__init__' of exceptions.SyntaxError object>"
p27
sS'__setattr__'
p28
S"<method-wrapper '__setattr__' of exceptions.SyntaxError object>"
p29
sS'__reduce_ex__'
p30
S'<built-in method __reduce_ex__ of exceptions.SyntaxError object>'
p31
sS'__new__'
p32
S'<built-in method __new__ of type object>'
p33
sS'__format__'
p34
S'<built-in method __format__ of exceptions.SyntaxError object>'
p35
sS'__class__'
p36
S"<type 'exceptions.SyntaxError'>"
p37
sS'filename'
p38
S"'<string>'"
p39
sS'lineno'
p40
S'139'
p41
sS'msg'
p42
S"'EOL while scanning string literal'"
p43
sS'__doc__'
p44
S"'Invalid syntax.'"
p45
sS'__getitem__'
p46
S"<method-wrapper '__getitem__' of exceptions.SyntaxError object>"
p47
sS'__setstate__'
p48
S'<built-in method __setstate__ of exceptions.SyntaxError object>'
p49
sS'__getattribute__'
p50
S"<method-wrapper '__getattribute__' of exceptions.SyntaxError object>"
p51
sS'print_file_and_line'
p52
S'None'
p53
sS'args'
p54
S'(\'EOL while scanning string literal\', (\'<string>\', 139, 32, "genres = {\'loi\':\'e\',\'motion\':e\'}\\n"))'
p55
sS'__subclasshook__'
p56
S'<built-in method __subclasshook__ of type object>'
p57
sS'offset'
p58
S'32'
p59
sS'__unicode__'
p60
S'<built-in method __unicode__ of exceptions.SyntaxError object>'
p61
sS'__delattr__'
p62
S"<method-wrapper '__delattr__' of exceptions.SyntaxError object>"
p63
sS'__repr__'
p64
S"<method-wrapper '__repr__' of exceptions.SyntaxError object>"
p65
sS'__hash__'
p66
S"<method-wrapper '__hash__' of exceptions.SyntaxError object>"
p67
ssS'evalue'
p68
S'EOL while scanning string literal (<string>, line 139)'
p69
sS'request'
p70
cgluon.html
XML_unpickle
p71
(S'sz{\x00\x00<div><table><tr><td style="font-weight:bold;vertical-align:top;">ajax</td><td style="vertical-align:top;">:</td><td><div>False</div></td></tr><tr><td style="font-weight:bold;vertical-align:top;">application</td><td style="vertical-align:top;">:</td><td><div>oadev</div></td></tr><tr><td style="font-weight:bold;vertical-align:top;">args</td><td style="vertical-align:top;">:</td><td><div><table><tr><td><div>jeanlucmelenchon</div></td></tr></table></div></td></tr><tr><td style="font-weight:bold;vertical-align:top;">cid</td><td style="vertical-align:top;">:</td><td><div>None</div></td></tr><tr><td style="font-weight:bold;vertical-align:top;">client</td><td style="vertical-align:top;">:</td><td><div>83.203.181.3</div></td></tr><tr><td style="font-weight:bold;vertical-align:top;">controller</td><td style="vertical-align:top;">:</td><td><div>depute</div></td></tr><tr><td style="font-weight:bold;vertical-align:top;">cookies</td><td style="vertical-align:top;">:</td><td><div><table><tr><td style="font-weight:bold;vertical-align:top;">session_id_admin</td><td style="vertical-align:top;">:</td><td><div>83.203.170.106-62f39627-f7d7-4927-a80b-f6a1100be47c<table><tr><td style="font-weight:bold;vertical-align:top;">comment</td><td style="vertical-align:top;">:</td><td><div></div></td></tr><tr><td style="font-weight:bold;vertical-align:top;">domain</td><td style="vertical-align:top;">:</td><td><div></div></td></tr><tr><td style="font-weight:bold;vertical-align:top;">expires</td><td style="vertical-align:top;">:</td><td><div></div></td></tr><tr><td style="font-weight:bold;vertical-align:top;">httponly</td><td style="vertical-align:top;">:</td><td><div></div></td></tr><tr><td style="font-weight:bold;vertical-align:top;">max-age</td><td style="vertical-align:top;">:</td><td><div></div></td></tr><tr><td style="font-weight:bold;vertical-align:top;">path</td><td style="vertical-align:top;">:</td><td><div></div></td></tr><tr><td style="font-weight:bold;vertical-align:top;">secure</td><td style="vertical-align:top;">:</td><td><div></div></td></tr><tr><td style="font-weight:bold;vertical-align:top;">version</td><td style="vertical-align:top;">:</td><td><div></div></td></tr></table></div></td></tr><tr><td style="font-weight:bold;vertical-align:top;">session_id_oadev</td><td style="vertical-align:top;">:</td><td><div>83.203.181.3-970fd6a8-0fc7-484a-8835-b630bebf1c9b<table><tr><td style="font-weight:bold;vertical-align:top;">comment</td><td style="vertical-align:top;">:</td><td><div></div></td></tr><tr><td style="font-weight:bold;vertical-align:top;">domain</td><td style="vertical-align:top;">:</td><td><div></div></td></tr><tr><td style="font-weight:bold;vertical-align:top;">expires</td><td style="vertical-align:top;">:</td><td><div></div></td></tr><tr><td style="font-weight:bold;vertical-align:top;">httponly</td><td style="vertical-align:top;">:</td><td><div></div></td></tr><tr><td style="font-weight:bold;vertical-align:top;">max-age</td><td style="vertical-align:top;">:</td><td><div></div></td></tr><tr><td style="font-weight:bold;vertical-align:top;">path</td><td style="vertical-align:top;">:</td><td><div></div></td></tr><tr><td style="font-weight:bold;vertical-align:top;">secure</td><td style="vertical-align:top;">:</td><td><div></div></td></tr><tr><td style="font-weight:bold;vertical-align:top;">version</td><td style="vertical-align:top;">:</td><td><div></div></td></tr></table></div></td></tr><tr><td style="font-weight:bold;vertical-align:top;">session_id_obsas_dev</td><td style="vertical-align:top;">:</td><td><div>83.203.181.3-57a24510-38a1-4c30-964a-208f8cd44b77<table><tr><td style="font-weight:bold;vertical-align:top;">comment</td><td style="vertical-align:top;">:</td><td><div></div></td></tr><tr><td style="font-weight:bold;vertical-align:top;">domain</td><td style="vertical-align:top;">:</td><td><div></div></td></tr><tr><td style="font-weight:bold;vertical-align:top;">expires</td><td style="vertical-align:top;">:</td><td><div></div></td></tr><tr><td style="font-weight:bold;vertical-align:top;">httponly</td><td style="vertical-align:top;">:</td><td><div></div></td></tr><tr><td style="font-weight:bold;vertical-align:top;">max-age</td><td style="vertical-align:top;">:</td><td><div></div></td></tr><tr><td style="font-weight:bold;vertical-align:top;">path</td><td style="vertical-align:top;">:</td><td><div></div></td></tr><tr><td style="font-weight:bold;vertical-align:top;">secure</td><td style="vertical-align:top;">:</td><td><div></div></td></tr><tr><td style="font-weight:bold;vertical-align:top;">version</td><td style="vertical-align:top;">:</td><td><div></div></td></tr></table></div></td></tr><tr><td style="font-weight:bold;vertical-align:top;">session_id_observatoireassemblee</td><td style="vertical-align:top;">:</td><td><div>83.203.170.41-820d7db2-0294-4aae-b786-6391edb8bfee<table><tr><td style="font-weight:bold;vertical-align:top;">comment</td><td style="vertical-align:top;">:</td><td><div></div></td></tr><tr><td style="font-weight:bold;vertical-align:top;">domain</td><td style="vertical-align:top;">:</td><td><div></div></td></tr><tr><td style="font-weight:bold;vertical-align:top;">expires</td><td style="vertical-align:top;">:</td><td><div></div></td></tr><tr><td style="font-weight:bold;vertical-align:top;">httponly</td><td style="vertical-align:top;">:</td><td><div></div></td></tr><tr><td style="font-weight:bold;vertical-align:top;">max-age</td><td style="vertical-align:top;">:</td><td><div></div></td></tr><tr><td style="font-weight:bold;vertical-align:top;">path</td><td style="vertical-align:top;">:</td><td><div></div></td></tr><tr><td style="font-weight:bold;vertical-align:top;">secure</td><td style="vertical-align:top;">:</td><td><div></div></td></tr><tr><td style="font-weight:bold;vertical-align:top;">version</td><td style="vertical-align:top;">:</td><td><div></div></td></tr></table></div></td></tr></table></div></td></tr><tr><td style="font-weight:bold;vertical-align:top;">env</td><td style="vertical-align:top;">:</td><td><div><table><tr><td style="font-weight:bold;vertical-align:top;">CONTEXT_DOCUMENT_ROOT</td><td style="vertical-align:top;">:</td><td><div>/var/www/html</div></td></tr><tr><td style="font-weight:bold;vertical-align:top;">CONTEXT_PREFIX</td><td style="vertical-align:top;">:</td><td><div></div></td></tr><tr><td style="font-weight:bold;vertical-align:top;">DOCUMENT_ROOT</td><td style="vertical-align:top;">:</td><td><div>/var/www/html</div></td></tr><tr><td style="font-weight:bold;vertical-align:top;">GATEWAY_INTERFACE</td><td style="vertical-align:top;">:</td><td><div>CGI/1.1</div></td></tr><tr><td style="font-weight:bold;vertical-align:top;">HTTP_ACCEPT</td><td style="vertical-align:top;">:</td><td><div>text/html,application/xhtml+xml,application/xml;q=0.9,image/webp,image/apng,*/*;q=0.8</div></td></tr><tr><td style="font-weight:bold;vertical-align:top;">HTTP_ACCEPT_ENCODING</td><td style="vertical-align:top;">:</td><td><div>gzip, deflate, br</div></td></tr><tr><td style="font-weight:bold;vertical-align:top;">HTTP_ACCEPT_LANGUAGE</td><td style="vertical-align:top;">:</td><td><div>fr-FR,fr;q=0.8,en-US;q=0.6,en;q=0.4</div></td></tr><tr><td style="font-weight:bold;vertical-align:top;">HTTP_CACHE_CONTROL</td><td style="vertical-align:top;">:</td><td><div>max-age=0</div></td></tr><tr><td style="font-weight:bold;vertical-align:top;">HTTP_CONNECTION</td><td style="vertical-align:top;">:</td><td><div>keep-alive</div></td></tr><tr><td style="font-weight:bold;vertical-align:top;">HTTP_COOKIE</td><td style="vertical-align:top;">:</td><td><div>session_id_observatoireassemblee=83.203.170.41-820d7db2-0294-4aae-b786-6391edb8bfee; session_id_obsas_dev=83.203.181.3-57a24510-38a1-4c30-964a-208f8cd44b77; session_id_admin=83.203.170.106-62f39627-f7d7-4927-a80b-f6a1100be47c; session_id_oadev=83.203.181.3-970fd6a8-0fc7-484a-8835-b630bebf1c9b</div></td></tr><tr><td style="font-weight:bold;vertical-align:top;">HTTP_HOST</td><td style="vertical-align:top;">:</td><td><div>admin.obsas.orvdev.fr</div></td></tr><tr><td style="font-weight:bold;vertical-align:top;">HTTP_UPGRADE_INSECURE_REQUESTS</td><td style="vertical-align:top;">:</td><td><div>1</div></td></tr><tr><td style="font-weight:bold;vertical-align:top;">HTTP_USER_AGENT</td><td style="vertical-align:top;">:</td><td><div>Mozilla/5.0 (X11; Linux x86_64) AppleWebKit/537.36 (KHTML, like Gecko) Chrome/60.0.3112.101 Safari/537.36</div></td></tr><tr><td style="font-weight:bold;vertical-align:top;">PATH_INFO</td><td style="vertical-align:top;">:</td><td><div>/oadev/depute/index/jeanlucmelenchon</div></td></tr><tr><td style="font-weight:bold;vertical-align:top;">PATH_TRANSLATED</td><td style="vertical-align:top;">:</td><td><div>/home/www-data/web2py/wsgihandler.py/oadev/depute/index/jeanlucmelenchon</div></td></tr><tr><td style="font-weight:bold;vertical-align:top;">QUERY_STRING</td><td style="vertical-align:top;">:</td><td><div></div></td></tr><tr><td style="font-weight:bold;vertical-align:top;">REMOTE_ADDR</td><td style="vertical-align:top;">:</td><td><div>83.203.181.3</div></td></tr><tr><td style="font-weight:bold;vertical-align:top;">REMOTE_PORT</td><td style="vertical-align:top;">:</td><td><div>42364</div></td></tr><tr><td style="font-weight:bold;vertical-align:top;">REQUEST_METHOD</td><td style="vertical-align:top;">:</td><td><div>GET</div></td></tr><tr><td style="font-weight:bold;vertical-align:top;">REQUEST_SCHEME</td><td style="vertical-align:top;">:</td><td><div>https</div></td></tr><tr><td style="font-weight:bold;vertical-align:top;">REQUEST_URI</td><td style="vertical-align:top;">:</td><td><div>/oadev/depute/index/jeanlucmelenchon</div></td></tr><tr><td style="font-weight:bold;vertical-align:top;">SCRIPT_FILENAME</td><td style="vertical-align:top;">:</td><td><div>/home/www-data/web2py/wsgihandler.py</div></td></tr><tr><td style="font-weight:bold;vertical-align:top;">SCRIPT_NAME</td><td style="vertical-align:top;">:</td><td><div></div></td></tr><tr><td style="font-weight:bold;vertical-align:top;">SERVER_ADDR</td><td style="vertical-align:top;">:</td><td><div>151.80.57.169</div></td></tr><tr><td style="font-weight:bold;vertical-align:top;">SERVER_ADMIN</td><td style="vertical-align:top;">:</td><td><div>[no address given]</div></td></tr><tr><td style="font-weight:bold;vertical-align:top;">SERVER_NAME</td><td style="vertical-align:top;">:</td><td><div>admin.obsas.orvdev.fr</div></td></tr><tr><td style="font-weight:bold;vertical-align:top;">SERVER_PORT</td><td style="vertical-align:top;">:</td><td><div>443</div></td></tr><tr><td style="font-weight:bold;vertical-align:top;">SERVER_PROTOCOL</td><td style="vertical-align:top;">:</td><td><div>HTTP/1.1</div></td></tr><tr><td style="font-weight:bold;vertical-align:top;">SERVER_SIGNATURE</td><td style="vertical-align:top;">:</td><td><div>&lt;address&gt;Apache/2.4.18 (Ubuntu) Server at admin.obsas.orvdev.fr Port 443&lt;/address&gt;\n</div></td></tr><tr><td style="font-weight:bold;vertical-align:top;">SERVER_SOFTWARE</td><td style="vertical-align:top;">:</td><td><div>Apache/2.4.18 (Ubuntu)</div></td></tr><tr><td style="font-weight:bold;vertical-align:top;">SSL_TLS_SNI</td><td style="vertical-align:top;">:</td><td><div>admin.obsas.orvdev.fr</div></td></tr><tr><td style="font-weight:bold;vertical-align:top;">apache.version</td><td style="vertical-align:top;">:</td><td><div><table><tr><td><div>2</div></td></tr><tr><td><div>4</div></td></tr><tr><td><div>18</div></td></tr></table></div></td></tr><tr><td style="font-weight:bold;vertical-align:top;">apache_version</td><td style="vertical-align:top;">:</td><td><div><table><tr><td><div>2</div></td></tr><tr><td><div>4</div></td></tr><tr><td><div>18</div></td></tr></table></div></td></tr><tr><td style="font-weight:bold;vertical-align:top;">app_folders</td><td style="vertical-align:top;">:</td><td><div>set([&#x27;/home/www-data/web2py/applications/observatoireassemblee/&#x27;, &#x27;/home/www-data/web2py/applications/obsas_dev/&#x27;, &#x27;/home/www-data/web2py/applications/admin/&#x27;, &#x27;/home/www-data/web2py/applications/oadev/&#x27;])</div></td></tr><tr><td style="font-weight:bold;vertical-align:top;">applications_parent</td><td style="vertical-align:top;">:</td><td><div>/home/www-data/web2py</div></td></tr><tr><td style="font-weight:bold;vertical-align:top;">context_document_root</td><td style="vertical-align:top;">:</td><td><div>/var/www/html</div></td></tr><tr><td style="font-weight:bold;vertical-align:top;">context_prefix</td><td style="vertical-align:top;">:</td><td><div></div></td></tr><tr><td style="font-weight:bold;vertical-align:top;">db_sessions</td><td style="vertical-align:top;">:</td><td><div>set([])</div></td></tr><tr><td style="font-weight:bold;vertical-align:top;">debugging</td><td style="vertical-align:top;">:</td><td><div>True</div></td></tr><tr><td style="font-weight:bold;vertical-align:top;">document_root</td><td style="vertical-align:top;">:</td><td><div>/var/www/html</div></td></tr><tr><td style="font-weight:bold;vertical-align:top;">gateway_interface</td><td style="vertical-align:top;">:</td><td><div>CGI/1.1</div></td></tr><tr><td style="font-weight:bold;vertical-align:top;">gluon_parent</td><td style="vertical-align:top;">:</td><td><div>/home/www-data/web2py</div></td></tr><tr><td style="font-weight:bold;vertical-align:top;">http_accept</td><td style="vertical-align:top;">:</td><td><div>text/html,application/xhtml+xml,application/xml;q=0.9,image/webp,image/apng,*/*;q=0.8</div></td></tr><tr><td style="font-weight:bold;vertical-align:top;">http_accept_encoding</td><td style="vertical-align:top;">:</td><td><div>gzip, deflate, br</div></td></tr><tr><td style="font-weight:bold;vertical-align:top;">http_accept_language</td><td style="vertical-align:top;">:</td><td><div>fr-FR,fr;q=0.8,en-US;q=0.6,en;q=0.4</div></td></tr><tr><td style="font-weight:bold;vertical-align:top;">http_cache_control</td><td style="vertical-align:top;">:</td><td><div>max-age=0</div></td></tr><tr><td style="font-weight:bold;vertical-align:top;">http_connection</td><td style="vertical-align:top;">:</td><td><div>keep-alive</div></td></tr><tr><td style="font-weight:bold;vertical-align:top;">http_cookie</td><td style="vertical-align:top;">:</td><td><div>session_id_observatoireassemblee=83.203.170.41-820d7db2-0294-4aae-b786-6391edb8bfee; session_id_obsas_dev=83.203.181.3-57a24510-38a1-4c30-964a-208f8cd44b77; session_id_admin=83.203.170.106-62f39627-f7d7-4927-a80b-f6a1100be47c; session_id_oadev=83.203.181.3-970fd6a8-0fc7-484a-8835-b630bebf1c9b</div></td></tr><tr><td style="font-weight:bold;vertical-align:top;">http_host</td><td style="vertical-align:top;">:</td><td><div>admin.obsas.orvdev.fr</div></td></tr><tr><td style="font-weight:bold;vertical-align:top;">http_upgrade_insecure_requests</td><td style="vertical-align:top;">:</td><td><div>1</div></td></tr><tr><td style="font-weight:bold;vertical-align:top;">http_user_agent</td><td style="vertical-align:top;">:</td><td><div>Mozilla/5.0 (X11; Linux x86_64) AppleWebKit/537.36 (KHTML, like Gecko) Chrome/60.0.3112.101 Safari/537.36</div></td></tr><tr><td style="font-weight:bold;vertical-align:top;">is_jython</td><td style="vertical-align:top;">:</td><td><div>False</div></td></tr><tr><td style="font-weight:bold;vertical-align:top;">is_py2</td><td style="vertical-align:top;">:</td><td><div>True</div></td></tr><tr><td style="font-weight:bold;vertical-align:top;">is_pypy</td><td style="vertical-align:top;">:</td><td><div>False</div></td></tr><tr><td style="font-weight:bold;vertical-align:top;">is_source</td><td style="vertical-align:top;">:</td><td><div>True</div></td></tr><tr><td style="font-weight:bold;vertical-align:top;">local_hosts</td><td style="vertical-align:top;">:</td><td><div><table><tr><td><div>vps433020</div></td></tr><tr><td><div>::ffff:127.0.0.1</div></td></tr><tr><td><div>::1</div></td></tr><tr><td><div>151.80.57.169</div></td></tr><tr><td><div>vps433020.ovh.net</div></td></tr><tr><td><div>127.0.1.1</div></td></tr><tr><td><div>admin.obsas.orvdev.fr</div></td></tr><tr><td><div>127.0.0.1</div></td></tr></table></div></td></tr><tr><td style="font-weight:bold;vertical-align:top;">mod_wsgi.application_group</td><td style="vertical-align:top;">:</td><td><div></div></td></tr><tr><td style="font-weight:bold;vertical-align:top;">mod_wsgi.callable_object</td><td style="vertical-align:top;">:</td><td><div>application</div></td></tr><tr><td style="font-weight:bold;vertical-align:top;">mod_wsgi.daemon_connects</td><td style="vertical-align:top;">:</td><td><div>1</div></td></tr><tr><td style="font-weight:bold;vertical-align:top;">mod_wsgi.daemon_restarts</td><td style="vertical-align:top;">:</td><td><div>0</div></td></tr><tr><td style="font-weight:bold;vertical-align:top;">mod_wsgi.daemon_start</td><td style="vertical-align:top;">:</td><td><div>1505685112829606</div></td></tr><tr><td style="font-weight:bold;vertical-align:top;">mod_wsgi.enable_sendfile</td><td style="vertical-align:top;">:</td><td><div>0</div></td></tr><tr><td style="font-weight:bold;vertical-align:top;">mod_wsgi.handler_script</td><td style="vertical-align:top;">:</td><td><div></div></td></tr><tr><td style="font-weight:bold;vertical-align:top;">mod_wsgi.input_chunked</td><td style="vertical-align:top;">:</td><td><div>0</div></td></tr><tr><td style="font-weight:bold;vertical-align:top;">mod_wsgi.listener_host</td><td style="vertical-align:top;">:</td><td><div></div></td></tr><tr><td style="font-weight:bold;vertical-align:top;">mod_wsgi.listener_port</td><td style="vertical-align:top;">:</td><td><div>443</div></td></tr><tr><td style="font-weight:bold;vertical-align:top;">mod_wsgi.process_group</td><td style="vertical-align:top;">:</td><td><div>obsasadm</div></td></tr><tr><td style="font-weight:bold;vertical-align:top;">mod_wsgi.queue_start</td><td style="vertical-align:top;">:</td><td><div>1505685112829453</div></td></tr><tr><td style="font-weight:bold;vertical-align:top;">mod_wsgi.request_handler</td><td style="vertical-align:top;">:</td><td><div>wsgi-script</div></td></tr><tr><td style="font-weight:bold;vertical-align:top;">mod_wsgi.request_start</td><td style="vertical-align:top;">:</td><td><div>1505685112828801</div></td></tr><tr><td style="font-weight:bold;vertical-align:top;">mod_wsgi.script_reloading</td><td style="vertical-align:top;">:</td><td><div>1</div></td></tr><tr><td style="font-weight:bold;vertical-align:top;">mod_wsgi.script_start</td><td style="vertical-align:top;">:</td><td><div>1505685112829647</div></td></tr><tr><td style="font-weight:bold;vertical-align:top;">mod_wsgi.version</td><td style="vertical-align:top;">:</td><td><div><table><tr><td><div>4</div></td></tr><tr><td><div>3</div></td></tr><tr><td><div>0</div></td></tr></table></div></td></tr><tr><td style="font-weight:bold;vertical-align:top;">mod_wsgi_application_group</td><td style="vertical-align:top;">:</td><td><div></div></td></tr><tr><td style="font-weight:bold;vertical-align:top;">mod_wsgi_callable_object</td><td style="vertical-align:top;">:</td><td><div>application</div></td></tr><tr><td style="font-weight:bold;vertical-align:top;">mod_wsgi_daemon_connects</td><td style="vertical-align:top;">:</td><td><div>1</div></td></tr><tr><td style="font-weight:bold;vertical-align:top;">mod_wsgi_daemon_restarts</td><td style="vertical-align:top;">:</td><td><div>0</div></td></tr><tr><td style="font-weight:bold;vertical-align:top;">mod_wsgi_daemon_start</td><td style="vertical-align:top;">:</td><td><div>1505685112829606</div></td></tr><tr><td style="font-weight:bold;vertical-align:top;">mod_wsgi_enable_sendfile</td><td style="vertical-align:top;">:</td><td><div>0</div></td></tr><tr><td style="font-weight:bold;vertical-align:top;">mod_wsgi_handler_script</td><td style="vertical-align:top;">:</td><td><div></div></td></tr><tr><td style="font-weight:bold;vertical-align:top;">mod_wsgi_input_chunked</td><td style="vertical-align:top;">:</td><td><div>0</div></td></tr><tr><td style="font-weight:bold;vertical-align:top;">mod_wsgi_listener_host</td><td style="vertical-align:top;">:</td><td><div></div></td></tr><tr><td style="font-weight:bold;vertical-align:top;">mod_wsgi_listener_port</td><td style="vertical-align:top;">:</td><td><div>443</div></td></tr><tr><td style="font-weight:bold;vertical-align:top;">mod_wsgi_process_group</td><td style="vertical-align:top;">:</td><td><div>obsasadm</div></td></tr><tr><td style="font-weight:bold;vertical-align:top;">mod_wsgi_queue_start</td><td style="vertical-align:top;">:</td><td><div>1505685112829453</div></td></tr><tr><td style="font-weight:bold;vertical-align:top;">mod_wsgi_request_handler</td><td style="vertical-align:top;">:</td><td><div>wsgi-script</div></td></tr><tr><td style="font-weight:bold;vertical-align:top;">mod_wsgi_request_start</td><td style="vertical-align:top;">:</td><td><div>1505685112828801</div></td></tr><tr><td style="font-weight:bold;vertical-align:top;">mod_wsgi_script_reloading</td><td style="vertical-align:top;">:</td><td><div>1</div></td></tr><tr><td style="font-weight:bold;vertical-align:top;">mod_wsgi_script_start</td><td style="vertical-align:top;">:</td><td><div>1505685112829647</div></td></tr><tr><td style="font-weight:bold;vertical-align:top;">mod_wsgi_version</td><td style="vertical-align:top;">:</td><td><div><table><tr><td><div>4</div></td></tr><tr><td><div>3</div></td></tr><tr><td><div>0</div></td></tr></table></div></td></tr><tr><td style="font-weight:bold;vertical-align:top;">nokeepalive</td><td style="vertical-align:top;">:</td><td><div>ssl-unclean-shutdown</div></td></tr><tr><td style="font-weight:bold;vertical-align:top;">path_info</td><td style="vertical-align:top;">:</td><td><div>/oadev/depute/index/jeanlucmelenchon</div></td></tr><tr><td style="font-weight:bold;vertical-align:top;">path_translated</td><td style="vertical-align:top;">:</td><td><div>/home/www-data/web2py/wsgihandler.py/oadev/depute/index/jeanlucmelenchon</div></td></tr><tr><td style="font-weight:bold;vertical-align:top;">query_string</td><td style="vertical-align:top;">:</td><td><div></div></td></tr><tr><td style="font-weight:bold;vertical-align:top;">remote_addr</td><td style="vertical-align:top;">:</td><td><div>83.203.181.3</div></td></tr><tr><td style="font-weight:bold;vertical-align:top;">remote_port</td><td style="vertical-align:top;">:</td><td><div>42364</div></td></tr><tr><td style="font-weight:bold;vertical-align:top;">request_method</td><td style="vertical-align:top;">:</td><td><div>GET</div></td></tr><tr><td style="font-weight:bold;vertical-align:top;">request_scheme</td><td style="vertical-align:top;">:</td><td><div>https</div></td></tr><tr><td style="font-weight:bold;vertical-align:top;">request_uri</td><td style="vertical-align:top;">:</td><td><div>/oadev/depute/index/jeanlucmelenchon</div></td></tr><tr><td style="font-weight:bold;vertical-align:top;">script_filename</td><td style="vertical-align:top;">:</td><td><div>/home/www-data/web2py/wsgihandler.py</div></td></tr><tr><td style="font-weight:bold;vertical-align:top;">script_name</td><td style="vertical-align:top;">:</td><td><div></div></td></tr><tr><td style="font-weight:bold;vertical-align:top;">server_addr</td><td style="vertical-align:top;">:</td><td><div>151.80.57.169</div></td></tr><tr><td style="font-weight:bold;vertical-align:top;">server_admin</td><td style="vertical-align:top;">:</td><td><div>[no address given]</div></td></tr><tr><td style="font-weight:bold;vertical-align:top;">server_name</td><td style="vertical-align:top;">:</td><td><div>admin.obsas.orvdev.fr</div></td></tr><tr><td style="font-weight:bold;vertical-align:top;">server_port</td><td style="vertical-align:top;">:</td><td><div>443</div></td></tr><tr><td style="font-weight:bold;vertical-align:top;">server_protocol</td><td style="vertical-align:top;">:</td><td><div>HTTP/1.1</div></td></tr><tr><td style="font-weight:bold;vertical-align:top;">server_signature</td><td style="vertical-align:top;">:</td><td><div>&lt;address&gt;Apache/2.4.18 (Ubuntu) Server at admin.obsas.orvdev.fr Port 443&lt;/address&gt;\n</div></td></tr><tr><td style="font-weight:bold;vertical-align:top;">server_software</td><td style="vertical-align:top;">:</td><td><div>Apache/2.4.18 (Ubuntu)</div></td></tr><tr><td style="font-weight:bold;vertical-align:top;">ssl_tls_sni</td><td style="vertical-align:top;">:</td><td><div>admin.obsas.orvdev.fr</div></td></tr><tr><td style="font-weight:bold;vertical-align:top;">web2py_original_uri</td><td style="vertical-align:top;">:</td><td><div>/oadev/depute/index/jeanlucmelenchon</div></td></tr><tr><td style="font-weight:bold;vertical-align:top;">web2py_path</td><td style="vertical-align:top;">:</td><td><div>/home/www-data/web2py</div></td></tr><tr><td style="font-weight:bold;vertical-align:top;">web2py_version</td><td style="vertical-align:top;">:</td><td><div>2.15.1-stable+timestamp.2017.07.10.21.25.06</div></td></tr><tr><td style="font-weight:bold;vertical-align:top;">wsgi.errors</td><td style="vertical-align:top;">:</td><td><div>&lt;mod_wsgi.Log object at 0x7f0847cb0fa8&gt;</div></td></tr><tr><td style="font-weight:bold;vertical-align:top;">wsgi.file_wrapper</td><td style="vertical-align:top;">:</td><td><div>&lt;type &#x27;mod_wsgi.FileWrapper&#x27;&gt;</div></td></tr><tr><td style="font-weight:bold;vertical-align:top;">wsgi.input</td><td style="vertical-align:top;">:</td><td><div>&lt;mod_wsgi.Input object at 0x7f086b78a3f0&gt;</div></td></tr><tr><td style="font-weight:bold;vertical-align:top;">wsgi.multiprocess</td><td style="vertical-align:top;">:</td><td><div>False</div></td></tr><tr><td style="font-weight:bold;vertical-align:top;">wsgi.multithread</td><td style="vertical-align:top;">:</td><td><div>True</div></td></tr><tr><td style="font-weight:bold;vertical-align:top;">wsgi.run_once</td><td style="vertical-align:top;">:</td><td><div>False</div></td></tr><tr><td style="font-weight:bold;vertical-align:top;">wsgi.url_scheme</td><td style="vertical-align:top;">:</td><td><div>https</div></td></tr><tr><td style="font-weight:bold;vertical-align:top;">wsgi.version</td><td style="vertical-align:top;">:</td><td><div><table><tr><td><div>1</div></td></tr><tr><td><div>0</div></td></tr></table></div></td></tr><tr><td style="font-weight:bold;vertical-align:top;">wsgi_errors</td><td style="vertical-align:top;">:</td><td><div>&lt;mod_wsgi.Log object at 0x7f0847cb0fa8&gt;</div></td></tr><tr><td style="font-weight:bold;vertical-align:top;">wsgi_file_wrapper</td><td style="vertical-align:top;">:</td><td><div>&lt;type &#x27;mod_wsgi.FileWrapper&#x27;&gt;</div></td></tr><tr><td style="font-weight:bold;vertical-align:top;">wsgi_input</td><td style="vertical-align:top;">:</td><td><div>&lt;mod_wsgi.Input object at 0x7f086b78a3f0&gt;</div></td></tr><tr><td style="font-weight:bold;vertical-align:top;">wsgi_multiprocess</td><td style="vertical-align:top;">:</td><td><div>False</div></td></tr><tr><td style="font-weight:bold;vertical-align:top;">wsgi_multithread</td><td style="vertical-align:top;">:</td><td><div>True</div></td></tr><tr><td style="font-weight:bold;vertical-align:top;">wsgi_run_once</td><td style="vertical-align:top;">:</td><td><div>False</div></td></tr><tr><td style="font-weight:bold;vertical-align:top;">wsgi_url_scheme</td><td style="vertical-align:top;">:</td><td><div>https</div></td></tr><tr><td style="font-weight:bold;vertical-align:top;">wsgi_version</td><td style="vertical-align:top;">:</td><td><div><table><tr><td><div>1</div></td></tr><tr><td><div>0</div></td></tr></table></div></td></tr></table></div></td></tr><tr><td style="font-weight:bold;vertical-align:top;">extension</td><td style="vertical-align:top;">:</td><td><div>html</div></td></tr><tr><td style="font-weight:bold;vertical-align:top;">folder</td><td style="vertical-align:top;">:</td><td><div>/home/www-data/web2py/applications/oadev/</div></td></tr><tr><td style="font-weight:bold;vertical-align:top;">function</td><td style="vertical-align:top;">:</td><td><div>index</div></td></tr><tr><td style="font-weight:bold;vertical-align:top;">global_settings</td><td style="vertical-align:top;">:</td><td><div><table><tr><td style="font-weight:bold;vertical-align:top;">app_folders</td><td style="vertical-align:top;">:</td><td><div>set([&#x27;/home/www-data/web2py/applications/observatoireassemblee/&#x27;, &#x27;/home/www-data/web2py/applications/obsas_dev/&#x27;, &#x27;/home/www-data/web2py/applications/admin/&#x27;, &#x27;/home/www-data/web2py/applications/oadev/&#x27;])</div></td></tr><tr><td style="font-weight:bold;vertical-align:top;">applications_parent</td><td style="vertical-align:top;">:</td><td><div>/home/www-data/web2py</div></td></tr><tr><td style="font-weight:bold;vertical-align:top;">db_sessions</td><td style="vertical-align:top;">:</td><td><div>set([])</div></td></tr><tr><td style="font-weight:bold;vertical-align:top;">debugging</td><td style="vertical-align:top;">:</td><td><div>True</div></td></tr><tr><td style="font-weight:bold;vertical-align:top;">gluon_parent</td><td style="vertical-align:top;">:</td><td><div>/home/www-data/web2py</div></td></tr><tr><td style="font-weight:bold;vertical-align:top;">is_jython</td><td style="vertical-align:top;">:</td><td><div>False</div></td></tr><tr><td style="font-weight:bold;vertical-align:top;">is_py2</td><td style="vertical-align:top;">:</td><td><div>True</div></td></tr><tr><td style="font-weight:bold;vertical-align:top;">is_pypy</td><td style="vertical-align:top;">:</td><td><div>False</div></td></tr><tr><td style="font-weight:bold;vertical-align:top;">is_source</td><td style="vertical-align:top;">:</td><td><div>True</div></td></tr><tr><td style="font-weight:bold;vertical-align:top;">local_hosts</td><td style="vertical-align:top;">:</td><td><div><table><tr><td><div>vps433020</div></td></tr><tr><td><div>::ffff:127.0.0.1</div></td></tr><tr><td><div>::1</div></td></tr><tr><td><div>151.80.57.169</div></td></tr><tr><td><div>vps433020.ovh.net</div></td></tr><tr><td><div>127.0.1.1</div></td></tr><tr><td><div>admin.obsas.orvdev.fr</div></td></tr><tr><td><div>127.0.0.1</div></td></tr></table></div></td></tr><tr><td style="font-weight:bold;vertical-align:top;">web2py_version</td><td style="vertical-align:top;">:</td><td><div>2.15.1-stable+timestamp.2017.07.10.21.25.06</div></td></tr></table></div></td></tr><tr><td style="font-weight:bold;vertical-align:top;">is_https</td><td style="vertical-align:top;">:</td><td><div>True</div></td></tr><tr><td style="font-weight:bold;vertical-align:top;">is_local</td><td style="vertical-align:top;">:</td><td><div>False</div></td></tr><tr><td style="font-weight:bold;vertical-align:top;">is_restful</td><td style="vertical-align:top;">:</td><td><div>False</div></td></tr><tr><td style="font-weight:bold;vertical-align:top;">is_scheduler</td><td style="vertical-align:top;">:</td><td><div>False</div></td></tr><tr><td style="font-weight:bold;vertical-align:top;">is_shell</td><td style="vertical-align:top;">:</td><td><div>False</div></td></tr><tr><td style="font-weight:bold;vertical-align:top;">now</td><td style="vertical-align:top;">:</td><td><div>datetime.datetime(2017, 9, 17, 23, 51, 52, 830056)</div></td></tr><tr><td style="font-weight:bold;vertical-align:top;">url</td><td style="vertical-align:top;">:</td><td><div>/oadev/depute/index/jeanlucmelenchon</div></td></tr><tr><td style="font-weight:bold;vertical-align:top;">utcnow</td><td style="vertical-align:top;">:</td><td><div>datetime.datetime(2017, 9, 17, 21, 51, 52, 830089)</div></td></tr><tr><td style="font-weight:bold;vertical-align:top;">wsgi</td><td style="vertical-align:top;">:</td><td><div>&lt;gluon.main.LazyWSGI object at 0x7f084c8e8590&gt;</div></td></tr></table></div>'
tRp72
sS'frames'
p73
(lp74
(dp75
S'file'
p76
S'/home/www-data/web2py/gluon/restricted.py'
p77
sS'dump'
p78
(dp79
S'environment'
p80
S"{'A': <class 'gluon.html.A'>, 'ANY_OF': <class 'gluon.validators.ANY_OF'>, 'ASSIGNJS': <function ASSIGNJS>, 'AppCache': <class __restricted__.AppCache>, 'AppConfig': <function AppConfig>, 'Auth': <class 'gluon.tools.Auth'>, 'B': <class 'gluon.html.B'>, 'BEAUTIFY': <class 'gluon.html.BEAUTIFY'>, 'BODY': <class 'gluon.html.BODY'>, 'BR': <class 'gluon.html.BR'>, ...}"
p81
sS'ccode'
p82
S'\'response.write(\\\'<!DOCTYPE html>\\\\n<html lang="fr"...ponse.write(\\\'\\\\n</body>\\\\n</html>\\\\n\\\', escape=False)\''
p83
ssS'lnum'
p84
I219
sS'lines'
p85
(dp86
I214
S'    if environment is None:'
p87
sI215
S'        environment = {}'
p88
sI216
S"    environment['__file__'] = layer"
p89
sI217
S"    environment['__name__'] = '__restricted__'"
p90
sI218
S'    try:'
p91
sI219
S'        exec(ccode, environment)'
p92
sI220
S'    except HTTP:'
p93
sI221
S'        raise'
p94
sI222
S'    except RestrictedError:'
p95
sI223
S'        # do not encapsulate (obfuscate) the original RestrictedError'
p96
ssS'call'
p97
S'(ccode=\'response.write(\\\'<!DOCTYPE html>\\\\n<html lang="fr"...ponse.write(\\\'\\\\n</body>\\\\n</html>\\\\n\\\', escape=False)\', environment={\'A\': <class \'gluon.html.A\'>, \'ANY_OF\': <class \'gluon.validators.ANY_OF\'>, \'ASSIGNJS\': <function ASSIGNJS>, \'AppCache\': <class __restricted__.AppCache>, \'AppConfig\': <function AppConfig>, \'Auth\': <class \'gluon.tools.Auth\'>, \'B\': <class \'gluon.html.B\'>, \'BEAUTIFY\': <class \'gluon.html.BEAUTIFY\'>, \'BODY\': <class \'gluon.html.BODY\'>, \'BR\': <class \'gluon.html.BR\'>, ...}, layer=\'/home/www-data/web2py/applications/oadev/views/depute/index.html\')'
p98
sS'func'
p99
S'restricted'
p100
sasS'pyver'
p101
S'Python 2.7.12: /home/www-data/web2py/applications/obsas_dev/.pyenv/bin/python (prefix: /home/www-data/web2py/applications/obsas_dev/.pyenv)'
p102
sS'session'
p103
g71
(S's\x1a\x00\x00\x00<div><table></table></div>'
tRp104
sS'etype'
p105
S"<type 'exceptions.SyntaxError'>"
p106
sS'date'
p107
S'Sun Sep 17 23:51:53 2017'
p108
sS'response'
p109
g71
(S's\x12>\x00\x00<div><table><tr><td style="font-weight:bold;vertical-align:top;">body</td><td style="vertical-align:top;">:</td><td><div>&lt;cStringIO.StringO object at 0x7f0869b89e68&gt;</div></td></tr><tr><td style="font-weight:bold;vertical-align:top;">cookies</td><td style="vertical-align:top;">:</td><td><div><table><tr><td style="font-weight:bold;vertical-align:top;">session_id_oadev</td><td style="vertical-align:top;">:</td><td><div>83.203.181.3-ae824e5b-f4d8-4d04-825d-259f1c42e583<table><tr><td style="font-weight:bold;vertical-align:top;">comment</td><td style="vertical-align:top;">:</td><td><div></div></td></tr><tr><td style="font-weight:bold;vertical-align:top;">domain</td><td style="vertical-align:top;">:</td><td><div></div></td></tr><tr><td style="font-weight:bold;vertical-align:top;">expires</td><td style="vertical-align:top;">:</td><td><div></div></td></tr><tr><td style="font-weight:bold;vertical-align:top;">httponly</td><td style="vertical-align:top;">:</td><td><div></div></td></tr><tr><td style="font-weight:bold;vertical-align:top;">max-age</td><td style="vertical-align:top;">:</td><td><div></div></td></tr><tr><td style="font-weight:bold;vertical-align:top;">path</td><td style="vertical-align:top;">:</td><td><div>/</div></td></tr><tr><td style="font-weight:bold;vertical-align:top;">secure</td><td style="vertical-align:top;">:</td><td><div></div></td></tr><tr><td style="font-weight:bold;vertical-align:top;">version</td><td style="vertical-align:top;">:</td><td><div></div></td></tr></table></div></td></tr></table></div></td></tr><tr><td style="font-weight:bold;vertical-align:top;">delimiters</td><td style="vertical-align:top;">:</td><td><div><table><tr><td><div>{{</div></td></tr><tr><td><div>}}</div></td></tr></table></div></td></tr><tr><td style="font-weight:bold;vertical-align:top;">files</td><td style="vertical-align:top;">:</td><td><div><table></table></div></td></tr><tr><td style="font-weight:bold;vertical-align:top;">flash</td><td style="vertical-align:top;">:</td><td><div></div></td></tr><tr><td style="font-weight:bold;vertical-align:top;">form_label_separator</td><td style="vertical-align:top;">:</td><td><div></div></td></tr><tr><td style="font-weight:bold;vertical-align:top;">formstyle</td><td style="vertical-align:top;">:</td><td><div>bootstrap3_inline</div></td></tr><tr><td style="font-weight:bold;vertical-align:top;">generic_patterns</td><td style="vertical-align:top;">:</td><td><div><table><tr><td><div>*.json</div></td></tr></table></div></td></tr><tr><td style="font-weight:bold;vertical-align:top;">google_analytics_id</td><td style="vertical-align:top;">:</td><td><div>None</div></td></tr><tr><td style="font-weight:bold;vertical-align:top;">headers</td><td style="vertical-align:top;">:</td><td><div><table><tr><td style="font-weight:bold;vertical-align:top;">X-Powered-By</td><td style="vertical-align:top;">:</td><td><div>web2py</div></td></tr></table></div></td></tr><tr><td style="font-weight:bold;vertical-align:top;">logo</td><td style="vertical-align:top;">:</td><td><div><a class="navbar-brand" href="http://www.web2py.com/" id="web2py-logo"><b>web<span>2</span>py</b>&trade;&nbsp;</a></div></td></tr><tr><td style="font-weight:bold;vertical-align:top;">menu</td><td style="vertical-align:top;">:</td><td><div><table><tr><td><div><table><tr><td><div>Accueil</div></td></tr><tr><td><div>False</div></td></tr><tr><td><div>/oadev</div></td></tr><tr><td><div><table></table></div></td></tr></table></div></td></tr><tr><td><div><table><tr><td><div>Mes sites</div></td></tr><tr><td><div>False</div></td></tr><tr><td><div>/admin/site</div></td></tr></table></div></td></tr><tr><td><div><table><tr><td><div>Cette Appli</div></td></tr><tr><td><div>False</div></td></tr><tr><td><div>#</div></td></tr><tr><td><div><table><tr><td><div><table><tr><td><div>Design</div></td></tr><tr><td><div>False</div></td></tr><tr><td><div>/admin/design/oadev</div></td></tr></table></div></td></tr><tr><td><div><li class="divider"></li></div></td></tr><tr><td><div><table><tr><td><div>Contr\xc3\xb4leur</div></td></tr><tr><td><div>False</div></td></tr><tr><td><div>/admin/edit/oadev/controllers/depute.py</div></td></tr></table></div></td></tr><tr><td><div><table><tr><td><div>Pr\xc3\xa9sentation</div></td></tr><tr><td><div>False</div></td></tr><tr><td><div>/admin/edit/oadev/views/depute/index.html</div></td></tr></table></div></td></tr><tr><td><div><table><tr><td><div>Mod\xc3\xa8le BD</div></td></tr><tr><td><div>False</div></td></tr><tr><td><div>/admin/edit/oadev/models/db.py</div></td></tr></table></div></td></tr><tr><td><div><table><tr><td><div>Menu mod\xc3\xa8le</div></td></tr><tr><td><div>False</div></td></tr><tr><td><div>/admin/edit/oadev/models/menu.py</div></td></tr></table></div></td></tr><tr><td><div><table><tr><td><div>Config.ini</div></td></tr><tr><td><div>False</div></td></tr><tr><td><div>/admin/edit/oadev/private/appconfig.ini</div></td></tr></table></div></td></tr><tr><td><div><table><tr><td><div>Mise en page</div></td></tr><tr><td><div>False</div></td></tr><tr><td><div>/admin/edit/oadev/views/layout.html</div></td></tr></table></div></td></tr><tr><td><div><table><tr><td><div>Feuille de style</div></td></tr><tr><td><div>False</div></td></tr><tr><td><div>/admin/edit/oadev/static/css/web2py-bootstrap3.css</div></td></tr></table></div></td></tr><tr><td><div><table><tr><td><div>base de donn\xc3\xa9es</div></td></tr><tr><td><div>False</div></td></tr><tr><td><div>/oadev/appadmin</div></td></tr></table></div></td></tr><tr><td><div><table><tr><td><div>Erreurs</div></td></tr><tr><td><div>False</div></td></tr><tr><td><div>/admin/errors/oadev</div></td></tr></table></div></td></tr><tr><td><div><table><tr><td><div>\xc3\x80 propos</div></td></tr><tr><td><div>False</div></td></tr><tr><td><div>/admin/about/oadev</div></td></tr></table></div></td></tr></table></div></td></tr></table></div></td></tr><tr><td><div><table><tr><td><div>web2py.com</div></td></tr><tr><td><div>False</div></td></tr><tr><td><div>#</div></td></tr><tr><td><div><table><tr><td><div><table><tr><td><div>T\xc3\xa9l\xc3\xa9chargement</div></td></tr><tr><td><div>False</div></td></tr><tr><td><div>http://www.web2py.com/examples/default/download</div></td></tr></table></div></td></tr><tr><td><div><table><tr><td><div>Soutien</div></td></tr><tr><td><div>False</div></td></tr><tr><td><div>http://www.web2py.com/examples/default/support</div></td></tr></table></div></td></tr><tr><td><div><table><tr><td><div>D\xc3\xa9mo</div></td></tr><tr><td><div>False</div></td></tr><tr><td><div>http://web2py.com/demo_admin</div></td></tr></table></div></td></tr><tr><td><div><table><tr><td><div>Exemples Rapides</div></td></tr><tr><td><div>False</div></td></tr><tr><td><div>http://web2py.com/examples/default/examples</div></td></tr></table></div></td></tr><tr><td><div><table><tr><td><div>FAQ</div></td></tr><tr><td><div>False</div></td></tr><tr><td><div>http://web2py.com/AlterEgo</div></td></tr></table></div></td></tr><tr><td><div><table><tr><td><div>Vid\xc3\xa9os</div></td></tr><tr><td><div>False</div></td></tr><tr><td><div>http://www.web2py.com/examples/default/videos/</div></td></tr></table></div></td></tr><tr><td><div><table><tr><td><div>Applications gratuites</div></td></tr><tr><td><div>False</div></td></tr><tr><td><div>http://web2py.com/appliances</div></td></tr></table></div></td></tr><tr><td><div><table><tr><td><div>Plugiciels</div></td></tr><tr><td><div>False</div></td></tr><tr><td><div>http://web2py.com/plugins</div></td></tr></table></div></td></tr><tr><td><div><table><tr><td><div>Recettes</div></td></tr><tr><td><div>False</div></td></tr><tr><td><div>http://web2pyslices.com/</div></td></tr></table></div></td></tr></table></div></td></tr></table></div></td></tr><tr><td><div><table><tr><td><div>Documentation</div></td></tr><tr><td><div>False</div></td></tr><tr><td><div>#</div></td></tr><tr><td><div><table><tr><td><div><table><tr><td><div>Online book</div></td></tr><tr><td><div>False</div></td></tr><tr><td><div>http://www.web2py.com/book</div></td></tr></table></div></td></tr><tr><td><div><li class="divider"></li></div></td></tr><tr><td><div><table><tr><td><div>Pr\xc3\xa9face</div></td></tr><tr><td><div>False</div></td></tr><tr><td><div>http://www.web2py.com/book/default/chapter/00</div></td></tr></table></div></td></tr><tr><td><div><table><tr><td><div>Pr\xc3\xa9sentation</div></td></tr><tr><td><div>False</div></td></tr><tr><td><div>http://www.web2py.com/book/default/chapter/01</div></td></tr></table></div></td></tr><tr><td><div><table><tr><td><div>Python</div></td></tr><tr><td><div>False</div></td></tr><tr><td><div>http://www.web2py.com/book/default/chapter/02</div></td></tr></table></div></td></tr><tr><td><div><table><tr><td><div>Pr\xc3\xa9sentation</div></td></tr><tr><td><div>False</div></td></tr><tr><td><div>http://www.web2py.com/book/default/chapter/03</div></td></tr></table></div></td></tr><tr><td><div><table><tr><td><div>Le noyau</div></td></tr><tr><td><div>False</div></td></tr><tr><td><div>http://www.web2py.com/book/default/chapter/04</div></td></tr></table></div></td></tr><tr><td><div><table><tr><td><div>Les Vues</div></td></tr><tr><td><div>False</div></td></tr><tr><td><div>http://www.web2py.com/book/default/chapter/05</div></td></tr></table></div></td></tr><tr><td><div><table><tr><td><div>base de donn\xc3\xa9es</div></td></tr><tr><td><div>False</div></td></tr><tr><td><div>http://www.web2py.com/book/default/chapter/06</div></td></tr></table></div></td></tr><tr><td><div><table><tr><td><div>Formulaires et Validateurs</div></td></tr><tr><td><div>False</div></td></tr><tr><td><div>http://www.web2py.com/book/default/chapter/07</div></td></tr></table></div></td></tr><tr><td><div><table><tr><td><div>Courriel et texto</div></td></tr><tr><td><div>False</div></td></tr><tr><td><div>http://www.web2py.com/book/default/chapter/08</div></td></tr></table></div></td></tr><tr><td><div><table><tr><td><div>Contr\xc3\xb4le d\'acc\xc3\xa8s</div></td></tr><tr><td><div>False</div></td></tr><tr><td><div>http://www.web2py.com/book/default/chapter/09</div></td></tr></table></div></td></tr><tr><td><div><table><tr><td><div>Services</div></td></tr><tr><td><div>False</div></td></tr><tr><td><div>http://www.web2py.com/book/default/chapter/10</div></td></tr></table></div></td></tr><tr><td><div><table><tr><td><div>Recettes Ajax</div></td></tr><tr><td><div>False</div></td></tr><tr><td><div>http://www.web2py.com/book/default/chapter/11</div></td></tr></table></div></td></tr><tr><td><div><table><tr><td><div>Composants et Plugiciels</div></td></tr><tr><td><div>False</div></td></tr><tr><td><div>http://www.web2py.com/book/default/chapter/12</div></td></tr></table></div></td></tr><tr><td><div><table><tr><td><div>Recettes de d\xc3\xa9ploiement</div></td></tr><tr><td><div>False</div></td></tr><tr><td><div>http://www.web2py.com/book/default/chapter/13</div></td></tr></table></div></td></tr><tr><td><div><table><tr><td><div>Autres recettes</div></td></tr><tr><td><div>False</div></td></tr><tr><td><div>http://www.web2py.com/book/default/chapter/14</div></td></tr></table></div></td></tr><tr><td><div><table><tr><td><div>Aider web2py</div></td></tr><tr><td><div>False</div></td></tr><tr><td><div>http://www.web2py.com/book/default/chapter/15</div></td></tr></table></div></td></tr><tr><td><div><table><tr><td><div>Buy web2py\'s book</div></td></tr><tr><td><div>False</div></td></tr><tr><td><div>http://stores.lulu.com/web2py</div></td></tr></table></div></td></tr></table></div></td></tr></table></div></td></tr><tr><td><div><table><tr><td><div>Communaut\xc3\xa9</div></td></tr><tr><td><div>False</div></td></tr><tr><td><div>None</div></td></tr><tr><td><div><table><tr><td><div><table><tr><td><div>Groupes</div></td></tr><tr><td><div>False</div></td></tr><tr><td><div>http://www.web2py.com/examples/default/usergroups</div></td></tr></table></div></td></tr><tr><td><div><table><tr><td><div>Twitter</div></td></tr><tr><td><div>False</div></td></tr><tr><td><div>http://twitter.com/web2py</div></td></tr></table></div></td></tr><tr><td><div><table><tr><td><div>Clavardage en direct</div></td></tr><tr><td><div>False</div></td></tr><tr><td><div>http://webchat.freenode.net/?channels=web2py</div></td></tr></table></div></td></tr></table></div></td></tr></table></div></td></tr></table></div></td></tr><tr><td style="font-weight:bold;vertical-align:top;">meta</td><td style="vertical-align:top;">:</td><td><div><table><tr><td style="font-weight:bold;vertical-align:top;">author</td><td style="vertical-align:top;">:</td><td><div>Your Name &lt;you@example.com&gt;</div></td></tr><tr><td style="font-weight:bold;vertical-align:top;">description</td><td style="vertical-align:top;">:</td><td><div>a cool new app</div></td></tr><tr><td style="font-weight:bold;vertical-align:top;">generator</td><td style="vertical-align:top;">:</td><td><div>Web2py Web Framework</div></td></tr><tr><td style="font-weight:bold;vertical-align:top;">keywords</td><td style="vertical-align:top;">:</td><td><div><table><tr><td><div>web2py</div></td></tr><tr><td><div>python</div></td></tr><tr><td><div>framework</div></td></tr></table></div></td></tr></table></div></td></tr><tr><td style="font-weight:bold;vertical-align:top;">models_to_run</td><td style="vertical-align:top;">:</td><td><div><table><tr><td><div>^\\w+\\.py$</div></td></tr><tr><td><div>^depute/\\w+\\.py$</div></td></tr><tr><td><div>^depute/index/\\w+\\.py$</div></td></tr></table></div></td></tr><tr><td style="font-weight:bold;vertical-align:top;">postprocessing</td><td style="vertical-align:top;">:</td><td><div><table></table></div></td></tr><tr><td style="font-weight:bold;vertical-align:top;">session_client</td><td style="vertical-align:top;">:</td><td><div>83.203.181.3</div></td></tr><tr><td style="font-weight:bold;vertical-align:top;">session_cookie_compression_level</td><td style="vertical-align:top;">:</td><td><div>None</div></td></tr><tr><td style="font-weight:bold;vertical-align:top;">session_cookie_expires</td><td style="vertical-align:top;">:</td><td><div>None</div></td></tr><tr><td style="font-weight:bold;vertical-align:top;">session_data_name</td><td style="vertical-align:top;">:</td><td><div>session_data_oadev</div></td></tr><tr><td style="font-weight:bold;vertical-align:top;">session_file</td><td style="vertical-align:top;">:</td><td><div>None</div></td></tr><tr><td style="font-weight:bold;vertical-align:top;">session_filename</td><td style="vertical-align:top;">:</td><td><div>/home/www-data/web2py/applications/oadev/sessions/83.203.181.3-ae824e5b-f4d8-4d04-825d-259f1c42e583</div></td></tr><tr><td style="font-weight:bold;vertical-align:top;">session_hash</td><td style="vertical-align:top;">:</td><td><div>c0762cbf4baf7f9af97c051e7fcb8083</div></td></tr><tr><td style="font-weight:bold;vertical-align:top;">session_id</td><td style="vertical-align:top;">:</td><td><div>83.203.181.3-ae824e5b-f4d8-4d04-825d-259f1c42e583</div></td></tr><tr><td style="font-weight:bold;vertical-align:top;">session_id_name</td><td style="vertical-align:top;">:</td><td><div>session_id_oadev</div></td></tr><tr><td style="font-weight:bold;vertical-align:top;">session_masterapp</td><td style="vertical-align:top;">:</td><td><div>oadev</div></td></tr><tr><td style="font-weight:bold;vertical-align:top;">session_new</td><td style="vertical-align:top;">:</td><td><div>True</div></td></tr><tr><td style="font-weight:bold;vertical-align:top;">session_storage_type</td><td style="vertical-align:top;">:</td><td><div>file</div></td></tr><tr><td style="font-weight:bold;vertical-align:top;">status</td><td style="vertical-align:top;">:</td><td><div>200</div></td></tr><tr><td style="font-weight:bold;vertical-align:top;">subtitle</td><td style="vertical-align:top;">:</td><td><div></div></td></tr><tr><td style="font-weight:bold;vertical-align:top;">title</td><td style="vertical-align:top;">:</td><td><div>Oadev</div></td></tr><tr><td style="font-weight:bold;vertical-align:top;">view</td><td style="vertical-align:top;">:</td><td><div>depute/index.html</div></td></tr></table></div>'
tRp110
sS'locals'
p111
(dp112
g4
S"'/home/www-data/web2py/applications/oadev/views/depute/index.html'"
p113
sS'ccode'
p114
S'\'response.write(\\\'<!DOCTYPE html>\\\\n<html lang="fr"...ponse.write(\\\'\\\\n</body>\\\\n</html>\\\\n\\\', escape=False)\''
p115
sg68
S'SyntaxError(\'EOL while scanning string literal\',..., 139, 32, "genres = {\'loi\':\'e\',\'motion\':e\'}\\n"))'
p116
sS'environment'
p117
S"{'A': <class 'gluon.html.A'>, 'ANY_OF': <class 'gluon.validators.ANY_OF'>, 'ASSIGNJS': <function ASSIGNJS>, 'AppCache': <class __restricted__.AppCache>, 'AppConfig': <function AppConfig>, 'Auth': <class 'gluon.tools.Auth'>, 'B': <class 'gluon.html.B'>, 'BEAUTIFY': <class 'gluon.html.BEAUTIFY'>, 'BODY': <class 'gluon.html.BODY'>, 'BR': <class 'gluon.html.BR'>, ...}"
p118
sS'error'
p119
S'SyntaxError(\'EOL while scanning string literal\',..., 139, 32, "genres = {\'loi\':\'e\',\'motion\':e\'}\\n"))'
p120
sg105
S"<type 'exceptions.SyntaxError'>"
p121
sg2
S'"<type \'exceptions.SyntaxError\'> EOL while scanning string literal (<string>, line 139)"'
p122
sssS'traceback'
p123
S'Traceback (most recent call last):\n  File "/home/www-data/web2py/gluon/restricted.py", line 219, in restricted\n    exec(ccode, environment)\n  File "<string>", line 139\n    genres = {\'loi\':\'e\',\'motion\':e\'}\n                                   ^\nSyntaxError: EOL while scanning string literal\n'
p124
s.