(dp1
S'output'
p2
S'missing "pass" in view'
p3
sS'layer'
p4
S'ParserContainer'
p5
sS'code'
p6
S'response.write(\'<!DOCTYPE html>\\n<html lang="fr">\\n<head>\\n    <meta charset="utf-8">\\n    <meta http-equiv="x-ua-compatible" content="ie=edge">\\n    <title>ObsAss</title>\\n    <meta name="description" content="">\\n    <meta name="viewport" content="width=device-width, initial-scale=1">\\n\\n    <link href="https://fonts.googleapis.com/css?family=Montserrat:400,600,700" rel="stylesheet">\\n    <link href="https://maxcdn.bootstrapcdn.com/font-awesome/4.7.0/css/font-awesome.min.css" rel="stylesheet">\\n    <link rel="stylesheet" href="\', escape=False)\nresponse.write(URL(\'static\',\'css/main.css\'))\nresponse.write(\'" rel="stylesheet">\\n</head>\\n<body>\\n    <nav id="main-nav" class="flex">\\n        <img src="assets/logo.png" alt="Observatoire Insoumis">\\n        <ul>\\n            <li>Programme Pr\\xc3\\xa9sidentiel</li>\\n            <li>Gouvernement</li>\\n            <li>Assembl\\xc3\\xa9e Nationale</li>\\n        </ul>\\n    </nav>\\n    <header id="header">\\n        Header super chouette sisi !\\n    </header>\\n    <nav id="sub-nav">\\n        <ul>\\n            <li><i class="fa fa-users" aria-hidden="true"></i> Groupes</li>\\n            <li><i class="fa fa-user-circle-o" aria-hidden="true"></i> D\\xc3\\xa9put\\xc3\\xa9s</li>\\n            <li><i class="fa fa-thumbs-up" aria-hidden="true"></i> Suivi FI</li>\\n        </ul>\\n    </nav>\\n    \', escape=False)\nresponse.write(\'\\n    <div id="depute-template" class="container">\\n        <div class="depute-header">\\n            <div class="depute-photo">\\n                <img src="http://www2.assemblee-nationale.fr/static/tribun/15/photos/\', escape=False)\nresponse.write(depute_uid[2:])\nresponse.write(\'.jpg"/>\\n            </div>\\n            <div class="depute-identite">\\n                <header>\\n                    <h2><span>\', escape=False)\nresponse.write("%s / %s / %se circ" % (depute_region,depute_departement,depute_circo))\nresponse.write(\'</span></h2>\\n                    <h1>M. Gabriel Serville</h1>\\n                </header>\\n\\n                <div class="depute-contacts">\\n                    \', escape=False)\nfor (k,v) in depute_contacts:\n    if (k==u\'M\\xe8l\'):\n        response.write(\'<a class="depute-contact" href="mailto:\', escape=False)\n        response.write(v)\n        response.write(\'"><i class="fa fa-envelope-o"></i></a>\\n                    \', escape=False)\n    elif (k==\'Twitter\'):\n        response.write(\'<a class="depute-contact" href="https://twitter.com/\', escape=False)\n        response.write(v[1:])\n        response.write(\'"><i class="fa fa-twitter"></i></a>\\n                    \', escape=False)\n    elif (k==\'Facebook\'):\n        response.write(\'<a class="depute-contact" href="https://fr-fr.facebook.com/\', escape=False)\n        response.write(v)\n        response.write(\'"><i class="fa fa-facebook-square"></i></a>\\n                    \', escape=False)\n    elif (k==\'Site internet\'):\n        response.write(\'<a class="depute-contact" href="http://\', escape=False)\n        response.write(v)\n        response.write(\'"><i class="fa fa-globe"></i></a>\\n                    \', escape=False)\n        pass\n    response.write(\'\\n                </div>\\n\\n                <div class="depute-groupe GDR"><i class="fa fa-group"></i> <a href="/obsas_dev/fiches/groupe/GDR">Gauche d\\xc3\\xa9mocrate et r\\xc3\\xa9publicaine (GDR)</a></div>\\n                <div class="depute-infos"><span>Professeur de Math\\xc3\\xa9matiques - Proviseur, n\\xc3\\xa9(e) le 1959-09-27 \\xc3\\xa0 Cayenne</span></div>\\n                <div class="depute-infos"><span>Participation : 556/577</span><br /><span>Dissidence : 41/577</span></div>\\n            </div>\\n        </div>\\n\\n        <div class="tab-container">\\n            <header>\\n                <input id="tab1" type="radio" name="tabs" value="presentation">\\n                <label for="tab1"><i class="fa fa-id-card-o"></i><span>Pr\\xc3\\xa9sentation</span></label>\\n\\n                <input id="tab2" type="radio" name="tabs" value="interventions" checked>\\n                <label for="tab2"><i class="fa fa-comment-o"></i><span>Interventions</span></label>\\n\\n                <input id="tab3" type="radio" name="tabs" value="votes">\\n                <label for="tab3"><i class="fa fa-hand-paper-o"></i><span>Votes</span></label>\\n            </header>\\n\\n            <section id="presentation" class="tab-content"> <!-- Pr\\xc3\\xa9sentation -->\\n                <div class="depute-hemicycle">\\n                    <object id="hemicycle" data="https://admin.obsas.orvdev.fr/obsas_dev/static/images/hemicyclelight.svg" type="image/svg+xml"></object>\\n                </div>\\n                <div class="depute-fonctions">\\n                    <h2>Fonctions / Mandats</h2>\\n                    <ul class="fa-ul">\\n                        <li>\\n                            <i class="fa fa-li fa-arrow-circle-o-right"></i> Secr\\xc3\\xa9taire <a href="/obsas_dev/fiches/organe?id=PO717460">de l&#x27;Assembl\\xc3\\xa9e</a> (depuis le 28 juin 2017)\\n                        </li><li>\\n                            <i class="fa fa-li fa-arrow-circle-o-right"></i> Membre <a href="/obsas_dev/fiches/organe?id=PO730940">du groupe Gauche d\\xc3\\xa9mocrate et r\\xc3\\xa9publicaine</a> (depuis le 27 juin 2017)\\n                        </li><li>\\n                            <i class="fa fa-li fa-arrow-circle-o-right"></i> Membre <a href="/obsas_dev/fiches/organe?id=PO419865">de la commission du d\\xc3\\xa9veloppement durable et de l&#x27;am\\xc3\\xa9nagement du territoire</a> (depuis le 29 juin 2017)\\n                        </li>\\n                    </ul>\\n                </div>\\n                <div class="depute-watch">\\n                    <h2>Deputy Watch</h2>\\n                    <div class="flex">\\n                        <img src="assets/deputywatch.png" alt="Deputy Watch">\\n                        <div>\\n                            Le site Deputy Watch tente de recenser les ant\\xc3\\xa9c\\xc3\\xa9dents judiciaires de notori\\xc3\\xa9t\\xc3\\xa9 publique des \\xc3\\xa9lus.\\n                            Nous y avons cherch\\xc3\\xa9 ce d\\xc3\\xa9put\\xc3\\xa9 et il semblerait qu\\\'il y soit list\\xc3\\xa9.<br />\\n                            <a href="https://www.deputywatch.org/afficherDepute/?nom=Serville&amp;prenom=Gabriel&amp;consulter=1" target="_blank">\\n                                <i class="fa fa-arrow-circle-o-right"></i> Voir le r\\xc3\\xa9sultat\\n                            </a>\\n                        </div>\\n                    </div>\\n                </div>\\n\\n                <div>\\n                    <h2>D\\xc3\\xa9claration \\xc3\\xa0 la HATVP</h2>\\n                    <ul class="fa-ul">\\n                        <li>\\n                            <a href="http://www.hatvp.fr/livraison/dossiers/dispense" target="_blank">\\n                                <i class="fa fa-li fa-file-text-o"></i>\\n                                D\\xc3\\xa9claration d\\xe2\\x80\\x99int\\xc3\\xa9r\\xc3\\xaats - Maire de Matoury\\n                            </a>\\n                        </li>\\n                    </ul>\\n                </div>\\n            </section>\\n\\n\\t\\t\\t<section id="interventions" class="tab-content"> <!-- Interventions -->\\n                <div class="depute-interventions-recap">\\n                    Nombre d\\\'interventions : <span>311</span>, nombre de mots : <span>23812</span>\\n                </div>\\n                <div class="depute-interventions-cloud">\\n                    <div>\\n                        <h2>Ses mots</h2>\\n                        <div id="sourrounding_div_noms" class="cloud">\\n                            <canvas id="wordcanvas_noms"></canvas>\\n                        </div>\\n                    </div>\\n                    <div>\\n                        <h2>Ses verbes</h2>\\n                        <div id="sourrounding_div_verbs" class="cloud">\\n                            <canvas id="wordcanvas_verbs"></canvas>\\n                        </div>\\n                    </div>\\n                </div>\\n                <div id="itvlist" class="depute-interventions-list">\\n                    <h2>Ses interventions</h2>\\n                    <div class="depute-interventions-search">\\n                        <label for="search"><i class="fa fa-search" aria-hidden="true"></i></label>\\n                        <input class="search" placeholder="Rechercher une intervention">\\n                    </div>\\n                    <ul class="list collection">\\n                        <li class="collection-item"><div class="ctx_intervention"><a href="http://www.assemblee-nationale.fr/15/cri/2016-2017-extra/20171033.asp#P1019124" target="_blank">S\\xc3\\xa9ance du mercredi 09 ao\\xc3\\xbbt 2017 / 2. Questions au Gouvernement / Bilan de la session extraordinaire</a></div><div class="s_itv"><p>Pour notre malheur !</p></div></li>\\n                        <li class="collection-item"><div class="ctx_intervention"><a href="http://www.assemblee-nationale.fr/15/cri/2016-2017-extra/20171033.asp#P1019138" target="_blank">S\\xc3\\xa9ance du mercredi 09 ao\\xc3\\xbbt 2017 / 2. Questions au Gouvernement / Bilan de la session extraordinaire</a></div><div class="s_itv"><p>Vos histoires de famille, on s\\xe2\\x80\\x99en fout !</p></div></li>\\n                        <li class="collection-item"><div class="ctx_intervention"><a href="http://www.assemblee-nationale.fr/15/cri/2016-2017-extra/20171033.asp#P1019360" target="_blank">S\\xc3\\xa9ance du mercredi 09 ao\\xc3\\xbbt 2017 / 2. Questions au Gouvernement / Ma\\xc3\\xaetrise des flux migratoires</a></div><div class="s_itv"><p>La faute \\xc3\\xa0 qui ?</p></div></li>\\n                        <li class="collection-item"><div class="ctx_intervention"><a href="http://www.assemblee-nationale.fr/15/cri/2016-2017-extra/20171033.asp#P1019469" target="_blank">S\\xc3\\xa9ance du mercredi 09 ao\\xc3\\xbbt 2017 / 2. Questions au Gouvernement / Allocation de rentr\\xc3\\xa9e scolaire</a></div><div class="s_itv"><p>Et vous fermez des lyc\\xc3\\xa9es !</p></div></li>\\n                        <li class="collection-item"><div class="ctx_intervention"><a href="http://www.assemblee-nationale.fr/15/cri/2016-2017-extra/20171033.asp#P1019206" target="_blank">S\\xc3\\xa9ance du mercredi 09 ao\\xc3\\xbbt 2017 / 2. Questions au Gouvernement / Privatisation des a\\xc3\\xa9roports</a></div><div class="s_itv"><p>Ah oui ! \\xc3\\x80 bas le capital !</p></div></li>\\n                    </ul>\\n                </div>\\n\\t\\t\\t</section>\\n\\n            <section id="votes" class="tab-content">\\n                blabla\\n            </section>\\n        </div>\\n    </div>\\n\', escape=False)\n    response.write(\'\\n    \', escape=False)\n    response.write(\'\\n    <script src="https://cdnjs.cloudflare.com/ajax/libs/jquery/3.2.1/jquery.min.js"></script>\\n    <script src="https://admin.obsas.orvdev.fr/obsas_dev/static/js/wordcloud2.js"></script>\\n    <script>\\n    $(document).ready(function() {\\n        var visible = $(\\\'.tab-container input:checked\\\').val();\\n        $(\\\'#\\\' + visible).show();\\n\\n        $(\\\'.tab-container input\\\').change(function(e) {\\n            $(\\\'.tab-content\\\').fadeOut();\\n            $(\\\'#\\\' + e.target.value).fadeIn();\\n        });\\n\\n        // Nuages\\n        var wordlist = {};\\n        wordlist[\\\'noms\\\'] = JSON.parse(\\\'[["politique", 184], ["travail", 180], ["loi", 165], ["droit", 142], ["social", 126], ["compte", 111], ["va", 111], ["seul", 99], ["doit", 88], ["grand", 88], ["d\\\\u00e9bat", 88], ["entreprise", 84], ["r\\\\u00e9publique", 80], ["chose", 80], ["monde", 76], ["public", 76], ["raison", 76], ["accord", 72], ["pays", 72], ["temps", 72], ["situation", 69], ["rapport", 69], ["cas", 65], ["fran\\\\u00e7ais", 65], ["syndicat", 61], ["norme", 61], ["mer", 57], ["salari\\\\u00e9", 57], ["condition", 57], ["moment", 57], ["gens", 57], ["vie", 53], ["principe", 53], ["demande", 53], ["code", 53], ["peuple", 49], ["mani\\\\u00e8re", 49], ["fort", 46], ["groupe", 46], ["vote", 46], ["\\\\u00e9conomique", 46], ["reste", 42], ["ordonnance", 42], ["d\\\\u00e9cision", 42], ["discussion", 42], ["part", 42], ["moins", 42], ["\\\\u00e9tat", 42], ["pouvoir", 42], ["sens", 42], ["licenciement", 38], ["peu", 38], ["travailleur", 38], ["g\\\\u00e9n\\\\u00e9ral", 38], ["bon", 34], ["instant", 34], ["mesure", 30], ["branche", 30], ["mot", 30], ["compris", 30], ["territoire", 30], ["train", 30], ["dette", 30], ["libert\\\\u00e9", 26], ["confiance", 26], ["petit", 26], ["vue", 26], ["r\\\\u00e8gle", 26], ["personne", 26], ["jour", 26], ["soci\\\\u00e9t\\\\u00e9", 26], ["fa\\\\u00e7on", 26], ["niveau", 26], ["fin", 23], ["contraire", 23], ["possible", 23], ["hi\\\\u00e9rarchie", 23], ["c\\\\u00f4t\\\\u00e9", 23], ["taux", 23], ["relation", 23], ["heure", 23], ["assembl\\\\u00e9e", 23], ["cause", 23], ["partie", 23], ["personnel", 23], ["crise", 23], ["production", 19], ["pris", 19], ["sorte", 19], ["doute", 19], ["article", 19], ["d\\\\u00e9tach\\\\u00e9", 19], ["r\\\\u00e9serve", 19], ["particulier", 19], ["donne", 19], ["t\\\\u00e9l\\\\u00e9travail", 19], ["trente", 19], ["moyen", 19], ["protection", 15], ["banc", 15], ["faveur", 15], ["parler", 15], ["donner", 15], ["projet", 15], ["ann\\\\u00e9e", 15], ["contrat", 15], ["mandat", 15], ["savoir", 15], ["repr\\\\u00e9sentation", 15], ["classe", 15], ["r\\\\u00e9sultat", 15], ["lutte", 15], ["ami", 15], ["jeune", 11], ["bas", 11], ["candidat", 11], ["bonne", 11], ["brave", 11], ["mal", 11], ["nombreux", 11], ["probl\\\\u00e8me", 11], ["forme", 11], ["contr\\\\u00f4le", 11], ["nouveau", 11], ["d\\\\u00e9pense", 11], ["vision", 11], ["besoin", 11], ["r\\\\u00f4le", 11], ["devon", 11], ["r\\\\u00e9publicain", 11], ["majorit\\\\u00e9", 11], ["fond", 11], ["comp\\\\u00e9titivit\\\\u00e9", 11], ["propos", 11], ["coup", 11], ["signal", 11], ["conseil", 11], ["r\\\\u00e9f\\\\u00e9rendum", 11], ["nature", 11], ["s\\\\u00e9curit\\\\u00e9", 7], ["propre", 7], ["candidature", 7], ["vertu", 7], ["philosophie", 7], ["capacit\\\\u00e9", 7], ["terme", 7], ["gouvernement", 7], ["cadre", 7], ["passage", 7], ["salaire", 7], ["vrai", 7], ["europ\\\\u00e9en", 7], ["fonctionnaire", 7], ["responsabilit\\\\u00e9", 7], ["r\\\\u00e9volution", 7], ["d\\\\u00e9mocratie", 7], ["s\\\\u00e9ance", 7], ["source", 7], ["suppression", 7], ["proposition", 7], ["repr\\\\u00e9sentant", 7], ["nationale", 7], ["d\\\\u00e9but", 7], ["qualification", 7], ["face", 7], ["libre", 7], ["revient", 7], ["cotisation", 7], ["h\\\\u00e9micycle", 7], ["collectif", 7], ["entendu", 7], ["pardon", 3], ["patronal", 3], ["histoire", 3], ["circonstance", 3], ["service", 3], ["somme", 3], ["quarante", 3], ["rendu", 3], ["argument", 3], ["change", 3], ["volont\\\\u00e9", 3], ["int\\\\u00e9r\\\\u00eat", 3], ["organisation", 3], ["r\\\\u00e9ponse", 3], ["capable", 3], ["propri\\\\u00e9t\\\\u00e9", 3], ["tour", 3], ["ouvrier", 3], ["violence", 3], ["fiscal", 3], ["sixi\\\\u00e8me", 3], ["espace", 3], ["r\\\\u00e9alit\\\\u00e9", 3], ["acte", 3], ["surtout", 3], ["bout", 3], ["porte", 3], ["favorable", 3], ["dernier", 3]]\\\');\\n        wordlist[\\\'verbs\\\'] = JSON.parse(\\\'[["faire", 515], ["pouvoir", 510], ["vouloir", 289], ["falloir", 265], ["croire", 176], ["venir", 171], ["permettre", 127], ["prendre", 122], ["voir", 117], ["trouver", 103], ["mettre", 103], ["aller", 103], ["parler", 103], ["penser", 103], ["voter", 88], ["demander", 83], ["devoir", 83], ["comprendre", 78], ["rappeler", 63], ["discuter", 58], ["supprimer", 58], ["cr\\\\u00e9er", 58], ["repr\\\\u00e9senter", 58], ["r\\\\u00e9pondre", 58], ["tenir", 54], ["passer", 54], ["\\\\u00e9voquer", 54], ["proposer", 54], ["changer", 49], ["commencer", 49], ["maintenir", 49], ["arriver", 49], ["travailler", 49], ["savoir", 44], ["consid\\\\u00e9rer", 44], ["inventer", 39], ["sembler", 39], ["donner", 34], ["appeler", 34], ["finir", 34], ["montrer", 34], ["entendre", 34], ["rendre", 34], ["conclure", 34], ["respecter", 34], ["d\\\\u00e9fendre", 34], ["remercier", 34], ["souhaiter", 34], ["concerner", 29], ["expliquer", 29], ["partir", 29], ["sais", 29], ["para\\\\u00eetre", 29], ["vivre", 29], ["r\\\\u00e9fl\\\\u00e9chir", 29], ["exister", 29], ["conna\\\\u00eetre", 29], ["pr\\\\u00e9senter", 29], ["rester", 29], ["saisir", 29], ["devenir", 24], ["pr\\\\u00e9voir", 24], ["valoir", 24], ["exprimer", 24], ["perdre", 24], ["relever", 24], ["pr\\\\u00e9parer", 24], ["accepter", 24], ["payer", 24], ["intervenir", 24], ["signifier", 24], ["essayer", 24], ["revenir", 19], ["b\\\\u00e9n\\\\u00e9ficier", 19], ["convenir", 19], ["retirer", 19], ["rassurer", 19], ["soutenir", 19], ["prot\\\\u00e9ger", 19], ["r\\\\u00e9duire", 19], ["interpeller", 19], ["terminer", 19], ["choisir", 19], ["reconna\\\\u00eetre", 19], ["proc\\\\u00e9der", 19], ["d\\\\u00e9noncer", 19], ["suivre", 19], ["cesser", 19], ["r\\\\u00e9unir", 19], ["regarder", 19], ["viser", 19], ["r\\\\u00e9tablir", 19], ["laisser", 19], ["correspondre", 19], ["r\\\\u00e9sumer", 19], ["participer", 19], ["d\\\\u00e9pendre", 19], ["reprendre", 14], ["\\\\u00e9couter", 14], ["exercer", 14], ["sugg\\\\u00e9rer", 14], ["entrer", 14], ["parvenir", 14], ["construire", 14], ["invoquer", 14], ["affirmer", 14], ["imaginer", 14], ["produire", 14], ["pr\\\\u00e9tendre", 14], ["dominer", 14], ["soulever", 14], ["servir", 14], ["d\\\\u00e9truire", 14], ["percevoir", 14], ["d\\\\u00e9poser", 14], ["poster", 14], ["admettre", 14], ["chercher", 14], ["souligner", 14], ["utiliser", 14], ["d\\\\u00e9rouler", 9], ["gouverner", 9], ["inverser", 9], ["rechercher", 9], ["opposer", 9], ["plaire", 9], ["d\\\\u00e9placer", 9], ["lutter", 9], ["pratiquer", 9], ["estimer", 9], ["modifier", 9], ["citer", 9], ["conduire", 9], ["convaincre", 9], ["r\\\\u00e9sulter", 9], ["connais", 9], ["reculer", 9], ["organiser", 9], ["corriger", 9], ["apporter", 9], ["d\\\\u00e9penser", 9], ["contenter", 9], ["aboutir", 9], ["supposer", 9], ["recevoir", 9], ["autoriser", 9], ["manifester", 9], ["accumuler", 9], ["garantir", 9], ["favoriser", 9], ["pousser", 9], ["souvenir", 9], ["suffire", 9], ["distinguer", 9], ["emp\\\\u00eacher", 9], ["traduire", 9], ["couper", 9], ["compl\\\\u00e9ter", 9], ["confirmer", 9], ["traiter", 9], ["contenir", 9], ["contribuer", 9], ["d\\\\u00e9montrer", 9], ["r\\\\u00e9gler", 9], ["refuser", 9], ["disposer", 9], ["d\\\\u00e9cider", 9], ["monter", 9], ["mourir", 9], ["constater", 9], ["co\\\\u00fbter", 9], ["d\\\\u00e9faire", 9], ["projeter", 4], ["peser", 4], ["aider", 4], ["d\\\\u00e9sorganiser", 4], ["continuer", 4], ["d\\\\u00e9roger", 4], ["partager", 4], ["attendre", 4], ["animer", 4], ["importer", 4], ["soustraire", 4], ["assister", 4], ["r\\\\u00e9p\\\\u00e9ter", 4], ["refonder", 4], ["aimer", 4], ["r\\\\u00e9f\\\\u00e9rer", 4], ["insister", 4], ["pr\\\\u00e9sider", 4], ["sortir", 4], ["poss\\\\u00e9der", 4], ["d\\\\u00e9porter", 4], ["fausser", 4], ["installer", 4], ["d\\\\u00e9couvrir", 4], ["argumenter", 4], ["surgir", 4], ["emb\\\\u00eater", 4], ["ressembler", 4]]\\\');\\n\\n        function showNuage(lex) {\\n            if (lex==\\\'verbatim\\\') {\\n                return\\n            }\\n            var div = document.getElementById("sourrounding_div_"+lex);\\n            var canvas = document.getElementById("wordcanvas_"+lex);\\n\\n            canvas.height = div.offsetHeight;\\n            canvas.width  = div.offsetWidth;\\n\\n            WordCloud(document.getElementById(\\\'wordcanvas_\\\'+lex), {\\n                gridSize: Math.round(16 * document.getElementById(\\\'wordcanvas_\\\'+lex).offsetWidth / 1024),\\n                weightFactor: function (size) {\\n                    return 0.3*size;\\n                },\\n                list: wordlist[lex],\\n                color: function(word, weight) {\\n                    if (weight < 30) {\\n                        return \\\'#82cde2\\\';\\n                    } else if (weight < 130) {\\n                        return \\\'#213558\\\';\\n                    }\\n                    return \\\'#ff0052\\\';\\n                },\\n                backgroundColor: \\\'transparent\\\'\\n            });\\n        }\\n\\n        function drawNuage() {\\n            showNuage(\\\'noms\\\');\\n            showNuage(\\\'verbs\\\');\\n        }\\n\\n        drawNuage();\\n        var resizeDebounce;\\n        $(window).resize(function() {\\n            clearTimeout(resizeDebounce);\\n            resizeDebounce = setTimeout(function() {\\n                window.requestAnimationFrame(function() {\\n                    drawNuage();\\n                });\\n            }, 100);\\n        });\\n    });\\n    </script>\\n    \', escape=False)\n    response.write(\'\\n</body>\\n</html>\\n\', escape=False)'
p7
sS'snapshot'
p8
(dp9
sS'traceback'
p10
S'None\n'
p11
s.