(dp1
S'output'
p2
S"<type 'exceptions.NameError'> name 'depute_autresandats' is not defined"
p3
sS'layer'
p4
S'/home/www-data/web2py/applications/observatoireassemblee/views/depute/index.html'
p5
sS'code'
p6
S'response.write(\'<!DOCTYPE html>\\n<html lang="fr">\\n<head>\\n    <meta charset="utf-8">\\n    <meta http-equiv="x-ua-compatible" content="ie=edge">\\n    <title>ObsAss</title>\\n    <meta name="description" content="">\\n    <meta name="viewport" content="width=device-width, initial-scale=1">\\n\\n    <link href="https://fonts.googleapis.com/css?family=Montserrat:400,600,700" rel="stylesheet">\\n    <link href="https://maxcdn.bootstrapcdn.com/font-awesome/4.7.0/css/font-awesome.min.css" rel="stylesheet">\\n    <link rel="stylesheet" href="\', escape=False)\nresponse.write(URL(\'static\',\'css/main.css\'))\nresponse.write(\'" rel="stylesheet">\\n</head>\\n<body>\\n    <nav id="main-nav" class="flex">\\n        <img src="\', escape=False)\nresponse.write(URL(\'static\',\'assets/logo.png\'))\nresponse.write(\'" alt="Observatoire Insoumis">\\n        <ul>\\n            <li>Programme Pr\\xc3\\xa9sidentiel</li>\\n            <li>Gouvernement</li>\\n            <li>Assembl\\xc3\\xa9e Nationale</li>\\n        </ul>\\n    </nav>\\n    <header id="header">\\n        Header super chouette sisi !\\n    </header>\\n    <nav id="sub-nav">\\n        <ul>\\n            <li><i class="fa fa-users" aria-hidden="true"></i> Groupes</li>\\n            <li><i class="fa fa-user-circle-o" aria-hidden="true"></i> D\\xc3\\xa9put\\xc3\\xa9s</li>\\n            <li><i class="fa fa-thumbs-up" aria-hidden="true"></i> Suivi FI</li>\\n        </ul>\\n    </nav>\\n    \', escape=False)\nresponse.write(\'\\n    <div id="depute-template" class="container">\\n        <div class="depute-header">\\n            <div class="depute-photo">\\n                <img src="http://www2.assemblee-nationale.fr/static/tribun/15/photos/\', escape=False)\nresponse.write(depute_uid[2:])\nresponse.write(\'.jpg"/>\\n            </div>\\n            <div class="depute-identite">\\n                <header>\\n                    <h2><span>\', escape=False)\nresponse.write("%s / %s / %se circ" % (depute_region,depute_departement,depute_circo))\nresponse.write(\'</span></h2>\\n                    <h1>\', escape=False)\nresponse.write(depute_nom)\nresponse.write(\'</h1>\\n                </header>\\n\\n                <div class="depute-contacts">\\n                    \', escape=False)\nfor contact in depute_contacts:\n    if (contact[\'type\']==u\'mail\'):\n        response.write(\'<a class="depute-contact" href="mailto:\', escape=False)\n        response.write(contact[\'lien\'])\n        response.write(\'"><i class="fa fa-envelope-o"></i></a>\\n                    \', escape=False)\n    elif (contact[\'type\']==\'twitter\'):\n        response.write(\'<a class="depute-contact" href="https://twitter.com/\', escape=False)\n        response.write(contact[\'lien\'][2:])\n        response.write(\'"><i class="fa fa-twitter"></i></a>\\n                    \', escape=False)\n    elif (contact[\'type\']==\'facebook\'):\n        response.write(\'<a class="depute-contact" href="https://fr-fr.facebook.com/\', escape=False)\n        response.write(contact[\'lien\'])\n        response.write(\'"><i class="fa fa-facebook-square"></i></a>\\n                    \', escape=False)\n    elif (contact[\'type\']==\'site\'):\n        response.write(\'<a class="depute-contact" href="http://\', escape=False)\n        response.write(contact[\'lien\'])\n        response.write(\'"><i class="fa fa-globe"></i></a>\\n                    \', escape=False)\n        pass\n    response.write(\'\\n                    \', escape=False)\n    pass\nresponse.write(\'\\n                </div>\\n\\n                <div class="depute-groupe \', escape=False)\nresponse.write(groupe_abrev)\nresponse.write(\'"><i class="fa fa-group"></i> <a href="\', escape=False)\nresponse.write(URL(\'groupe\',\'index\',args=[groupe_abrev]))\nresponse.write(\'">\', escape=False)\nresponse.write(groupe_libelle)\nresponse.write(\'</a></div>\\n                <div class="depute-infos"><span>\', escape=False)\nresponse.write("%s, %s" % (depute_profession, depute_naissance))\nresponse.write(\'</span></div>\\n                <div class="depute-infos"><span>Participation : \', escape=False)\nresponse.write("%s/%s" % (stats[\'ranks\'][\'exprimes\'] or \'-\', 577))\nresponse.write(\'</span><br /><span>Dissidence : \', escape=False)\nresponse.write("%s/%s" % (stats[\'ranks\'][\'dissidence\'] or \'-\', 577))\nresponse.write(\'</span></div>\\n                <div class="depute-infos"><span>Suppl\\xc3\\xa9ant : \', escape=False)\nresponse.write(depute_suppleant)\nresponse.write(\'</span></div>\\n            </div>\\n        </div>\\n\\n        <div class="tab-container">\\n            <header>\\n                <input id="tab1" type="radio" name="tabs" value="presentation">\\n                <label for="tab1"><i class="fa fa-id-card-o"></i><span>Pr\\xc3\\xa9sentation</span></label>\\n\\n                <input id="tab2" type="radio" name="tabs" value="interventions">\\n                <label for="tab2"><i class="fa fa-comment-o"></i><span>Interventions</span></label>\\n\\n                <input id="tab3" type="radio" name="tabs" value="votes" checked>\\n                <label for="tab3"><i class="fa fa-hand-paper-o"></i><span>Votes</span></label>\\n            </header>\\n\\n            <section id="presentation" class="tab-content"> <!-- Pr\\xc3\\xa9sentation -->\\n                <div class="depute-hemicycle">\\n                    <object id="hemicycle" data="\', escape=False)\nresponse.write(URL(\'static\',\'images/hemicyclelight.svg\'))\nresponse.write(\'" type="image/svg+xml"></object>\\n                </div>\\n                <div class="depute-fonctions">\\n                    <h2>Fonctions / Mandats</h2>\\n                    <ul class="fa-ul">\\n                        <li><i class="fa fa-li fa-arrow-circle-o-right"></i> Membre de l\\\'Assembl\\xc3\\xa9e \', escape=False)\nif \'depute_actif\':\n    response.write(\'depuis le \', escape=False)\n    response.write(depute_mandat_debut)\nelse:\n    response.write(\'du %s au %s\' % (depute_mandat_debut,depute_mandat_fin))\n    pass\nresponse.write(\'</li>\\n                        \', escape=False)\nif depute_bureau:\n    response.write(\'<li><i class="fa fa-li fa-arrow-circle-o-right"></i> \', escape=False)\n    response.write(depute_bureau)\n    response.write(\'</li>\', escape=False)\n    pass\nresponse.write(\'\\n                        \', escape=False)\nfor typ,mandats in depute_mandats.iteritems():\n    for m in mandats:\n        response.write(\'\\n                        <li>\\n                            <i class="fa fa-li fa-arrow-circle-o-right"></i> <a href="\', escape=False)\n        response.write(m[\'lien\'])\n        response.write(\'">\', escape=False)\n        response.write(m[\'nom\'])\n        response.write(\'</a> (\', escape=False)\n        response.write(m[\'qualite\'])\n        response.write(\')\\n                        </li>\\n                        \', escape=False)\n        pass\n    pass\nresponse.write(\'\\n                    </ul>\\n                    \', escape=False)\nif depute_autresandats:\n    response.write(\'\\n                    <h2>Autres Mandats</h2>\\n                    <ul class="fa-ul">\\n                        \', escape=False)\n    for am in depute_autresmandats:\n        response.write(\'\\n                        <li>\\n                            <i class="fa fa-li fa-arrow-circle-o-right"></i> \', escape=False)\n        response.write(am)\n        response.write(\'\\n                        </li>\', escape=False)\n        pass\n    response.write(\'\\n                    </ul>\\n                    \', escape=False)\n    pass\nresponse.write(\'\\n                </div>\\n                <div class="depute-watch">\\n                    <h2>Deputy Watch</h2>\\n                    <div class="flex">\\n                        <img src="\', escape=False)\nresponse.write(URL(\'static\',\'assets/deputywatch.png\'))\nresponse.write(\'" alt="Deputy Watch">\\n                        <div>\\n                            Le site Deputy Watch tente de recenser les ant\\xc3\\xa9c\\xc3\\xa9dents judiciaires de notori\\xc3\\xa9t\\xc3\\xa9 publique des \\xc3\\xa9lus.\\n                            Nous y avons cherch\\xc3\\xa9 ce d\\xc3\\xa9put\\xc3\\xa9 et il semblerait qu\\\'il y soit list\\xc3\\xa9.<br />\\n                            <a href="https://www.deputywatch.org/afficherDepute/?nom=Serville&amp;prenom=Gabriel&amp;consulter=1" target="_blank">\\n                                <i class="fa fa-arrow-circle-o-right"></i> Voir le r\\xc3\\xa9sultat\\n                            </a>\\n                        </div>\\n                    </div>\\n                </div>\\n\\n                <div>\\n                    <h2>D\\xc3\\xa9claration \\xc3\\xa0 la HATVP</h2>\\n                    <ul class="fa-ul">\\n                        <li>\\n                            <a href="http://www.hatvp.fr/livraison/dossiers/dispense" target="_blank">\\n                                <i class="fa fa-li fa-file-text-o"></i>\\n                                D\\xc3\\xa9claration d\\xe2\\x80\\x99int\\xc3\\xa9r\\xc3\\xaats - Maire de Matoury\\n                            </a>\\n                        </li>\\n                    </ul>\\n                </div>\\n            </section>\\n\\n\\t\\t\\t<section id="interventions" class="tab-content"> <!-- Interventions -->\\n                <div class="depute-interventions-recap">\\n                    Nombre d\\\'interventions : <span>311</span>, nombre de mots : <span>23812</span>\\n                </div>\\n                <div class="depute-interventions-cloud">\\n                    <div>\\n                        <h2>Ses mots</h2>\\n                        <div id="sourrounding_div_noms" class="cloud">\\n                            <canvas id="wordcanvas_noms"></canvas>\\n                        </div>\\n                    </div>\\n                    <div>\\n                        <h2>Ses verbes</h2>\\n                        <div id="sourrounding_div_verbs" class="cloud">\\n                            <canvas id="wordcanvas_verbs"></canvas>\\n                        </div>\\n                    </div>\\n                </div>\\n                <div id="itvlist">\\n                    <h2>Ses interventions</h2>\\n                    <div class="depute-interventions-search">\\n                        <label for="search"><i class="fa fa-search" aria-hidden="true"></i></label>\\n                        <input class="search" placeholder="Rechercher une intervention">\\n                    </div>\\n                    <ul class="fa-ul">\\n                        <li>\\n                            <i class="fa fa-list fa-comment"></i>\\n                            <a href="http://www.assemblee-nationale.fr/15/cri/2016-2017-extra/20171033.asp#P1019124" target="_blank">\\n                                <h3>S\\xc3\\xa9ance du mercredi 09 ao\\xc3\\xbbt 2017 / 2. Questions au Gouvernement / Bilan de la session extraordinaire</h3>\\n                            </a>\\n                            <blockquote>Pour notre malheur !</blockquote>\\n                        </li>\\n                        <li>\\n                            <i class="fa fa-list fa-comment"></i>\\n                            <a href="http://www.assemblee-nationale.fr/15/cri/2016-2017-extra/20171033.asp#P1019138" target="_blank">\\n                                <h3>S\\xc3\\xa9ance du mercredi 09 ao\\xc3\\xbbt 2017 / 2. Questions au Gouvernement / Bilan de la session extraordinaire</h3>\\n                            </a>\\n                            <blockquote>Vos histoires de famille, on s\\xe2\\x80\\x99en fout !</blockquote>\\n                        </li>\\n                        <li>\\n                            <i class="fa fa-list fa-comment"></i>\\n                            <a href="http://www.assemblee-nationale.fr/15/cri/2016-2017-extra/20171033.asp#P1019360" target="_blank">\\n                                <h3>S\\xc3\\xa9ance du mercredi 09 ao\\xc3\\xbbt 2017 / 2. Questions au Gouvernement / Ma\\xc3\\xaetrise des flux migratoires</h3>\\n                            </a>\\n                            <blockquote>La faute \\xc3\\xa0 qui ?</blockquote>\\n                        </li>\\n                        <li>\\n                            <i class="fa fa-list fa-comment"></i>\\n                            <a href="http://www.assemblee-nationale.fr/15/cri/2016-2017-extra/20171033.asp#P1019469" target="_blank">\\n                                <h3>S\\xc3\\xa9ance du mercredi 09 ao\\xc3\\xbbt 2017 / 2. Questions au Gouvernement / Allocation de rentr\\xc3\\xa9e scolaire</h3>\\n                            </a>\\n                            <blockquote>Et vous fermez des lyc\\xc3\\xa9es !</blockquote>\\n                        </li>\\n                        <li>\\n                            <i class="fa fa-list fa-comment"></i>\\n                            <a href="http://www.assemblee-nationale.fr/15/cri/2016-2017-extra/20171033.asp#P1019206" target="_blank">\\n                                <h3>S\\xc3\\xa9ance du mercredi 09 ao\\xc3\\xbbt 2017 / 2. Questions au Gouvernement / Privatisation des a\\xc3\\xa9roports</h3>\\n                            </a>\\n                            <blockquote>Ah oui ! \\xc3\\x80 bas le capital !</blockquote>\\n                        </li>\\n                    </ul>\\n                </div>\\n\\t\\t\\t</section>\\n\\n\\t\\t\\t<section id="votes" class="tab-content"> <!-- Votes -->\\n\\t\\t\\t\\t<div class="depute-votes-recap">\\n                    <div class="gauge">\\n                        <h2>Participation</h2>\\n                        <svg onload="init(evt)" pct="63" unit="%" viewBox="0 0 220 220" preserveAspectRatio= "xMinYMin meet" >\\n                            <script type="text/ecmascript"><![CDATA[\\n                                function polarToCartesian(centerX, centerY, radius, angleInDegrees) {\\n                                    var angleInRadians = (angleInDegrees-90) * Math.PI / 180.0;\\n                                    return {\\n                                    x: centerX + (radius * Math.cos(angleInRadians)),\\n                                    y: centerY + (radius * Math.sin(angleInRadians))\\n                                    };\\n                                }\\n\\n                                function describeArc(x, y, radius, startAngle, endAngle){\\n                                    var start = polarToCartesian(x, y, radius, endAngle);\\n                                    var end = polarToCartesian(x, y, radius, startAngle);\\n\\n                                    var largeArcFlag = endAngle - startAngle <= 180 ? "0" : "1";\\n\\n                                    var d = [\\n                                    "M", start.x, start.y,\\n                                    "A", radius, radius, 0, largeArcFlag, 0, end.x, end.y\\n                                    ].join(" ");\\n\\n                                    return d;\\n                                }\\n\\n                                function init(evt) {\\n                                    var svgDocument = evt.target;\\n\\n                                    pct = svgDocument.getAttribute("pct");\\n                                    svgDocument.getElementById("pct").textContent=pct+svgDocument.getAttribute("unit");\\n                                    svgDocument.getElementById("arc1").setAttribute("d", describeArc(110, 110, 100, 220, 500));\\n                                    // svgDocument.getElementById("arc2").setAttribute("d", describeArc(110, 110, 100, 220, 220+280*(pct/100)));\\n                                    var limit = 280*(pct/100);\\n                                    var nextval = 0;\\n                                    anime();\\n                                    function anime() {\\n                                        if (nextval<limit) {\\n                                            svgDocument.getElementById("arc2").setAttribute("d", describeArc(110, 110, 100, 220, 220+nextval));\\n                                            nextval = nextval + limit/20;\\n                                            setTimeout(anime,30);\\n                                        } else {\\n                                            svgDocument.getElementById("arc2").setAttribute("d", describeArc(110, 110, 100, 220, 220+limit));\\n                                        }\\n                                    }\\n                                }\\n                            ]]></script>\\n                            <text id="pct" text-anchor="middle" x="115" y="205" font-size="38" font-weight="bold" fill="#82cde2" style="font-family: \\\'Montserrat\\\', sans serif;"></text>\\n                            <path id="arc1" fill="none" stroke="#82cde2" stroke-opacity="0.33" stroke-width="20" />\\n                            <path id="arc2" fill="none" stroke="#82cde2" stroke-width="20" />\\n                            <g transform="translate(53,42),scale(0.22)" id="layer1">\\n                                <rect\\n                                    ry="0"\\n                                    y="437.55606"\\n                                    x="12.830188"\\n                                    height="39.228226"\\n                                    width="329.1687"\\n                                    id="rect5428"\\n                                    style="fill:#82cde2;fill-opacity:1;stroke:none;stroke-width:24;stroke-linecap:round;stroke-linejoin:round;stroke-miterlimit:4;stroke-dasharray:none;stroke-dashoffset:23;stroke-opacity:1;paint-order:stroke fill markers"\\n                                />\\n                                <path\\n                                    style="color:#82cde2;font-style:normal;font-variant:normal;font-weight:normal;font-stretch:normal;font-size:medium;line-height:normal;font-family:sans-serif;font-variant-ligatures:normal;font-variant-position:normal;font-variant-caps:normal;font-variant-numeric:normal;font-variant-alternates:normal;font-feature-settings:normal;text-indent:0;text-align:start;text-decoration:none;text-decoration-line:none;text-decoration-style:solid;text-decoration-color:#82cde2;letter-spacing:normal;word-spacing:normal;text-transform:none;writing-mode:lr-tb;direction:ltr;text-orientation:mixed;dominant-baseline:auto;baseline-shift:baseline;text-anchor:start;white-space:normal;shape-padding:0;clip-rule:nonzero;display:inline;overflow:visible;visibility:visible;opacity:1;isolation:auto;mix-blend-mode:normal;color-interpolation:sRGB;color-interpolation-filters:linearRGB;solid-color:#82cde2;solid-opacity:1;vector-effect:none;fill:#82cde2;fill-opacity:1;fill-rule:nonzero;stroke:none;stroke-width:60;stroke-linecap:round;stroke-linejoin:round;stroke-miterlimit:4;stroke-dasharray:none;stroke-dashoffset:0;stroke-opacity:1;color-rendering:auto;image-rendering:auto;shape-rendering:auto;text-rendering:auto;enable-background:accumulate"\\n                                    d="m 208.61133,97.583984 c -5.37532,-0.08198 -10.61978,1.64167 -14.89844,4.896486 -3.20059,2.43511 -5.73755,5.63518 -7.37891,9.30664 l -53.40429,119.46875 h 52.57617 l 36.57812,-81.82422 c 0.9793,-2.19041 3.16927,-3.5869 5.56836,-3.55078 110.67668,-20.44187 233.93101,54.13164 179.73633,-45.26172 z"\\n                                    id="path5391"\\n                                    inkscape:connector-curvature="0"\\n                                    sodipodi:nodetypes="ccccccccc"\\n                                />\\n                                <path\\n                                    style="fill:#82cde2;fill-opacity:1;stroke:none;stroke-width:24;stroke-linecap:round;stroke-linejoin:round;stroke-miterlimit:4;stroke-dasharray:none;stroke-dashoffset:23;stroke-opacity:1;paint-order:stroke fill markers"\\n                                    d="M 57.335938,243.25586 V 425.47461 H 300.91992 v -133.9375 l -90.30469,57.75781 c -18.65185,11.92939 -43.90661,7.53751 -55.74414,-10.9707 -11.83757,-18.50828 -5.23191,-43.27572 13.41993,-55.20508 l 62.32812,-39.86328 z m 217.826172,0 -93.94141,60.08203 c -8.46276,5.41262 -10.57709,15.10292 -6.13086,22.05469 4.44628,6.95183 14.13101,9.09621 22.59375,3.68359 l 98.92969,-63.27344 a 12.0012,12.0012 0 0 1 4.30664,-1.68554 v -20.86133 z"\\n                                    id="rect5426"\\n                                    inkscape:connector-curvature="0"\\n                                />\\n                                <path\\n                                    style="fill:none;stroke:#82cde2;stroke-width:0;stroke-linecap:butt;stroke-linejoin:miter;stroke-miterlimit:4;stroke-dasharray:none;stroke-opacity:1"\\n                                    d="M 173.0876,317.36353 374.7819,190.95231"\\n                                    id="path5393"\\n                                    inkscape:connector-curvature="0"\\n                                />\\n                                <path\\n                                    style="fill:#82cde2;fill-opacity:1;stroke:none;stroke-width:24;stroke-linecap:round;stroke-linejoin:round;stroke-miterlimit:4;stroke-dasharray:none;stroke-dashoffset:23;stroke-opacity:1;paint-order:stroke fill markers"\\n                                    d="m 414.01562,79.416016 c -22.46658,9.978413 -45.69018,17.990088 -66.04492,19.933593 l -2.38281,1.093751 c -11.02275,5.06067 -17.15788,16.31194 -16.16992,27.70898 l -113.1875,10.68946 c 0,0 -18.33552,60.43982 -17.63672,62.64258 0.0425,0.13405 0.14753,0.20707 0.28125,0.25195 a 6.0006,6.0006 0 0 1 2.3457,-3.05469 c 10.09511,-6.88499 16.10147,-11.51309 20.50196,-14.3457 2.20024,-1.41631 3.88175,-2.5931 6.78125,-3.03125 0.72487,-0.10963 1.57457,-0.12415 2.44726,-0.004 0.87269,0.12024 1.76813,0.37417 2.58594,0.80469 1.63561,0.86104 2.69522,2.16955 3.3457,3.26953 11.4482,19.35897 12.28601,36.9638 12.83594,56.56445 a 6.0006,6.0006 0 0 1 -3.87695,5.82422 l -71.08594,45.46485 c -13.5573,8.67099 -17.91729,25.90081 -9.77539,38.63086 8.1419,12.73 25.61067,15.99717 39.16797,7.32617 l 98.92968,-63.27344 c 10e-6,0 40.97163,1.37873 122.50782,-73.34961 l 60.55664,-29.56055 A 360.56604,360.56604 0 0 0 414.01562,79.416016 Z"\\n                                    id="rect5416"\\n                                    inkscape:connector-curvature="0"\\n                                />\\n                            </g>\\n                        </svg>\\n                    </div>\\n                    <div class="gauge">\\n                        <h2>Contre son groupe</h2>\\n                        <svg onload="init(evt)" pct="0" unit="%" viewBox="0 0 220 220" preserveAspectRatio= "xMinYMin meet" >\\n                            <script type="text/ecmascript"><![CDATA[\\n                                function polarToCartesian(centerX, centerY, radius, angleInDegrees) {\\n                                    var angleInRadians = (angleInDegrees-90) * Math.PI / 180.0;\\n                                    return {\\n                                        x: centerX + (radius * Math.cos(angleInRadians)),\\n                                        y: centerY + (radius * Math.sin(angleInRadians))\\n                                    };\\n                                }\\n\\n                                function describeArc(x, y, radius, startAngle, endAngle){\\n                                    var start = polarToCartesian(x, y, radius, endAngle);\\n                                    var end = polarToCartesian(x, y, radius, startAngle);\\n\\n                                    var largeArcFlag = endAngle - startAngle <= 180 ? "0" : "1";\\n\\n                                    var d = [\\n                                        "M", start.x, start.y,\\n                                        "A", radius, radius, 0, largeArcFlag, 0, end.x, end.y\\n                                    ].join(" ");\\n\\n                                    return d;\\n                                }\\n\\n                                function init(evt) {\\n                                    var svgDocument = evt.target;\\n\\n                                    pct = svgDocument.getAttribute("pct");\\n                                    svgDocument.getElementById("pct").textContent=pct+svgDocument.getAttribute("unit");\\n                                    svgDocument.getElementById("arc1").setAttribute("d", describeArc(110, 110, 100, 220, 500));\\n                                    // svgDocument.getElementById("arc2").setAttribute("d", describeArc(110, 110, 100, 220, 220+280*(pct/100)));\\n                                    var limit = 280*(pct/100);\\n                                    var nextval = 0;\\n                                    anime();\\n                                    function anime() {\\n\\n                                        if (nextval<limit) {\\n                                            svgDocument.getElementById("arc2").setAttribute("d", describeArc(110, 110, 100, 220, 220+nextval));\\n                                            nextval = nextval + limit/20;\\n                                            setTimeout(anime,30);\\n                                        } else {\\n                                            svgDocument.getElementById("arc2").setAttribute("d", describeArc(110, 110, 100, 220, 220+limit));\\n                                        }\\n                                    }\\n                                }\\n                            ]]></script>\\n                            <text id="pct" text-anchor="middle" x="115" y="205" font-size="38" font-weight="bold" fill="#82cde2" style="font-family: \\\'Montserrat\\\', sans serif;"></text>\\n                            <path id="arc1" fill="none" stroke="#82cde2" stroke-opacity="0.23" stroke-width="20" />\\n                            <path id="arc2" fill="none" stroke="#82cde2" stroke-width="20" />\\n                            <g transform="translate(52,40),scale(0.22)" id="layer1">\\n                                <path\\n                                    style="fill:#82cde2;fill-opacity:1;stroke:none;stroke-width:24;stroke-linecap:round;stroke-linejoin:round;stroke-miterlimit:4;stroke-dasharray:none;stroke-dashoffset:23;stroke-opacity:1;paint-order:stroke fill markers"\\n                                    d="m 176.93055,289.28046 2.78983,28.69129 c 31.57624,11.14418 70.14267,14.47012 110.45284,3.51376 45.80256,-12.44923 67.35614,-33.86192 78.85702,-62.97346 0.99822,-2.52674 1.90801,-5.12634 2.73842,-7.79185 z m 5.31971,54.70867 14.11257,145.10139 a 289.492,289.492 0 0 0 162.69765,-12.33428 289.492,289.492 0 0 0 40.57,-19.35255 L 378.0565,292.03944 c -16.67453,23.65974 -43.08969,42.14146 -81.58991,52.60589 -40.91061,11.11959 -80.40434,9.21301 -114.21633,-0.6562 z"\\n                                    id="path5313"\\n                                    inkscape:connector-curvature="0"\\n                                />\\n                                <path\\n                                    style="fill:#82cde2;fill-opacity:1;stroke:none;stroke-width:23.99999809;stroke-linecap:butt;stroke-linejoin:miter;stroke-miterlimit:4;stroke-dasharray:none;stroke-opacity:1;paint-order:markers stroke fill"\\n                                    d="m 103.9301,161.25661 c 0,0 -25.450374,44.19244 -10.453775,95.6187 14.996595,51.42625 102.980365,102.51661 199.844145,76.18885 88.84516,-24.14829 101.12621,-87.11022 97.48546,-164.54925 -5.43662,6.31562 -12.84347,10.90863 -21.59285,12.59296 -14.23569,2.7405 -27.92492,-3.08716 -36.86695,-13.54711 -4.7554,12.21002 -15.08548,21.85655 -28.67791,24.47322 -18.46122,3.55394 -36.17597,-7.13994 -43.52857,-23.92163 -4.65268,12.18237 -15.30329,21.77064 -29.02108,24.41143 l -21.01348,4.04628 c 3.75554,1.49 7.269,3.36436 10.54192,5.66938 16.28912,11.47197 25.05563,32.20428 30.09957,62.6221 a 6.0006,6.0006 0 1 1 -11.83859,1.96312 c -4.8184,-29.0577 -12.84472,-46.09544 -25.16987,-54.7757 -12.32516,-8.68027 -30.61932,-10.22492 -58.50553,-4.85658 a 6.0006,6.0006 0 0 1 -0.87391,0.10859 l -2.89705,0.55788 a 6.0006,6.0006 0 1 1 -2.26806,-11.78328 l 79.65694,-15.33507 c 13.12579,-2.52683 22.04207,-13.84309 21.8544,-26.69796 z m 176.58619,-8.67866 0.39174,2.03665 c 1.89904,9.86468 10.12029,15.41286 18.22407,13.85281 7.4827,-1.44048 12.79377,-8.55169 12.0709,-17.39843 z m 67.89482,-3.33615 c 3.36639,6.29709 9.84759,9.53507 16.26585,8.2995 5.11277,-0.98424 9.21471,-4.61884 11.07172,-9.6429 z"\\n                                    id="path5315"\\n                                    inkscape:connector-curvature="0"\\n                                />\\n                                <path\\n                                    style="fill:#82cde2;fill-opacity:1;stroke:none;stroke-width:24;stroke-linecap:round;stroke-linejoin:round;stroke-miterlimit:4;stroke-dasharray:none;stroke-dashoffset:23;stroke-opacity:0.97942349;paint-order:markers stroke fill"\\n                                    d="M 202.4636,41.700207 C 189.98116,46.265439 182.43956,59.945 185.19655,74.266417 l 8.87236,46.084983 22.32769,-4.29926 c 12.89484,-2.48238 25.54959,1.74425 34.36749,10.22002 L 238.76583,63.953482 c -3.0422,-15.802941 -17.43682,-26.224579 -32.2754,-23.368027 -1.39112,0.267801 -2.73554,0.642486 -4.02683,1.114752 z m -6.12664,90.434473 2.77209,14.39574 c 3.0422,15.80294 17.43683,26.22458 32.27541,23.36803 8.85252,-1.70419 15.80077,-7.73878 19.32259,-15.68538 -0.0138,-1.65182 -0.17118,-3.32777 -0.49623,-5.01621 -2.84069,-14.7563 -16.7891,-24.20034 -31.54546,-21.35962 z"\\n                                    id="rect5321"\\n                                    inkscape:connector-curvature="0"\\n                                />\\n                                <path\\n                                    style="fill:#82cde2;fill-opacity:1;stroke:none;stroke-width:24;stroke-linecap:round;stroke-linejoin:round;stroke-miterlimit:4;stroke-dasharray:none;stroke-dashoffset:23;stroke-opacity:0.97942349;paint-order:markers stroke fill"\\n                                    d="m 138.72858,62.022101 c -12.48246,4.565235 -20.02335,18.246618 -17.26636,32.568035 l 7.37678,38.318614 53.56745,-10.31224 -7.37678,-38.318612 c -3.0422,-15.802942 -17.43752,-26.226405 -32.2761,-23.369853 -1.39112,0.267801 -2.73371,0.64179 -4.02499,1.114056 z m -7.62152,82.669939 1.23256,6.40371 c 3.04219,15.80294 17.4375,26.22641 32.27609,23.36986 14.83859,-2.85656 24.33424,-17.87732 21.29204,-33.68027 l -1.23324,-6.40554 z"\\n                                    id="rect5323"\\n                                    inkscape:connector-curvature="0"\\n                                />\\n                                <rect\\n                                    transform="matrix(0.18903748,0.98196987,0.98196987,-0.18903748,0,0)"\\n                                    ry="27.276249"\\n                                    y="66.580635"\\n                                    x="166.34529"\\n                                    height="150.66879"\\n                                    width="54.55249"\\n                                    id="rect5325"\\n                                    style="fill:#82cde2;fill-opacity:1;stroke:none;stroke-width:24;stroke-linecap:round;stroke-linejoin:round;stroke-miterlimit:4;stroke-dasharray:none;stroke-dashoffset:23;stroke-opacity:1;paint-order:markers stroke fill"\\n                                />\\n                                <rect\\n                                    transform="matrix(-0.98196987,0.18903748,0.18903748,0.98196987,0,0)"\\n                                    ry="29.048922"\\n                                    y="121.10139"\\n                                    x="-355.59692"\\n                                    height="114.53574"\\n                                    width="54.552498"\\n                                    id="rect5317"\\n                                    style="fill:#82cde2;fill-opacity:1;stroke:none;stroke-width:24;stroke-linecap:round;stroke-linejoin:round;stroke-miterlimit:4;stroke-dasharray:none;stroke-dashoffset:23;stroke-opacity:0.97942349;paint-order:markers stroke fill"\\n                                />\\n                                <rect\\n                                    transform="matrix(-0.98196987,0.18903748,0.18903748,0.98196987,0,0)"\\n                                    style="fill:#82cde2;fill-opacity:1;stroke:none;stroke-width:24;stroke-linecap:round;stroke-linejoin:round;stroke-miterlimit:4;stroke-dasharray:none;stroke-dashoffset:23;stroke-opacity:0.97942349;paint-order:markers stroke fill"\\n                                    id="rect5319"\\n                                    width="54.552505"\\n                                    height="136.11494"\\n                                    x="-289.16772"\\n                                    y="97.862259"\\n                                    ry="29.048922"\\n                                />\\n                            </g>\\n                        </svg>\\n                    </div>\\n                    <div class="gauge">\\n                        <h2>FI-Compatibilit\\xc3\\xa9</h2>\\n                        <svg onload="init(evt)" pct="100" unit="%" viewBox="0 0 220 220" preserveAspectRatio= "xMinYMin meet" >\\n                            <script type="text/ecmascript"><![CDATA[\\n                                function polarToCartesian(centerX, centerY, radius, angleInDegrees) {\\n                                    var angleInRadians = (angleInDegrees-90) * Math.PI / 180.0;\\n                                    return {\\n                                        x: centerX + (radius * Math.cos(angleInRadians)),\\n                                        y: centerY + (radius * Math.sin(angleInRadians))\\n                                    };\\n                                }\\n\\n                                function describeArc(x, y, radius, startAngle, endAngle){\\n                                    var start = polarToCartesian(x, y, radius, endAngle);\\n                                    var end = polarToCartesian(x, y, radius, startAngle);\\n\\n                                    var largeArcFlag = endAngle - startAngle <= 180 ? "0" : "1";\\n\\n                                    var d = [\\n                                        "M", start.x, start.y,\\n                                        "A", radius, radius, 0, largeArcFlag, 0, end.x, end.y\\n                                    ].join(" ");\\n\\n                                    return d;\\n                                }\\n\\n                                function init(evt) {\\n                                    var svgDocument = evt.target;\\n\\n                                    pct = svgDocument.getAttribute("pct");\\n                                    svgDocument.getElementById("pct").textContent=pct+svgDocument.getAttribute("unit");\\n                                    svgDocument.getElementById("arc1").setAttribute("d", describeArc(110, 110, 100, 220, 500));\\n                                    // svgDocument.getElementById("arc2").setAttribute("d", describeArc(110, 110, 100, 220, 220+280*(pct/100)));\\n                                    var limit = 280*(pct/100);\\n                                    var nextval = 0;\\n                                    anime();\\n                                    function anime() {\\n\\n                                        if (nextval<limit) {\\n                                            svgDocument.getElementById("arc2").setAttribute("d", describeArc(110, 110, 100, 220, 220+nextval));\\n                                            nextval = nextval + limit/20;\\n                                            setTimeout(anime,30);\\n                                        } else {\\n                                            svgDocument.getElementById("arc2").setAttribute("d", describeArc(110, 110, 100, 220, 220+limit));\\n                                        }\\n                                    }\\n                                }\\n                            ]]></script>\\n                            <text id="pct" text-anchor="middle" x="115" y="205" font-size="38" font-weight="bold" fill="#82cde2" style="font-family: \\\'Montserrat\\\', sans serif;"></text>\\n                            <path id="arc1" fill="none" stroke="#82cde2" stroke-opacity="0.24" stroke-width="20" />\\n                            <path id="arc2" fill="none" stroke="#82cde2" stroke-width="20" />\\n                            <g transform="translate(100,65),scale(0.14)" id="layer1">\\n                                <path\\n                                id="path5712"\\n                                d="m 76.898732,499.60035 155.981128,0 c 32.03737,-2.41937 13.6665,-33.55618 -0.2615,-71.34944 a 64.526276,60.268684 0 0 1 -3.18621,-9.05634 c -0.0585,-0.17717 -0.12118,-0.35079 -0.17929,-0.52512 l 0.0521,-0.002 a 64.526276,60.268684 0 0 1 -1.77445,-13.72571 64.526276,60.268684 0 0 1 64.52561,-60.26918 64.526276,60.268684 0 0 1 64.52656,60.26918 64.526276,60.268684 0 0 1 -1.76389,13.71933 l 0.31429,0 c -13.8673,41.9726 -38.32668,78.29185 -3.66074,80.93161 l 155.74171,0 0,-155.75279 c -2.63962,-34.66878 -38.95622,-10.20756 -80.9258,3.66094 l -0.0106,-0.31535 a 60.264294,64.530975 0 0 1 -13.71799,1.76386 60.264294,64.530975 0 0 1 -60.26499,-64.53107 60.264294,64.530975 0 0 1 60.26499,-64.53035 l 10e-4,0 a 60.264294,64.530975 0 0 1 13.72433,1.77449 l 0.002,-0.0532 c 0.1761,0.0567 0.34937,0.12047 0.52508,0.18071 a 60.264294,64.530975 0 0 1 9.05574,3.18649 c 37.7905,13.92874 68.92469,32.30114 71.34399,0.26221 l 0,-155.992684 -155.7416,0 c -34.66591,-2.63977 -10.20653,-38.95902 3.66073,-80.931616 l -0.31429,0 a 64.526276,60.268684 0 0 0 1.764,-13.718696 64.526276,60.268684 0 0 0 -64.52664,-60.269528 64.526276,60.268684 0 0 0 -64.52557,60.269528 64.526276,60.268684 0 0 0 1.77446,13.725354 l -0.0517,0.0021 c 0.0581,0.177166 0.12083,0.350788 0.1793,0.525118 a 64.526276,60.268684 0 0 0 3.18621,9.0563392 c 13.92799,37.7929108 32.29887,68.9297208 0.26149,71.3490908 l -155.979668,0 0,155.992324 c 2.41923,32.04 33.553448,13.6676 71.343958,-0.2622 a 60.264294,64.530975 0 0 1 9.05669,-3.18614 c 0.17575,-0.0602 0.34902,-0.12048 0.52508,-0.18071 l 0.002,0.0531 a 60.264294,64.530975 0 0 1 13.72436,-1.77484 l 0.001,0 a 60.264294,64.530975 0 0 1 60.26499,64.53035 60.264294,64.530975 0 0 1 -60.26499,64.53142 60.264294,64.530975 0 0 1 -13.71802,-1.76386 l -0.007,0.31535 C 115.85696,333.64027 79.540262,309.17905 76.900712,343.84748 Z"\\n                                style="fill:#cccccc;fill-opacity:1;stroke:none;stroke-width:2.86136937;stroke-linecap:round;stroke-linejoin:round;stroke-miterlimit:4;stroke-dasharray:none;stroke-dashoffset:23;stroke-opacity:1;paint-order:markers fill stroke"\\n                                />\\n                                <path\\n                                id="path5714"\\n                                d="m -137.66822,-84.783471 a 64.530975,60.264294 0 0 1 64.531562,60.26563 64.530975,60.264294 0 0 1 -1.76361,13.717914 l 0.31429,0 c -12.89622,39.027753 -34.942742,73.160083 -10.09417,79.876773 l 162.18599,0 0,155.741814 c -0.0142,0.20197 -0.0379,0.39472 -0.0556,0.59386 2.62534,31.53968 33.666478,13.26047 71.317558,-0.61512 a 60.268681,64.526269 0 0 1 9.05573,-3.18543 c 0.17575,-0.0567 0.34831,-0.12048 0.52477,-0.18071 l 0.002,0.0531 a 60.268681,64.526269 0 0 1 13.72539,-1.77484 60.268681,64.526269 0 0 1 60.2703,64.52539 60.268681,64.526269 0 0 1 -60.2691,64.52646 60.268681,64.526269 0 0 1 -13.71919,-1.76351 l -0.007,0.31536 c -41.73038,-13.78701 -77.867008,-38.03492 -80.876978,-4.24488 0.0106,0.11692 0.0248,0.22677 0.0319,0.3437 l 0,155.98169 -162.18599,0 c -24.848572,6.71669 -2.80318,40.85043 10.09293,79.87819 l -0.31287,0 a 64.530975,60.264294 0 0 1 1.76361,13.71791 64.530975,60.264294 0 0 1 -64.531562,60.26563 64.530975,60.264294 0 0 1 -0.0496,-10e-4 64.530975,60.264294 0 0 1 -0.0358,10e-4 64.530975,60.264294 0 0 1 -64.53153,-60.26563 64.530975,60.264294 0 0 1 1.76365,-13.71791 l -0.31429,0 c 12.89618,-39.02776 34.94275,-73.1615 10.0941,-79.87819 l -162.18661,5e-5 0,-155.74181 c 0.0142,-0.20197 0.0379,-0.39295 0.056,-0.59138 -0.0177,-0.19134 -0.0376,-0.37205 -0.056,-0.55949 l 0,-116.79697 c 0.0106,-0.10275 0.0248,-0.19842 0.0319,-0.30118 -0.0106,-0.11693 -0.0248,-0.22677 -0.0319,-0.3437 l 0,-155.981694 0.0868,0 162.09929,0 c 24.84864,-6.7167 2.80204,-40.85044 -10.09411,-79.878192 l 0.31429,0 a 64.530975,60.264294 0 0 1 -1.76361,-13.717913 64.530975,60.264294 0 0 1 64.53029,-60.26563 l 0.001,0 a 64.530975,60.264294 0 0 1 0.0496,0.0014 64.530975,60.264294 0 0 1 0.0358,-0.0014 z"\\n                                style="fill:#82cde2;fill-opacity:1;stroke:none;stroke-width:2.86136937;stroke-linecap:round;stroke-linejoin:round;stroke-miterlimit:4;stroke-dasharray:none;stroke-dashoffset:23;stroke-opacity:1;paint-order:markers fill stroke"\\n                                />\\n                                <g style="fill:none;fill-opacity:1;stroke:#ffffff;stroke-opacity:1" transform="matrix(0.49139025,0,0,-0.49139025,-285.99394,485.93452)" id="g5718">\\n                                    <path\\n                                        style="opacity:1;fill:none;fill-opacity:1;stroke:#ffffff;stroke-width:67.58690643;stroke-linecap:round;stroke-linejoin:round;stroke-miterlimit:4;stroke-dasharray:none;stroke-dashoffset:0;stroke-opacity:1"\\n                                        d="m 251.40464,605.13746 c 34.94115,33.64879 44.78683,54.19907 34.74149,65.34646 -10.04535,11.14725 -70.43094,-10.67013 -99.03246,-27.15081 -59.40873,-34.23263 -97.198764,-97.92841 -97.198764,-174.91613 0,-116.03146 94.062034,-210.09347 210.093444,-210.09347 116.03141,0 207.74561,90.08758 210.09345,210.09347 2.34784,120.00591 -78.76312,182.2035 -148.69674,125.63889 C 271.73398,521.52696 237.34822,304.80419 286.59334,120.91415"\\n                                        id="path5716"\\n                                    />\\n                                </g>\\n                            </g>\\n                        </svg>\\n                    </div>\\n                    <div class="gauge">\\n                        <h2>EM-Compatibilit\\xc3\\xa9</h2>\\n                        <svg onload="init(evt)" pct="2" unit="%" viewBox="0 0 220 220" preserveAspectRatio= "xMinYMin meet" >\\n                            <script type="text/ecmascript"><![CDATA[\\n                                function polarToCartesian(centerX, centerY, radius, angleInDegrees) {\\n                                    var angleInRadians = (angleInDegrees-90) * Math.PI / 180.0;\\n                                    return {\\n                                        x: centerX + (radius * Math.cos(angleInRadians)),\\n                                        y: centerY + (radius * Math.sin(angleInRadians))\\n                                    };\\n                                }\\n\\n                                function describeArc(x, y, radius, startAngle, endAngle){\\n                                    var start = polarToCartesian(x, y, radius, endAngle);\\n                                    var end = polarToCartesian(x, y, radius, startAngle);\\n\\n                                    var largeArcFlag = endAngle - startAngle <= 180 ? "0" : "1";\\n\\n                                    var d = [\\n                                        "M", start.x, start.y,\\n                                        "A", radius, radius, 0, largeArcFlag, 0, end.x, end.y\\n                                    ].join(" ");\\n\\n                                    return d;\\n                                }\\n\\n                                function init(evt) {\\n                                    var svgDocument = evt.target;\\n\\n                                    pct = svgDocument.getAttribute("pct");\\n                                    svgDocument.getElementById("pct").textContent=pct+svgDocument.getAttribute("unit");\\n                                    svgDocument.getElementById("arc1").setAttribute("d", describeArc(110, 110, 100, 220, 500));\\n                                    // svgDocument.getElementById("arc2").setAttribute("d", describeArc(110, 110, 100, 220, 220+280*(pct/100)));\\n                                    var limit = 280*(pct/100);\\n                                    var nextval = 0;\\n                                    anime();\\n                                    function anime() {\\n\\n                                        if (nextval<limit) {\\n                                            svgDocument.getElementById("arc2").setAttribute("d", describeArc(110, 110, 100, 220, 220+nextval));\\n                                            nextval = nextval + limit/20;\\n                                            setTimeout(anime,30);\\n                                        } else {\\n                                            svgDocument.getElementById("arc2").setAttribute("d", describeArc(110, 110, 100, 220, 220+limit));\\n                                        }\\n                                    }\\n                                }\\n                            ]]></script>\\n                            <text id="pct" text-anchor="middle" x="115" y="205" font-size="38" font-weight="bold" fill="#82cde2" style="font-family: \\\'Montserrat\\\', sans serif;"></text>\\n                            <path id="arc1" fill="none" stroke="#82cde2" stroke-opacity="0.33" stroke-width="20" />\\n                            <path id="arc2" fill="none" stroke="#82cde2" stroke-width="20" />\\n                            <g transform="translate(100,65),scale(0.14)" id="layer1">\\n                                <path\\n                                style="fill:#cccccc;fill-opacity:1;stroke:none;stroke-width:2.86136937;stroke-linecap:round;stroke-linejoin:round;stroke-miterlimit:4;stroke-dasharray:none;stroke-dashoffset:23;stroke-opacity:1;paint-order:markers fill stroke"\\n                                d="m 78.753764,500.49359 -155.98134,0 c -32.037164,-2.41937 -13.66618,-33.55618 0.26221,-71.34944 a 64.526276,60.268684 0 0 0 3.18649,-9.05634 c 0.0602,-0.17717 0.12048,-0.35079 0.18071,-0.52512 l -0.0531,-0.002 a 64.526276,60.268684 0 0 0 1.77449,-13.72571 64.526276,60.268684 0 0 0 -64.525754,-60.26918 64.526276,60.268684 0 0 0 -64.52645,60.26918 64.526276,60.268684 0 0 0 1.76385,13.71933 l -0.31535,0 c 13.86709,41.9726 38.32654,78.29185 3.66059,80.93161 l -155.7418,0 0,-155.75279 c 2.6397,-34.66855 38.9565,-10.20733 80.92589,3.66117 l 0,-0.31535 a 60.264294,64.530975 0 0 0 13.71791,1.76386 60.264294,64.530975 0 0 0 60.26492,-64.53107 60.264294,64.530975 0 0 0 -60.26492,-64.53035 l -10e-4,0 a 60.264294,64.530975 0 0 0 -13.72429,1.77449 l -0.002,-0.0532 c -0.17717,0.0567 -0.35079,0.12047 -0.52512,0.18071 a 60.264294,64.530975 0 0 0 -9.05563,3.18649 c -37.79046,13.92879 -68.92476,32.30119 -71.34376,0.26226 l 0,-155.992688 155.74145,0 c 34.66594,-2.63977 10.20649,-38.95902 -3.66059,-80.931616 l 0.31535,0 a 64.526276,60.268684 0 0 1 -1.76421,-13.71898 64.526276,60.268684 0 0 1 64.52681,-60.26952 64.526276,60.268684 0 0 1 64.525394,60.26952 64.526276,60.268684 0 0 1 -1.77448,13.725358 l 0.0531,0.0021 c -0.0567,0.177166 -0.12048,0.350788 -0.18071,0.525118 a 64.526276,60.268684 0 0 1 -3.18615,9.0563387 c -13.92823,37.7929153 -32.298864,68.9297253 -0.2624,71.3490953 l 155.97992,0 0,155.992324 c -2.41937,32.04 -33.5537,13.6676 -71.3441297,-0.2622 a 60.264294,64.530975 0 0 0 -9.0567,-3.18614 c -0.17716,-0.0602 -0.35078,-0.12048 -0.52511,-0.18071 l -0.002,0.0531 A 60.264294,64.530975 0 0 0 -15.908786,220.7884 l -0.001,0 a 60.264294,64.530975 0 0 0 -60.26493,64.53035 60.264294,64.530975 0 0 0 60.26493,64.53142 60.264294,64.530975 0 0 0 13.7182603,-1.76386 l 0,0.31535 C 39.777884,334.53351 76.094664,310.07229 78.734064,344.74072 Z"\\n                                id="path5730" />\\n                                <path\\n                                style="fill:#82cde2;fill-opacity:1;stroke:none;stroke-width:2.86136937;stroke-linecap:round;stroke-linejoin:round;stroke-miterlimit:4;stroke-dasharray:none;stroke-dashoffset:23;stroke-opacity:1;paint-order:markers fill stroke"\\n                                d="m 293.3205,-83.890234 a 64.530975,60.264294 0 0 0 -64.53142,60.26563 64.530975,60.264294 0 0 0 1.7635,13.7179127 l -0.31535,0 C 243.13345,29.121062 265.18026,63.253392 240.3314,69.970082 l -162.186016,0 0,155.741818 c 0,0.20197 0.039,0.39472 0.0567,0.59386 -2.62524,31.53968 -33.66638,13.26047 -71.3175597,-0.61512 a 60.268681,64.526269 0 0 0 -9.05563,-3.18543 c -0.17716,-0.0567 -0.34724,-0.12048 -0.52476,-0.18071 l -0.002,0.0531 a 60.268681,64.526269 0 0 0 -13.7253603,-1.77484 60.268681,64.526269 0 0 0 -60.27023,64.52539 60.268681,64.526269 0 0 0 60.26917,64.52646 60.268681,64.526269 0 0 0 13.7189803,-1.76351 l 0,0.31536 c 41.7305897,-13.78701 77.8669997,-38.03492 80.8770397,-4.24488 0,0.11692 -0.0354,0.22677 -0.0354,0.3437 l 0,155.98169 162.186016,0 c 24.84851,6.71669 2.80311,40.85043 -10.09275,79.87819 l 0.31181,0 a 64.530975,60.264294 0 0 0 -1.76386,13.71791 64.530975,60.264294 0 0 0 64.53177,60.26563 64.530975,60.264294 0 0 0 0.0496,-10e-4 64.530975,60.264294 0 0 0 0.0354,10e-4 64.530975,60.264294 0 0 0 64.53142,-60.26563 64.530975,60.264294 0 0 0 -1.7635,-13.71791 l 0.31535,0 c -12.89622,-39.02776 -34.94303,-73.1615 -10.09417,-79.87819 l 162.18673,0 0,-155.74181 c 0,-0.20197 -0.039,-0.39295 -0.0567,-0.59138 0,-0.19134 0.039,-0.37205 0.0567,-0.55949 l 0,-116.79697 c 0,-0.10275 -0.0354,-0.19842 -0.0354,-0.30118 0,-0.11693 0.0354,-0.22677 0.0354,-0.3437 l 0,-155.981698 -0.085,0 -162.09921,0 c -24.84851,-6.7167 -2.80205,-40.85044 10.09417,-79.8781923 l -0.31535,0 a 64.530975,60.264294 0 0 0 1.7635,-13.7179137 64.530975,60.264294 0 0 0 -64.53035,-60.26563 l -0.001,0 a 64.530975,60.264294 0 0 0 -0.0496,0.001 64.530975,60.264294 0 0 0 -0.0354,-0.001 z"\\n                                id="path5732" />\\n                                <path\\n                                id="path5835"\\n                                d="m 122.00018,344.32411 c 0,-0.47658 3.87602,-26.60245 8.61343,-58.05745 4.7374,-31.455 8.63681,-58.36074 8.66551,-59.79047 0.0354,-1.42972 18.15555,-2.59937 40.28279,-2.59937 35.26193,0 39.97134,0.67713 38.1274,5.48256 -1.15724,3.01535 -2.10366,7.69465 -2.10366,10.39819 0,3.7676 -5.57362,4.91563 -23.85886,4.91563 -21.81224,0 -24.03779,0.66898 -25.9487,7.79882 -4.97126,18.55063 -3.65456,19.93039 19.01658,19.93039 20.29464,0 21.11173,0.33307 19.11083,7.79882 -1.14945,4.28917 -2.11111,8.96847 -2.13733,10.39819 -0.0354,1.42972 -9.22358,2.59972 -20.43956,2.59972 -18.21792,0 -20.61532,0.83162 -22.48264,7.79882 -5.14453,19.19729 -4.22681,19.93004 24.96685,19.93004 14.93291,0 27.92232,0.77103 28.86449,1.71355 0.94216,0.94216 1.02508,6.40133 0.18425,12.13122 l -1.52894,10.41803 -44.66622,0 c -24.56646,0 -44.66622,-0.38977 -44.66622,-0.86669 z m 104.79366,-3.54827 c 0,-2.42823 8.3165,-29.33398 18.48154,-59.79047 l 18.48189,-55.37552 15.99661,-1.04917 c 18.06732,-1.18453 15.12461,-6.2015 28.86236,49.20874 6.94489,28.01161 6.27414,28.42654 31.62898,-19.56437 l 16.02354,-30.32823 14.82626,0 c 17.78599,0 17.23713,-1.94315 20.31768,71.92169 l 2.06008,49.39229 -14.01732,0 c -7.70918,0 -14.2154,-0.38977 -14.45776,-0.86634 -0.24094,-0.47658 -1.41236,-18.02374 -2.59972,-38.99374 l -2.15859,-38.12776 -20.79673,38.12776 c -17.8976,32.81244 -22.00464,38.12705 -29.46224,38.12705 -8.08583,0 -9.28666,-2.39847 -17.96138,-35.86996 -5.11335,-19.72843 -10.02083,-36.59422 -10.90595,-37.47933 -0.88476,-0.88477 -7.35874,15.64653 -14.38618,36.73665 l -12.77752,38.34567 -13.57759,0 c -8.68678,0 -13.57796,-1.59024 -13.57796,-4.41496 z m 193.62969,-2.37756 c -8.55532,-9.45354 -4.62827,-23.5754 7.39488,-26.59323 12.05575,-3.02563 19.93642,2.32122 21.37146,14.50098 2.01826,17.12941 -16.98059,25.11567 -28.76634,12.09225 z m 8.53866,-65.77016 c 0,-40.69524 3.09756,-48.7513 18.74445,-48.7513 18.96449,0 19.25433,5.43721 3.27791,61.52351 -4.42523,15.53492 -6.41516,18.197 -13.60275,18.197 -8.28709,0 -8.41961,-0.4872 -8.41961,-30.96921 z"\\n                                style="fill:#ffffff;fill-opacity:1;stroke-width:0.97821659" />\\n                            </g>\\n                        </svg>\\n                    </div>\\n                </div>\\n                <div class="depute-votes-calendar">\\n                    <h2>Calendrier des votes</h2>\\n                    <div id="calendar"></div>\\n                </div>\\n\\n                <div class="depute-votes-list">\\n                    <h2>Ses votes</h2>\\n                    <div class="depute-votes-search">\\n                        <label for="search"><i class="fa fa-search" aria-hidden="true"></i></label>\\n                        <input class="search" placeholder="Rechercher un vote">\\n                    </div>\\n                    <ul>\\n                        <li>\\n                            <div class="ico abstention">\\n                                <i class="fa fa-book"></i>\\n                            </div>\\n                            <div>\\n                                <header>\\n                                    <div>\\n                                        <h3><span>Pouvoirs publics : confiance dans l&#x27;action publique - Loi propos\\xc3\\xa9e par LREM</span></h3>\\n                                        <a href="/obsas_dev/fiches/scrutin?id=15_119">Scrutin n\\xc2\\xb0119 du 09/08/2017 (adopt\\xc3\\xa9)</a>\\n                                    </div>\\n                                    <div class="vote abstention"><i class="fa fa-microphone-slash"></i> Abstention</div>\\n                                </header>\\n                                <p><i class="fa fa-arrow-circle-o-right"></i> l&#x27;ensemble du projet de loi organique pour la confiance dans la vie politique (lecture d\\xc3\\xa9finitive).</p>\\n                            </div>\\n                        </li>\\n                        <li>\\n                            <div class="ico contre">\\n                                <i class="fa fa-pencil-square"></i>\\n                            </div>\\n                            <div>\\n                                <header>\\n                                    <div>\\n                                        <h3><span>Pouvoirs publics : confiance dans l&#x27;action publique - Amendement propos\\xc3\\xa9 par LFI</span></h3>\\n                                        <a href="/obsas_dev/fiches/scrutin?id=15_118">Scrutin n\\xc2\\xb0118 du 09/08/2017 (rejet\\xc3\\xa9)</a>\\n                                    </div>\\n                                    <div class="vote contre"><i class="fa fa-thumbs-down"></i> Contre</div>\\n                                </header>\\n                                <p><i class="fa fa-arrow-circle-o-right"></i> l&#x27;amendement n\\xc2\\xb0 1 de M. Saddier et les amendements identiques suivants au projet de loi organique pour la confiance dans la vie politique (lecture d\\xc3\\xa9finitive).</p>\\n                            </div>\\n                        </li>\\n                        <li>\\n                            <div class="ico pour">\\n                                <i class="fa fa-file"></i>\\n                            </div>\\n                            <div>\\n                                <header>\\n                                    <div>\\n                                        <h3><span>Pouvoirs publics : confiance dans l&#x27;action publique - Loi propos\\xc3\\xa9e par LR</span></h3>\\n                                        <a href="/obsas_dev/fiches/scrutin?id=15_117">Scrutin n\\xc2\\xb0117 du 03/08/2017 (adopt\\xc3\\xa9)</a>\\n                                    </div>\\n                                    <div class="vote pour"><i class="fa fa-thumbs-up"></i> Pour</div>\\n                                </header>\\n                                <p><i class="fa fa-arrow-circle-o-right"></i> l&#x27;ensemble du projet de loi organique pour la confiance dans la vie politique (nouvelle lecture).</p>\\n                            </div>\\n                        </li>\\n                        <li>\\n                            <div class="ico absent">\\n                                <i class="fa fa-undo"></i>\\n                            </div>\\n                            <div>\\n                                <header>\\n                                    <div>\\n                                        <h3><span>Pouvoirs publics : confiance dans l&#x27;action publique - Motion propos\\xc3\\xa9e par le PCF</span></h3>\\n                                        <a href="/obsas_dev/fiches/scrutin?id=15_116">Scrutin n\\xc2\\xb0116 du 03/08/2017 (rejet\\xc3\\xa9)</a>\\n                                    </div>\\n                                    <div class="vote absent"><i class="fa fa-question"></i> Absent</div>\\n                                </header>\\n                                <p><i class="fa fa-arrow-circle-o-right"></i> l&#x27;amendement n\\xc2\\xb0 59 de Mme Batho \\xc3\\xa0 l&#x27;article 12 du projet de loi organique pour la confiance dans la vie politique (nouvelle lecture).</p>\\n                            </div>\\n                        </li>\\n                        <li>\\n                            <div class="ico absent">\\n                                <i class="fa fa-microphone"></i>\\n                            </div>\\n                            <div>\\n                                <header>\\n                                    <div>\\n                                        <h3><span>Pouvoirs publics : confiance dans l&#x27;action publique - D\\xc3\\xa9claration</span></h3>\\n                                        <a href="/obsas_dev/fiches/scrutin?id=15_116">Scrutin n\\xc2\\xb0116 du 03/08/2017 (rejet\\xc3\\xa9)</a>\\n                                    </div>\\n                                    <div class="vote absent"><i class="fa fa-question"></i> Absent</div>\\n                                </header>\\n                                <p><i class="fa fa-arrow-circle-o-right"></i> l&#x27;amendement n\\xc2\\xb0 59 de Mme Batho \\xc3\\xa0 l&#x27;article 12 du projet de loi organique pour la confiance dans la vie politique (nouvelle lecture).</p>\\n                            </div>\\n                        </li>\\n                        <li>\\n                            <div class="ico absent">\\n                                <i class="fa fa-undo"></i>\\n                            </div>\\n                            <div>\\n                                <header>\\n                                    <div>\\n                                        <h3><span>Pouvoirs publics : confiance dans l&#x27;action publique - Motion propos\\xc3\\xa9e par le MODEM</span></h3>\\n                                        <a href="/obsas_dev/fiches/scrutin?id=15_116">Scrutin n\\xc2\\xb0116 du 03/08/2017 (rejet\\xc3\\xa9)</a>\\n                                    </div>\\n                                    <div class="vote absent"><i class="fa fa-question"></i> Absent</div>\\n                                </header>\\n                                <p><i class="fa fa-arrow-circle-o-right"></i> l&#x27;amendement n\\xc2\\xb0 59 de Mme Batho \\xc3\\xa0 l&#x27;article 12 du projet de loi organique pour la confiance dans la vie politique (nouvelle lecture).</p>\\n                            </div>\\n                        </li>\\n                        <li>\\n                            <div class="ico absent">\\n                                <i class="fa fa-undo"></i>\\n                            </div>\\n                            <div>\\n                                <header>\\n                                    <div>\\n                                        <h3><span>Pouvoirs publics : confiance dans l&#x27;action publique - Motion propos\\xc3\\xa9e par le PS</span></h3>\\n                                        <a href="/obsas_dev/fiches/scrutin?id=15_116">Scrutin n\\xc2\\xb0116 du 03/08/2017 (rejet\\xc3\\xa9)</a>\\n                                    </div>\\n                                    <div class="vote absent"><i class="fa fa-question"></i> Absent</div>\\n                                </header>\\n                                <p><i class="fa fa-arrow-circle-o-right"></i> l&#x27;amendement n\\xc2\\xb0 59 de Mme Batho \\xc3\\xa0 l&#x27;article 12 du projet de loi organique pour la confiance dans la vie politique (nouvelle lecture).</p>\\n                            </div>\\n                        </li>\\n                    </ul>\\n                </div>\\n            </section>\\n        </div>\\n    </div>\\n\', escape=False)\nresponse.write(\'\\n    \', escape=False)\nresponse.write(\'\\n  <script src="https://cdnjs.cloudflare.com/ajax/libs/jquery/3.2.1/jquery.min.js"></script>\\n  <script src="\', escape=False)\nresponse.write(URL(\'static\',\'js/wordcloud2.js\'))\nresponse.write(\'"></script>\\n  <script src="https://d3js.org/d3.v4.min.js"></script>\\n  <script>\\n    $(document).ready(function() {\\n        var visible = $(\\\'.tab-container input:checked\\\').val();\\n        $(\\\'#\\\' + visible).addClass(\\\'visible\\\');\\n\\n        $(\\\'.tab-container input\\\').change(function(e) {\\n            $(\\\'.tab-content\\\').removeClass(\\\'visible\\\');\\n            $(\\\'#\\\' + e.target.value).addClass(\\\'visible\\\');\\n        });\\n\\n        // Nuages\\n        var wordlist = {};\\n        wordlist[\\\'noms\\\'] = JSON.parse(\\\'[["politique", 184], ["travail", 180], ["loi", 165], ["droit", 142], ["social", 126], ["compte", 111], ["va", 111], ["seul", 99], ["doit", 88], ["grand", 88], ["d\\\\u00e9bat", 88], ["entreprise", 84], ["r\\\\u00e9publique", 80], ["chose", 80], ["monde", 76], ["public", 76], ["raison", 76], ["accord", 72], ["pays", 72], ["temps", 72], ["situation", 69], ["rapport", 69], ["cas", 65], ["fran\\\\u00e7ais", 65], ["syndicat", 61], ["norme", 61], ["mer", 57], ["salari\\\\u00e9", 57], ["condition", 57], ["moment", 57], ["gens", 57], ["vie", 53], ["principe", 53], ["demande", 53], ["code", 53], ["peuple", 49], ["mani\\\\u00e8re", 49], ["fort", 46], ["groupe", 46], ["vote", 46], ["\\\\u00e9conomique", 46], ["reste", 42], ["ordonnance", 42], ["d\\\\u00e9cision", 42], ["discussion", 42], ["part", 42], ["moins", 42], ["\\\\u00e9tat", 42], ["pouvoir", 42], ["sens", 42], ["licenciement", 38], ["peu", 38], ["travailleur", 38], ["g\\\\u00e9n\\\\u00e9ral", 38], ["bon", 34], ["instant", 34], ["mesure", 30], ["branche", 30], ["mot", 30], ["compris", 30], ["territoire", 30], ["train", 30], ["dette", 30], ["libert\\\\u00e9", 26], ["confiance", 26], ["petit", 26], ["vue", 26], ["r\\\\u00e8gle", 26], ["personne", 26], ["jour", 26], ["soci\\\\u00e9t\\\\u00e9", 26], ["fa\\\\u00e7on", 26], ["niveau", 26], ["fin", 23], ["contraire", 23], ["possible", 23], ["hi\\\\u00e9rarchie", 23], ["c\\\\u00f4t\\\\u00e9", 23], ["taux", 23], ["relation", 23], ["heure", 23], ["assembl\\\\u00e9e", 23], ["cause", 23], ["partie", 23], ["personnel", 23], ["crise", 23], ["production", 19], ["pris", 19], ["sorte", 19], ["doute", 19], ["article", 19], ["d\\\\u00e9tach\\\\u00e9", 19], ["r\\\\u00e9serve", 19], ["particulier", 19], ["donne", 19], ["t\\\\u00e9l\\\\u00e9travail", 19], ["trente", 19], ["moyen", 19], ["protection", 15], ["banc", 15], ["faveur", 15], ["parler", 15], ["donner", 15], ["projet", 15], ["ann\\\\u00e9e", 15], ["contrat", 15], ["mandat", 15], ["savoir", 15], ["repr\\\\u00e9sentation", 15], ["classe", 15], ["r\\\\u00e9sultat", 15], ["lutte", 15], ["ami", 15], ["jeune", 11], ["bas", 11], ["candidat", 11], ["bonne", 11], ["brave", 11], ["mal", 11], ["nombreux", 11], ["probl\\\\u00e8me", 11], ["forme", 11], ["contr\\\\u00f4le", 11], ["nouveau", 11], ["d\\\\u00e9pense", 11], ["vision", 11], ["besoin", 11], ["r\\\\u00f4le", 11], ["devon", 11], ["r\\\\u00e9publicain", 11], ["majorit\\\\u00e9", 11], ["fond", 11], ["comp\\\\u00e9titivit\\\\u00e9", 11], ["propos", 11], ["coup", 11], ["signal", 11], ["conseil", 11], ["r\\\\u00e9f\\\\u00e9rendum", 11], ["nature", 11], ["s\\\\u00e9curit\\\\u00e9", 7], ["propre", 7], ["candidature", 7], ["vertu", 7], ["philosophie", 7], ["capacit\\\\u00e9", 7], ["terme", 7], ["gouvernement", 7], ["cadre", 7], ["passage", 7], ["salaire", 7], ["vrai", 7], ["europ\\\\u00e9en", 7], ["fonctionnaire", 7], ["responsabilit\\\\u00e9", 7], ["r\\\\u00e9volution", 7], ["d\\\\u00e9mocratie", 7], ["s\\\\u00e9ance", 7], ["source", 7], ["suppression", 7], ["proposition", 7], ["repr\\\\u00e9sentant", 7], ["nationale", 7], ["d\\\\u00e9but", 7], ["qualification", 7], ["face", 7], ["libre", 7], ["revient", 7], ["cotisation", 7], ["h\\\\u00e9micycle", 7], ["collectif", 7], ["entendu", 7], ["pardon", 3], ["patronal", 3], ["histoire", 3], ["circonstance", 3], ["service", 3], ["somme", 3], ["quarante", 3], ["rendu", 3], ["argument", 3], ["change", 3], ["volont\\\\u00e9", 3], ["int\\\\u00e9r\\\\u00eat", 3], ["organisation", 3], ["r\\\\u00e9ponse", 3], ["capable", 3], ["propri\\\\u00e9t\\\\u00e9", 3], ["tour", 3], ["ouvrier", 3], ["violence", 3], ["fiscal", 3], ["sixi\\\\u00e8me", 3], ["espace", 3], ["r\\\\u00e9alit\\\\u00e9", 3], ["acte", 3], ["surtout", 3], ["bout", 3], ["porte", 3], ["favorable", 3], ["dernier", 3]]\\\');\\n        wordlist[\\\'verbs\\\'] = JSON.parse(\\\'[["faire", 515], ["pouvoir", 510], ["vouloir", 289], ["falloir", 265], ["croire", 176], ["venir", 171], ["permettre", 127], ["prendre", 122], ["voir", 117], ["trouver", 103], ["mettre", 103], ["aller", 103], ["parler", 103], ["penser", 103], ["voter", 88], ["demander", 83], ["devoir", 83], ["comprendre", 78], ["rappeler", 63], ["discuter", 58], ["supprimer", 58], ["cr\\\\u00e9er", 58], ["repr\\\\u00e9senter", 58], ["r\\\\u00e9pondre", 58], ["tenir", 54], ["passer", 54], ["\\\\u00e9voquer", 54], ["proposer", 54], ["changer", 49], ["commencer", 49], ["maintenir", 49], ["arriver", 49], ["travailler", 49], ["savoir", 44], ["consid\\\\u00e9rer", 44], ["inventer", 39], ["sembler", 39], ["donner", 34], ["appeler", 34], ["finir", 34], ["montrer", 34], ["entendre", 34], ["rendre", 34], ["conclure", 34], ["respecter", 34], ["d\\\\u00e9fendre", 34], ["remercier", 34], ["souhaiter", 34], ["concerner", 29], ["expliquer", 29], ["partir", 29], ["sais", 29], ["para\\\\u00eetre", 29], ["vivre", 29], ["r\\\\u00e9fl\\\\u00e9chir", 29], ["exister", 29], ["conna\\\\u00eetre", 29], ["pr\\\\u00e9senter", 29], ["rester", 29], ["saisir", 29], ["devenir", 24], ["pr\\\\u00e9voir", 24], ["valoir", 24], ["exprimer", 24], ["perdre", 24], ["relever", 24], ["pr\\\\u00e9parer", 24], ["accepter", 24], ["payer", 24], ["intervenir", 24], ["signifier", 24], ["essayer", 24], ["revenir", 19], ["b\\\\u00e9n\\\\u00e9ficier", 19], ["convenir", 19], ["retirer", 19], ["rassurer", 19], ["soutenir", 19], ["prot\\\\u00e9ger", 19], ["r\\\\u00e9duire", 19], ["interpeller", 19], ["terminer", 19], ["choisir", 19], ["reconna\\\\u00eetre", 19], ["proc\\\\u00e9der", 19], ["d\\\\u00e9noncer", 19], ["suivre", 19], ["cesser", 19], ["r\\\\u00e9unir", 19], ["regarder", 19], ["viser", 19], ["r\\\\u00e9tablir", 19], ["laisser", 19], ["correspondre", 19], ["r\\\\u00e9sumer", 19], ["participer", 19], ["d\\\\u00e9pendre", 19], ["reprendre", 14], ["\\\\u00e9couter", 14], ["exercer", 14], ["sugg\\\\u00e9rer", 14], ["entrer", 14], ["parvenir", 14], ["construire", 14], ["invoquer", 14], ["affirmer", 14], ["imaginer", 14], ["produire", 14], ["pr\\\\u00e9tendre", 14], ["dominer", 14], ["soulever", 14], ["servir", 14], ["d\\\\u00e9truire", 14], ["percevoir", 14], ["d\\\\u00e9poser", 14], ["poster", 14], ["admettre", 14], ["chercher", 14], ["souligner", 14], ["utiliser", 14], ["d\\\\u00e9rouler", 9], ["gouverner", 9], ["inverser", 9], ["rechercher", 9], ["opposer", 9], ["plaire", 9], ["d\\\\u00e9placer", 9], ["lutter", 9], ["pratiquer", 9], ["estimer", 9], ["modifier", 9], ["citer", 9], ["conduire", 9], ["convaincre", 9], ["r\\\\u00e9sulter", 9], ["connais", 9], ["reculer", 9], ["organiser", 9], ["corriger", 9], ["apporter", 9], ["d\\\\u00e9penser", 9], ["contenter", 9], ["aboutir", 9], ["supposer", 9], ["recevoir", 9], ["autoriser", 9], ["manifester", 9], ["accumuler", 9], ["garantir", 9], ["favoriser", 9], ["pousser", 9], ["souvenir", 9], ["suffire", 9], ["distinguer", 9], ["emp\\\\u00eacher", 9], ["traduire", 9], ["couper", 9], ["compl\\\\u00e9ter", 9], ["confirmer", 9], ["traiter", 9], ["contenir", 9], ["contribuer", 9], ["d\\\\u00e9montrer", 9], ["r\\\\u00e9gler", 9], ["refuser", 9], ["disposer", 9], ["d\\\\u00e9cider", 9], ["monter", 9], ["mourir", 9], ["constater", 9], ["co\\\\u00fbter", 9], ["d\\\\u00e9faire", 9], ["projeter", 4], ["peser", 4], ["aider", 4], ["d\\\\u00e9sorganiser", 4], ["continuer", 4], ["d\\\\u00e9roger", 4], ["partager", 4], ["attendre", 4], ["animer", 4], ["importer", 4], ["soustraire", 4], ["assister", 4], ["r\\\\u00e9p\\\\u00e9ter", 4], ["refonder", 4], ["aimer", 4], ["r\\\\u00e9f\\\\u00e9rer", 4], ["insister", 4], ["pr\\\\u00e9sider", 4], ["sortir", 4], ["poss\\\\u00e9der", 4], ["d\\\\u00e9porter", 4], ["fausser", 4], ["installer", 4], ["d\\\\u00e9couvrir", 4], ["argumenter", 4], ["surgir", 4], ["emb\\\\u00eater", 4], ["ressembler", 4]]\\\');\\n\\n        function showNuage(lex) {\\n            if (lex==\\\'verbatim\\\') {\\n                return\\n            }\\n            var div = document.getElementById("sourrounding_div_"+lex);\\n            var canvas = document.getElementById("wordcanvas_"+lex);\\n\\n            canvas.height = div.offsetHeight;\\n            canvas.width  = div.offsetWidth;\\n\\n            WordCloud(document.getElementById(\\\'wordcanvas_\\\'+lex), {\\n                gridSize: Math.round(16 * document.getElementById(\\\'wordcanvas_\\\'+lex).offsetWidth / 1024),\\n                weightFactor: function (size) {\\n                    return 0.3*size;\\n                },\\n                list: wordlist[lex],\\n                color: function(word, weight) {\\n                    if (weight < 50) {\\n                        return \\\'#82cde2\\\';\\n                    } else if (weight < 130) {\\n                        return \\\'#213558\\\';\\n                    }\\n                    return \\\'#ff0052\\\';\\n                },\\n                backgroundColor: \\\'transparent\\\'\\n            });\\n        }\\n\\n        function drawNuages() {\\n            showNuage(\\\'noms\\\');\\n            showNuage(\\\'verbs\\\');\\n        }\\n\\n        // Calendrier\\n        function genCalendar() {\\n            var width = document.getElementById(\\\'calendar\\\').offsetWidth+20,\\n                yearHeight = width / 7,\\n                height = yearHeight,\\n                cellSize = yearHeight / 8;\\n\\n            var percent = d3.format(".1%"),\\n                format = d3.timeFormat("%Y-%m-%d");\\n\\n            var color = d3.scaleQuantize()\\n                .domain([.0, 1.0])\\n                .range(d3.range(5).map(function(d) { return "q" + d + "-5"; }));\\n\\n            var svgcal = d3.select("#calendar").selectAll("svg")\\n                .data(d3.range(2017, 2018))\\n              .enter().append("svg")\\n                .attr("width", width)\\n                .attr("height", height+20)\\n                .attr("class", "RdYlGn")\\n              .append("g")\\n                .attr("transform", "translate(" + ((width - cellSize * 53) / 2) + "," + (20+height - cellSize * 7 - 1) + ")");\\n\\n            svgcal.append("text")\\n                .attr("transform", "translate(-6," + cellSize * 3.5 + ")rotate(-90)")\\n                .style("text-anchor", "middle")\\n                .text(function(d) { return d; });\\n\\n            var rect = svgcal.selectAll(".day")\\n                .data(function(d) { return d3.timeDays(new Date(d, 0, 1), new Date(d + 1, 0, 1)); })\\n              .enter().append("rect")\\n                .attr("class", "day")\\n                .attr("width", cellSize)\\n                .attr("height", cellSize)\\n                .attr("x", function(d) { return d3.timeMonday.count(d3.timeYear(d), d) * cellSize; })\\n                .attr("y", function(d) { return ((d.getDay()+6)%7) * cellSize; })\\n                .datum(format);\\n\\n            rect.append("title")\\n                .text(function(d) { return d; });\\n\\n            svgcal.selectAll(".month")\\n                .data(function(d) { return d3.timeMonths(new Date(d, 0, 1), new Date(d + 1, 0, 1)); })\\n              .enter().append("text").text(monthLabel).style("font-size:10px;", "middle").attr("transform",monthLabelTransform);\\n            function monthLabel(t0) {\\n                return Array(\\\'JAN\\\',\\\'FEV\\\',\\\'MAR\\\',\\\'AVR\\\',\\\'MAI\\\',\\\'JUN\\\',\\\'JUI\\\',\\\'AOU\\\',\\\'SEP\\\',\\\'OCT\\\',\\\'NOV\\\',\\\'DEC\\\')[t0.getMonth()];\\n            }\\n            function monthLabelTransform(t0) {\\n              var t1 = new Date(t0.getFullYear(), t0.getMonth() + 1, 0),\\n                  d0 = ((t0.getDay()+6)%7), w0 = d3.timeMonday.count(d3.timeYear(t0), t0)\\n                  d1 = ((t1.getDay()+6)%7), w1 = d3.timeMonday.count(d3.timeYear(t1), t1);\\n              return "translate("+(2+w0)*cellSize+",-5)";\\n            }\\n\\n            svgcal.selectAll(".month")\\n                .data(function(d) { return d3.timeMonths(new Date(d, 0, 1), new Date(d + 1, 0, 1)); })\\n              .enter().append("path")\\n                .attr("class", "month")\\n                .attr("d", monthPath);\\n\\n\\n            var csv = JSON.parse(\\\'[{"date": "2017-07-04", "pct": 1.0}, {"date": "2017-07-06", "pct": 0.0}, {"date": "2017-07-10", "pct": 1.0}, {"date": "2017-07-11", "pct": 0.9411764705882353}, {"date": "2017-07-12", "pct": 0.6666666666666666}, {"date": "2017-07-13", "pct": 0.8333333333333334}, {"date": "2017-07-18", "pct": 0.5}, {"date": "2017-07-19", "pct": 0.0}, {"date": "2017-07-24", "pct": 1.0}, {"date": "2017-07-25", "pct": 0.23076923076923078}, {"date": "2017-07-26", "pct": 0.0}, {"date": "2017-07-27", "pct": 0.375}, {"date": "2017-07-28", "pct": 0.6}, {"date": "2017-08-01", "pct": 1.0}, {"date": "2017-08-03", "pct": 0.5454545454545454}, {"date": "2017-08-09", "pct": 1.0}]\\\');\\n            var data = d3.nest()\\n                .key(function(d) { return d.date; })\\n                .rollup(function(d) { return d[0].pct; })\\n                .map(csv);\\n\\n              rect.filter(function(d) { return data.has(d); })\\n                  .attr("class", function(d) { return "day " + color(data.get(d)); })\\n                .select("title")\\n                  .text(function(d) { return d + ": " + percent(data.get(d)); });\\n\\n            function monthPath(t0) {\\n              var t1 = new Date(t0.getFullYear(), t0.getMonth() + 1, 0),\\n                  d0 = ((t0.getDay()+6)%7), w0 = d3.timeMonday.count(d3.timeYear(t0), t0)\\n                  d1 = ((t1.getDay()+6)%7), w1 = d3.timeMonday.count(d3.timeYear(t1), t1);\\n              return "M" + (w0 + 1) * cellSize + "," + d0 * cellSize\\n                  + "H" + w0 * cellSize + "V" + 7 * cellSize\\n                  + "H" + w1 * cellSize + "V" + (d1 + 1) * cellSize\\n                  + "H" + (w1 + 1) * cellSize + "V" + 0\\n                  + "H" + (w0 + 1) * cellSize + "Z";\\n            }\\n        }\\n\\n        drawNuages();\\n        genCalendar();\\n        var resizeDebounce;\\n        $(window).resize(function() {\\n            clearTimeout(resizeDebounce);\\n            resizeDebounce = setTimeout(function() {\\n                window.requestAnimationFrame(function() {\\n                    drawNuages();\\n                    $(\\\'#calendar svg\\\').remove();\\n                    genCalendar();\\n                });\\n            }, 100);\\n        });\\n    });\\n    </script>\\n\', escape=False)\nresponse.write(\'\\n</body>\\n</html>\\n\', escape=False)'
p7
sS'snapshot'
p8
(dp9
S'exception'
p10
(dp11
S'__getslice__'
p12
S"<method-wrapper '__getslice__' of exceptions.NameError object>"
p13
sS'__str__'
p14
S"<method-wrapper '__str__' of exceptions.NameError object>"
p15
sS'__reduce__'
p16
S'<built-in method __reduce__ of exceptions.NameError object>'
p17
sS'__dict__'
p18
S'{}'
p19
sS'message'
p20
S'"name \'depute_autresandats\' is not defined"'
p21
sS'__sizeof__'
p22
S'<built-in method __sizeof__ of exceptions.NameError object>'
p23
sS'__init__'
p24
S"<method-wrapper '__init__' of exceptions.NameError object>"
p25
sS'__setattr__'
p26
S"<method-wrapper '__setattr__' of exceptions.NameError object>"
p27
sS'__reduce_ex__'
p28
S'<built-in method __reduce_ex__ of exceptions.NameError object>'
p29
sS'__new__'
p30
S'<built-in method __new__ of type object>'
p31
sS'__format__'
p32
S'<built-in method __format__ of exceptions.NameError object>'
p33
sS'__class__'
p34
S"<type 'exceptions.NameError'>"
p35
sS'__doc__'
p36
S"'Name not found globally.'"
p37
sS'__getitem__'
p38
S"<method-wrapper '__getitem__' of exceptions.NameError object>"
p39
sS'__setstate__'
p40
S'<built-in method __setstate__ of exceptions.NameError object>'
p41
sS'__getattribute__'
p42
S"<method-wrapper '__getattribute__' of exceptions.NameError object>"
p43
sS'args'
p44
S'("name \'depute_autresandats\' is not defined",)'
p45
sS'__subclasshook__'
p46
S'<built-in method __subclasshook__ of type object>'
p47
sS'__unicode__'
p48
S'<built-in method __unicode__ of exceptions.NameError object>'
p49
sS'__delattr__'
p50
S"<method-wrapper '__delattr__' of exceptions.NameError object>"
p51
sS'__repr__'
p52
S"<method-wrapper '__repr__' of exceptions.NameError object>"
p53
sS'__hash__'
p54
S"<method-wrapper '__hash__' of exceptions.NameError object>"
p55
ssS'evalue'
p56
S"name 'depute_autresandats' is not defined"
p57
sS'request'
p58
cgluon.html
XML_unpickle
p59
(S's\\v\x00\x00<div><table><tr><td style="font-weight:bold;vertical-align:top;">ajax</td><td style="vertical-align:top;">:</td><td><div>False</div></td></tr><tr><td style="font-weight:bold;vertical-align:top;">application</td><td style="vertical-align:top;">:</td><td><div>observatoireassemblee</div></td></tr><tr><td style="font-weight:bold;vertical-align:top;">args</td><td style="vertical-align:top;">:</td><td><div><table><tr><td><div>gabrielserville</div></td></tr></table></div></td></tr><tr><td style="font-weight:bold;vertical-align:top;">cid</td><td style="vertical-align:top;">:</td><td><div>None</div></td></tr><tr><td style="font-weight:bold;vertical-align:top;">client</td><td style="vertical-align:top;">:</td><td><div>83.203.170.41</div></td></tr><tr><td style="font-weight:bold;vertical-align:top;">controller</td><td style="vertical-align:top;">:</td><td><div>depute</div></td></tr><tr><td style="font-weight:bold;vertical-align:top;">cookies</td><td style="vertical-align:top;">:</td><td><div><table><tr><td style="font-weight:bold;vertical-align:top;">session_id_admin</td><td style="vertical-align:top;">:</td><td><div>83.203.170.106-62f39627-f7d7-4927-a80b-f6a1100be47c<table><tr><td style="font-weight:bold;vertical-align:top;">comment</td><td style="vertical-align:top;">:</td><td><div></div></td></tr><tr><td style="font-weight:bold;vertical-align:top;">domain</td><td style="vertical-align:top;">:</td><td><div></div></td></tr><tr><td style="font-weight:bold;vertical-align:top;">expires</td><td style="vertical-align:top;">:</td><td><div></div></td></tr><tr><td style="font-weight:bold;vertical-align:top;">httponly</td><td style="vertical-align:top;">:</td><td><div></div></td></tr><tr><td style="font-weight:bold;vertical-align:top;">max-age</td><td style="vertical-align:top;">:</td><td><div></div></td></tr><tr><td style="font-weight:bold;vertical-align:top;">path</td><td style="vertical-align:top;">:</td><td><div></div></td></tr><tr><td style="font-weight:bold;vertical-align:top;">secure</td><td style="vertical-align:top;">:</td><td><div></div></td></tr><tr><td style="font-weight:bold;vertical-align:top;">version</td><td style="vertical-align:top;">:</td><td><div></div></td></tr></table></div></td></tr><tr><td style="font-weight:bold;vertical-align:top;">session_id_obsas_dev</td><td style="vertical-align:top;">:</td><td><div>83.203.170.41-35bcdcf9-68b2-4156-939a-012fa68e4eca<table><tr><td style="font-weight:bold;vertical-align:top;">comment</td><td style="vertical-align:top;">:</td><td><div></div></td></tr><tr><td style="font-weight:bold;vertical-align:top;">domain</td><td style="vertical-align:top;">:</td><td><div></div></td></tr><tr><td style="font-weight:bold;vertical-align:top;">expires</td><td style="vertical-align:top;">:</td><td><div></div></td></tr><tr><td style="font-weight:bold;vertical-align:top;">httponly</td><td style="vertical-align:top;">:</td><td><div></div></td></tr><tr><td style="font-weight:bold;vertical-align:top;">max-age</td><td style="vertical-align:top;">:</td><td><div></div></td></tr><tr><td style="font-weight:bold;vertical-align:top;">path</td><td style="vertical-align:top;">:</td><td><div></div></td></tr><tr><td style="font-weight:bold;vertical-align:top;">secure</td><td style="vertical-align:top;">:</td><td><div></div></td></tr><tr><td style="font-weight:bold;vertical-align:top;">version</td><td style="vertical-align:top;">:</td><td><div></div></td></tr></table></div></td></tr><tr><td style="font-weight:bold;vertical-align:top;">session_id_observatoireassemblee</td><td style="vertical-align:top;">:</td><td><div>83.203.170.41-9426e8c9-5873-4b61-8c07-a91f208a6d68<table><tr><td style="font-weight:bold;vertical-align:top;">comment</td><td style="vertical-align:top;">:</td><td><div></div></td></tr><tr><td style="font-weight:bold;vertical-align:top;">domain</td><td style="vertical-align:top;">:</td><td><div></div></td></tr><tr><td style="font-weight:bold;vertical-align:top;">expires</td><td style="vertical-align:top;">:</td><td><div></div></td></tr><tr><td style="font-weight:bold;vertical-align:top;">httponly</td><td style="vertical-align:top;">:</td><td><div></div></td></tr><tr><td style="font-weight:bold;vertical-align:top;">max-age</td><td style="vertical-align:top;">:</td><td><div></div></td></tr><tr><td style="font-weight:bold;vertical-align:top;">path</td><td style="vertical-align:top;">:</td><td><div></div></td></tr><tr><td style="font-weight:bold;vertical-align:top;">secure</td><td style="vertical-align:top;">:</td><td><div></div></td></tr><tr><td style="font-weight:bold;vertical-align:top;">version</td><td style="vertical-align:top;">:</td><td><div></div></td></tr></table></div></td></tr></table></div></td></tr><tr><td style="font-weight:bold;vertical-align:top;">env</td><td style="vertical-align:top;">:</td><td><div><table><tr><td style="font-weight:bold;vertical-align:top;">CONTEXT_DOCUMENT_ROOT</td><td style="vertical-align:top;">:</td><td><div>/var/www/html</div></td></tr><tr><td style="font-weight:bold;vertical-align:top;">CONTEXT_PREFIX</td><td style="vertical-align:top;">:</td><td><div></div></td></tr><tr><td style="font-weight:bold;vertical-align:top;">DOCUMENT_ROOT</td><td style="vertical-align:top;">:</td><td><div>/var/www/html</div></td></tr><tr><td style="font-weight:bold;vertical-align:top;">GATEWAY_INTERFACE</td><td style="vertical-align:top;">:</td><td><div>CGI/1.1</div></td></tr><tr><td style="font-weight:bold;vertical-align:top;">HTTP_ACCEPT</td><td style="vertical-align:top;">:</td><td><div>text/html,application/xhtml+xml,application/xml;q=0.9,image/webp,image/apng,*/*;q=0.8</div></td></tr><tr><td style="font-weight:bold;vertical-align:top;">HTTP_ACCEPT_ENCODING</td><td style="vertical-align:top;">:</td><td><div>gzip, deflate, br</div></td></tr><tr><td style="font-weight:bold;vertical-align:top;">HTTP_ACCEPT_LANGUAGE</td><td style="vertical-align:top;">:</td><td><div>fr-FR,fr;q=0.8,en-US;q=0.6,en;q=0.4</div></td></tr><tr><td style="font-weight:bold;vertical-align:top;">HTTP_CACHE_CONTROL</td><td style="vertical-align:top;">:</td><td><div>max-age=0</div></td></tr><tr><td style="font-weight:bold;vertical-align:top;">HTTP_CONNECTION</td><td style="vertical-align:top;">:</td><td><div>keep-alive</div></td></tr><tr><td style="font-weight:bold;vertical-align:top;">HTTP_COOKIE</td><td style="vertical-align:top;">:</td><td><div>session_id_obsas_dev=83.203.170.41-35bcdcf9-68b2-4156-939a-012fa68e4eca; session_id_observatoireassemblee=83.203.170.41-9426e8c9-5873-4b61-8c07-a91f208a6d68; session_id_admin=83.203.170.106-62f39627-f7d7-4927-a80b-f6a1100be47c</div></td></tr><tr><td style="font-weight:bold;vertical-align:top;">HTTP_HOST</td><td style="vertical-align:top;">:</td><td><div>admin.obsas.orvdev.fr</div></td></tr><tr><td style="font-weight:bold;vertical-align:top;">HTTP_UPGRADE_INSECURE_REQUESTS</td><td style="vertical-align:top;">:</td><td><div>1</div></td></tr><tr><td style="font-weight:bold;vertical-align:top;">HTTP_USER_AGENT</td><td style="vertical-align:top;">:</td><td><div>Mozilla/5.0 (X11; Linux x86_64) AppleWebKit/537.36 (KHTML, like Gecko) Chrome/60.0.3112.101 Safari/537.36</div></td></tr><tr><td style="font-weight:bold;vertical-align:top;">PATH_INFO</td><td style="vertical-align:top;">:</td><td><div>/observatoireassemblee/depute/index/gabrielserville</div></td></tr><tr><td style="font-weight:bold;vertical-align:top;">PATH_TRANSLATED</td><td style="vertical-align:top;">:</td><td><div>/home/www-data/web2py/wsgihandler.py/observatoireassemblee/depute/index/gabrielserville</div></td></tr><tr><td style="font-weight:bold;vertical-align:top;">QUERY_STRING</td><td style="vertical-align:top;">:</td><td><div></div></td></tr><tr><td style="font-weight:bold;vertical-align:top;">REMOTE_ADDR</td><td style="vertical-align:top;">:</td><td><div>83.203.170.41</div></td></tr><tr><td style="font-weight:bold;vertical-align:top;">REMOTE_PORT</td><td style="vertical-align:top;">:</td><td><div>52919</div></td></tr><tr><td style="font-weight:bold;vertical-align:top;">REQUEST_METHOD</td><td style="vertical-align:top;">:</td><td><div>GET</div></td></tr><tr><td style="font-weight:bold;vertical-align:top;">REQUEST_SCHEME</td><td style="vertical-align:top;">:</td><td><div>https</div></td></tr><tr><td style="font-weight:bold;vertical-align:top;">REQUEST_URI</td><td style="vertical-align:top;">:</td><td><div>/observatoireassemblee/depute/index/gabrielserville</div></td></tr><tr><td style="font-weight:bold;vertical-align:top;">SCRIPT_FILENAME</td><td style="vertical-align:top;">:</td><td><div>/home/www-data/web2py/wsgihandler.py</div></td></tr><tr><td style="font-weight:bold;vertical-align:top;">SCRIPT_NAME</td><td style="vertical-align:top;">:</td><td><div></div></td></tr><tr><td style="font-weight:bold;vertical-align:top;">SERVER_ADDR</td><td style="vertical-align:top;">:</td><td><div>151.80.57.169</div></td></tr><tr><td style="font-weight:bold;vertical-align:top;">SERVER_ADMIN</td><td style="vertical-align:top;">:</td><td><div>[no address given]</div></td></tr><tr><td style="font-weight:bold;vertical-align:top;">SERVER_NAME</td><td style="vertical-align:top;">:</td><td><div>admin.obsas.orvdev.fr</div></td></tr><tr><td style="font-weight:bold;vertical-align:top;">SERVER_PORT</td><td style="vertical-align:top;">:</td><td><div>443</div></td></tr><tr><td style="font-weight:bold;vertical-align:top;">SERVER_PROTOCOL</td><td style="vertical-align:top;">:</td><td><div>HTTP/1.1</div></td></tr><tr><td style="font-weight:bold;vertical-align:top;">SERVER_SIGNATURE</td><td style="vertical-align:top;">:</td><td><div>&lt;address&gt;Apache/2.4.18 (Ubuntu) Server at admin.obsas.orvdev.fr Port 443&lt;/address&gt;\n</div></td></tr><tr><td style="font-weight:bold;vertical-align:top;">SERVER_SOFTWARE</td><td style="vertical-align:top;">:</td><td><div>Apache/2.4.18 (Ubuntu)</div></td></tr><tr><td style="font-weight:bold;vertical-align:top;">SSL_TLS_SNI</td><td style="vertical-align:top;">:</td><td><div>admin.obsas.orvdev.fr</div></td></tr><tr><td style="font-weight:bold;vertical-align:top;">apache.version</td><td style="vertical-align:top;">:</td><td><div><table><tr><td><div>2</div></td></tr><tr><td><div>4</div></td></tr><tr><td><div>18</div></td></tr></table></div></td></tr><tr><td style="font-weight:bold;vertical-align:top;">apache_version</td><td style="vertical-align:top;">:</td><td><div><table><tr><td><div>2</div></td></tr><tr><td><div>4</div></td></tr><tr><td><div>18</div></td></tr></table></div></td></tr><tr><td style="font-weight:bold;vertical-align:top;">app_folders</td><td style="vertical-align:top;">:</td><td><div>set([&#x27;/home/www-data/web2py/applications/observatoireassemblee/&#x27;, &#x27;/home/www-data/web2py/applications/obsas_dev/&#x27;, &#x27;/home/www-data/web2py/applications/admin/&#x27;])</div></td></tr><tr><td style="font-weight:bold;vertical-align:top;">applications_parent</td><td style="vertical-align:top;">:</td><td><div>/home/www-data/web2py</div></td></tr><tr><td style="font-weight:bold;vertical-align:top;">context_document_root</td><td style="vertical-align:top;">:</td><td><div>/var/www/html</div></td></tr><tr><td style="font-weight:bold;vertical-align:top;">context_prefix</td><td style="vertical-align:top;">:</td><td><div></div></td></tr><tr><td style="font-weight:bold;vertical-align:top;">db_sessions</td><td style="vertical-align:top;">:</td><td><div>set([])</div></td></tr><tr><td style="font-weight:bold;vertical-align:top;">debugging</td><td style="vertical-align:top;">:</td><td><div>True</div></td></tr><tr><td style="font-weight:bold;vertical-align:top;">document_root</td><td style="vertical-align:top;">:</td><td><div>/var/www/html</div></td></tr><tr><td style="font-weight:bold;vertical-align:top;">gateway_interface</td><td style="vertical-align:top;">:</td><td><div>CGI/1.1</div></td></tr><tr><td style="font-weight:bold;vertical-align:top;">gluon_parent</td><td style="vertical-align:top;">:</td><td><div>/home/www-data/web2py</div></td></tr><tr><td style="font-weight:bold;vertical-align:top;">http_accept</td><td style="vertical-align:top;">:</td><td><div>text/html,application/xhtml+xml,application/xml;q=0.9,image/webp,image/apng,*/*;q=0.8</div></td></tr><tr><td style="font-weight:bold;vertical-align:top;">http_accept_encoding</td><td style="vertical-align:top;">:</td><td><div>gzip, deflate, br</div></td></tr><tr><td style="font-weight:bold;vertical-align:top;">http_accept_language</td><td style="vertical-align:top;">:</td><td><div>fr-FR,fr;q=0.8,en-US;q=0.6,en;q=0.4</div></td></tr><tr><td style="font-weight:bold;vertical-align:top;">http_cache_control</td><td style="vertical-align:top;">:</td><td><div>max-age=0</div></td></tr><tr><td style="font-weight:bold;vertical-align:top;">http_connection</td><td style="vertical-align:top;">:</td><td><div>keep-alive</div></td></tr><tr><td style="font-weight:bold;vertical-align:top;">http_cookie</td><td style="vertical-align:top;">:</td><td><div>session_id_obsas_dev=83.203.170.41-35bcdcf9-68b2-4156-939a-012fa68e4eca; session_id_observatoireassemblee=83.203.170.41-9426e8c9-5873-4b61-8c07-a91f208a6d68; session_id_admin=83.203.170.106-62f39627-f7d7-4927-a80b-f6a1100be47c</div></td></tr><tr><td style="font-weight:bold;vertical-align:top;">http_host</td><td style="vertical-align:top;">:</td><td><div>admin.obsas.orvdev.fr</div></td></tr><tr><td style="font-weight:bold;vertical-align:top;">http_upgrade_insecure_requests</td><td style="vertical-align:top;">:</td><td><div>1</div></td></tr><tr><td style="font-weight:bold;vertical-align:top;">http_user_agent</td><td style="vertical-align:top;">:</td><td><div>Mozilla/5.0 (X11; Linux x86_64) AppleWebKit/537.36 (KHTML, like Gecko) Chrome/60.0.3112.101 Safari/537.36</div></td></tr><tr><td style="font-weight:bold;vertical-align:top;">is_jython</td><td style="vertical-align:top;">:</td><td><div>False</div></td></tr><tr><td style="font-weight:bold;vertical-align:top;">is_py2</td><td style="vertical-align:top;">:</td><td><div>True</div></td></tr><tr><td style="font-weight:bold;vertical-align:top;">is_pypy</td><td style="vertical-align:top;">:</td><td><div>False</div></td></tr><tr><td style="font-weight:bold;vertical-align:top;">is_source</td><td style="vertical-align:top;">:</td><td><div>True</div></td></tr><tr><td style="font-weight:bold;vertical-align:top;">local_hosts</td><td style="vertical-align:top;">:</td><td><div><table><tr><td><div>vps433020</div></td></tr><tr><td><div>::ffff:127.0.0.1</div></td></tr><tr><td><div>::1</div></td></tr><tr><td><div>151.80.57.169</div></td></tr><tr><td><div>vps433020.ovh.net</div></td></tr><tr><td><div>127.0.1.1</div></td></tr><tr><td><div>admin.obsas.orvdev.fr</div></td></tr><tr><td><div>127.0.0.1</div></td></tr></table></div></td></tr><tr><td style="font-weight:bold;vertical-align:top;">mod_wsgi.application_group</td><td style="vertical-align:top;">:</td><td><div></div></td></tr><tr><td style="font-weight:bold;vertical-align:top;">mod_wsgi.callable_object</td><td style="vertical-align:top;">:</td><td><div>application</div></td></tr><tr><td style="font-weight:bold;vertical-align:top;">mod_wsgi.daemon_connects</td><td style="vertical-align:top;">:</td><td><div>1</div></td></tr><tr><td style="font-weight:bold;vertical-align:top;">mod_wsgi.daemon_restarts</td><td style="vertical-align:top;">:</td><td><div>0</div></td></tr><tr><td style="font-weight:bold;vertical-align:top;">mod_wsgi.daemon_start</td><td style="vertical-align:top;">:</td><td><div>1505659058253662</div></td></tr><tr><td style="font-weight:bold;vertical-align:top;">mod_wsgi.enable_sendfile</td><td style="vertical-align:top;">:</td><td><div>0</div></td></tr><tr><td style="font-weight:bold;vertical-align:top;">mod_wsgi.handler_script</td><td style="vertical-align:top;">:</td><td><div></div></td></tr><tr><td style="font-weight:bold;vertical-align:top;">mod_wsgi.input_chunked</td><td style="vertical-align:top;">:</td><td><div>0</div></td></tr><tr><td style="font-weight:bold;vertical-align:top;">mod_wsgi.listener_host</td><td style="vertical-align:top;">:</td><td><div></div></td></tr><tr><td style="font-weight:bold;vertical-align:top;">mod_wsgi.listener_port</td><td style="vertical-align:top;">:</td><td><div>443</div></td></tr><tr><td style="font-weight:bold;vertical-align:top;">mod_wsgi.process_group</td><td style="vertical-align:top;">:</td><td><div>obsasadm</div></td></tr><tr><td style="font-weight:bold;vertical-align:top;">mod_wsgi.queue_start</td><td style="vertical-align:top;">:</td><td><div>1505659058253471</div></td></tr><tr><td style="font-weight:bold;vertical-align:top;">mod_wsgi.request_handler</td><td style="vertical-align:top;">:</td><td><div>wsgi-script</div></td></tr><tr><td style="font-weight:bold;vertical-align:top;">mod_wsgi.request_start</td><td style="vertical-align:top;">:</td><td><div>1505659058252608</div></td></tr><tr><td style="font-weight:bold;vertical-align:top;">mod_wsgi.script_reloading</td><td style="vertical-align:top;">:</td><td><div>1</div></td></tr><tr><td style="font-weight:bold;vertical-align:top;">mod_wsgi.script_start</td><td style="vertical-align:top;">:</td><td><div>1505659058253750</div></td></tr><tr><td style="font-weight:bold;vertical-align:top;">mod_wsgi.version</td><td style="vertical-align:top;">:</td><td><div><table><tr><td><div>4</div></td></tr><tr><td><div>3</div></td></tr><tr><td><div>0</div></td></tr></table></div></td></tr><tr><td style="font-weight:bold;vertical-align:top;">mod_wsgi_application_group</td><td style="vertical-align:top;">:</td><td><div></div></td></tr><tr><td style="font-weight:bold;vertical-align:top;">mod_wsgi_callable_object</td><td style="vertical-align:top;">:</td><td><div>application</div></td></tr><tr><td style="font-weight:bold;vertical-align:top;">mod_wsgi_daemon_connects</td><td style="vertical-align:top;">:</td><td><div>1</div></td></tr><tr><td style="font-weight:bold;vertical-align:top;">mod_wsgi_daemon_restarts</td><td style="vertical-align:top;">:</td><td><div>0</div></td></tr><tr><td style="font-weight:bold;vertical-align:top;">mod_wsgi_daemon_start</td><td style="vertical-align:top;">:</td><td><div>1505659058253662</div></td></tr><tr><td style="font-weight:bold;vertical-align:top;">mod_wsgi_enable_sendfile</td><td style="vertical-align:top;">:</td><td><div>0</div></td></tr><tr><td style="font-weight:bold;vertical-align:top;">mod_wsgi_handler_script</td><td style="vertical-align:top;">:</td><td><div></div></td></tr><tr><td style="font-weight:bold;vertical-align:top;">mod_wsgi_input_chunked</td><td style="vertical-align:top;">:</td><td><div>0</div></td></tr><tr><td style="font-weight:bold;vertical-align:top;">mod_wsgi_listener_host</td><td style="vertical-align:top;">:</td><td><div></div></td></tr><tr><td style="font-weight:bold;vertical-align:top;">mod_wsgi_listener_port</td><td style="vertical-align:top;">:</td><td><div>443</div></td></tr><tr><td style="font-weight:bold;vertical-align:top;">mod_wsgi_process_group</td><td style="vertical-align:top;">:</td><td><div>obsasadm</div></td></tr><tr><td style="font-weight:bold;vertical-align:top;">mod_wsgi_queue_start</td><td style="vertical-align:top;">:</td><td><div>1505659058253471</div></td></tr><tr><td style="font-weight:bold;vertical-align:top;">mod_wsgi_request_handler</td><td style="vertical-align:top;">:</td><td><div>wsgi-script</div></td></tr><tr><td style="font-weight:bold;vertical-align:top;">mod_wsgi_request_start</td><td style="vertical-align:top;">:</td><td><div>1505659058252608</div></td></tr><tr><td style="font-weight:bold;vertical-align:top;">mod_wsgi_script_reloading</td><td style="vertical-align:top;">:</td><td><div>1</div></td></tr><tr><td style="font-weight:bold;vertical-align:top;">mod_wsgi_script_start</td><td style="vertical-align:top;">:</td><td><div>1505659058253750</div></td></tr><tr><td style="font-weight:bold;vertical-align:top;">mod_wsgi_version</td><td style="vertical-align:top;">:</td><td><div><table><tr><td><div>4</div></td></tr><tr><td><div>3</div></td></tr><tr><td><div>0</div></td></tr></table></div></td></tr><tr><td style="font-weight:bold;vertical-align:top;">nokeepalive</td><td style="vertical-align:top;">:</td><td><div>ssl-unclean-shutdown</div></td></tr><tr><td style="font-weight:bold;vertical-align:top;">path_info</td><td style="vertical-align:top;">:</td><td><div>/observatoireassemblee/depute/index/gabrielserville</div></td></tr><tr><td style="font-weight:bold;vertical-align:top;">path_translated</td><td style="vertical-align:top;">:</td><td><div>/home/www-data/web2py/wsgihandler.py/observatoireassemblee/depute/index/gabrielserville</div></td></tr><tr><td style="font-weight:bold;vertical-align:top;">query_string</td><td style="vertical-align:top;">:</td><td><div></div></td></tr><tr><td style="font-weight:bold;vertical-align:top;">remote_addr</td><td style="vertical-align:top;">:</td><td><div>83.203.170.41</div></td></tr><tr><td style="font-weight:bold;vertical-align:top;">remote_port</td><td style="vertical-align:top;">:</td><td><div>52919</div></td></tr><tr><td style="font-weight:bold;vertical-align:top;">request_method</td><td style="vertical-align:top;">:</td><td><div>GET</div></td></tr><tr><td style="font-weight:bold;vertical-align:top;">request_scheme</td><td style="vertical-align:top;">:</td><td><div>https</div></td></tr><tr><td style="font-weight:bold;vertical-align:top;">request_uri</td><td style="vertical-align:top;">:</td><td><div>/observatoireassemblee/depute/index/gabrielserville</div></td></tr><tr><td style="font-weight:bold;vertical-align:top;">script_filename</td><td style="vertical-align:top;">:</td><td><div>/home/www-data/web2py/wsgihandler.py</div></td></tr><tr><td style="font-weight:bold;vertical-align:top;">script_name</td><td style="vertical-align:top;">:</td><td><div></div></td></tr><tr><td style="font-weight:bold;vertical-align:top;">server_addr</td><td style="vertical-align:top;">:</td><td><div>151.80.57.169</div></td></tr><tr><td style="font-weight:bold;vertical-align:top;">server_admin</td><td style="vertical-align:top;">:</td><td><div>[no address given]</div></td></tr><tr><td style="font-weight:bold;vertical-align:top;">server_name</td><td style="vertical-align:top;">:</td><td><div>admin.obsas.orvdev.fr</div></td></tr><tr><td style="font-weight:bold;vertical-align:top;">server_port</td><td style="vertical-align:top;">:</td><td><div>443</div></td></tr><tr><td style="font-weight:bold;vertical-align:top;">server_protocol</td><td style="vertical-align:top;">:</td><td><div>HTTP/1.1</div></td></tr><tr><td style="font-weight:bold;vertical-align:top;">server_signature</td><td style="vertical-align:top;">:</td><td><div>&lt;address&gt;Apache/2.4.18 (Ubuntu) Server at admin.obsas.orvdev.fr Port 443&lt;/address&gt;\n</div></td></tr><tr><td style="font-weight:bold;vertical-align:top;">server_software</td><td style="vertical-align:top;">:</td><td><div>Apache/2.4.18 (Ubuntu)</div></td></tr><tr><td style="font-weight:bold;vertical-align:top;">ssl_tls_sni</td><td style="vertical-align:top;">:</td><td><div>admin.obsas.orvdev.fr</div></td></tr><tr><td style="font-weight:bold;vertical-align:top;">web2py_original_uri</td><td style="vertical-align:top;">:</td><td><div>/observatoireassemblee/depute/index/gabrielserville</div></td></tr><tr><td style="font-weight:bold;vertical-align:top;">web2py_path</td><td style="vertical-align:top;">:</td><td><div>/home/www-data/web2py</div></td></tr><tr><td style="font-weight:bold;vertical-align:top;">web2py_version</td><td style="vertical-align:top;">:</td><td><div>2.15.1-stable+timestamp.2017.07.10.21.25.06</div></td></tr><tr><td style="font-weight:bold;vertical-align:top;">wsgi.errors</td><td style="vertical-align:top;">:</td><td><div>&lt;mod_wsgi.Log object at 0x7f56dabc2c00&gt;</div></td></tr><tr><td style="font-weight:bold;vertical-align:top;">wsgi.file_wrapper</td><td style="vertical-align:top;">:</td><td><div>&lt;type &#x27;mod_wsgi.FileWrapper&#x27;&gt;</div></td></tr><tr><td style="font-weight:bold;vertical-align:top;">wsgi.input</td><td style="vertical-align:top;">:</td><td><div>&lt;mod_wsgi.Input object at 0x7f56f6e013b0&gt;</div></td></tr><tr><td style="font-weight:bold;vertical-align:top;">wsgi.multiprocess</td><td style="vertical-align:top;">:</td><td><div>False</div></td></tr><tr><td style="font-weight:bold;vertical-align:top;">wsgi.multithread</td><td style="vertical-align:top;">:</td><td><div>True</div></td></tr><tr><td style="font-weight:bold;vertical-align:top;">wsgi.run_once</td><td style="vertical-align:top;">:</td><td><div>False</div></td></tr><tr><td style="font-weight:bold;vertical-align:top;">wsgi.url_scheme</td><td style="vertical-align:top;">:</td><td><div>https</div></td></tr><tr><td style="font-weight:bold;vertical-align:top;">wsgi.version</td><td style="vertical-align:top;">:</td><td><div><table><tr><td><div>1</div></td></tr><tr><td><div>0</div></td></tr></table></div></td></tr><tr><td style="font-weight:bold;vertical-align:top;">wsgi_errors</td><td style="vertical-align:top;">:</td><td><div>&lt;mod_wsgi.Log object at 0x7f56dabc2c00&gt;</div></td></tr><tr><td style="font-weight:bold;vertical-align:top;">wsgi_file_wrapper</td><td style="vertical-align:top;">:</td><td><div>&lt;type &#x27;mod_wsgi.FileWrapper&#x27;&gt;</div></td></tr><tr><td style="font-weight:bold;vertical-align:top;">wsgi_input</td><td style="vertical-align:top;">:</td><td><div>&lt;mod_wsgi.Input object at 0x7f56f6e013b0&gt;</div></td></tr><tr><td style="font-weight:bold;vertical-align:top;">wsgi_multiprocess</td><td style="vertical-align:top;">:</td><td><div>False</div></td></tr><tr><td style="font-weight:bold;vertical-align:top;">wsgi_multithread</td><td style="vertical-align:top;">:</td><td><div>True</div></td></tr><tr><td style="font-weight:bold;vertical-align:top;">wsgi_run_once</td><td style="vertical-align:top;">:</td><td><div>False</div></td></tr><tr><td style="font-weight:bold;vertical-align:top;">wsgi_url_scheme</td><td style="vertical-align:top;">:</td><td><div>https</div></td></tr><tr><td style="font-weight:bold;vertical-align:top;">wsgi_version</td><td style="vertical-align:top;">:</td><td><div><table><tr><td><div>1</div></td></tr><tr><td><div>0</div></td></tr></table></div></td></tr></table></div></td></tr><tr><td style="font-weight:bold;vertical-align:top;">extension</td><td style="vertical-align:top;">:</td><td><div>html</div></td></tr><tr><td style="font-weight:bold;vertical-align:top;">folder</td><td style="vertical-align:top;">:</td><td><div>/home/www-data/web2py/applications/observatoireassemblee/</div></td></tr><tr><td style="font-weight:bold;vertical-align:top;">function</td><td style="vertical-align:top;">:</td><td><div>index</div></td></tr><tr><td style="font-weight:bold;vertical-align:top;">global_settings</td><td style="vertical-align:top;">:</td><td><div><table><tr><td style="font-weight:bold;vertical-align:top;">app_folders</td><td style="vertical-align:top;">:</td><td><div>set([&#x27;/home/www-data/web2py/applications/observatoireassemblee/&#x27;, &#x27;/home/www-data/web2py/applications/obsas_dev/&#x27;, &#x27;/home/www-data/web2py/applications/admin/&#x27;])</div></td></tr><tr><td style="font-weight:bold;vertical-align:top;">applications_parent</td><td style="vertical-align:top;">:</td><td><div>/home/www-data/web2py</div></td></tr><tr><td style="font-weight:bold;vertical-align:top;">db_sessions</td><td style="vertical-align:top;">:</td><td><div>set([])</div></td></tr><tr><td style="font-weight:bold;vertical-align:top;">debugging</td><td style="vertical-align:top;">:</td><td><div>True</div></td></tr><tr><td style="font-weight:bold;vertical-align:top;">gluon_parent</td><td style="vertical-align:top;">:</td><td><div>/home/www-data/web2py</div></td></tr><tr><td style="font-weight:bold;vertical-align:top;">is_jython</td><td style="vertical-align:top;">:</td><td><div>False</div></td></tr><tr><td style="font-weight:bold;vertical-align:top;">is_py2</td><td style="vertical-align:top;">:</td><td><div>True</div></td></tr><tr><td style="font-weight:bold;vertical-align:top;">is_pypy</td><td style="vertical-align:top;">:</td><td><div>False</div></td></tr><tr><td style="font-weight:bold;vertical-align:top;">is_source</td><td style="vertical-align:top;">:</td><td><div>True</div></td></tr><tr><td style="font-weight:bold;vertical-align:top;">local_hosts</td><td style="vertical-align:top;">:</td><td><div><table><tr><td><div>vps433020</div></td></tr><tr><td><div>::ffff:127.0.0.1</div></td></tr><tr><td><div>::1</div></td></tr><tr><td><div>151.80.57.169</div></td></tr><tr><td><div>vps433020.ovh.net</div></td></tr><tr><td><div>127.0.1.1</div></td></tr><tr><td><div>admin.obsas.orvdev.fr</div></td></tr><tr><td><div>127.0.0.1</div></td></tr></table></div></td></tr><tr><td style="font-weight:bold;vertical-align:top;">web2py_version</td><td style="vertical-align:top;">:</td><td><div>2.15.1-stable+timestamp.2017.07.10.21.25.06</div></td></tr></table></div></td></tr><tr><td style="font-weight:bold;vertical-align:top;">is_https</td><td style="vertical-align:top;">:</td><td><div>True</div></td></tr><tr><td style="font-weight:bold;vertical-align:top;">is_local</td><td style="vertical-align:top;">:</td><td><div>False</div></td></tr><tr><td style="font-weight:bold;vertical-align:top;">is_restful</td><td style="vertical-align:top;">:</td><td><div>False</div></td></tr><tr><td style="font-weight:bold;vertical-align:top;">is_scheduler</td><td style="vertical-align:top;">:</td><td><div>False</div></td></tr><tr><td style="font-weight:bold;vertical-align:top;">is_shell</td><td style="vertical-align:top;">:</td><td><div>False</div></td></tr><tr><td style="font-weight:bold;vertical-align:top;">now</td><td style="vertical-align:top;">:</td><td><div>datetime.datetime(2017, 9, 17, 16, 37, 38, 254559)</div></td></tr><tr><td style="font-weight:bold;vertical-align:top;">url</td><td style="vertical-align:top;">:</td><td><div>/observatoireassemblee/depute/index/gabrielserville</div></td></tr><tr><td style="font-weight:bold;vertical-align:top;">utcnow</td><td style="vertical-align:top;">:</td><td><div>datetime.datetime(2017, 9, 17, 14, 37, 38, 254682)</div></td></tr><tr><td style="font-weight:bold;vertical-align:top;">wsgi</td><td style="vertical-align:top;">:</td><td><div>&lt;gluon.main.LazyWSGI object at 0x7f56f7c5e910&gt;</div></td></tr></table></div>'
tRp60
sS'frames'
p61
(lp62
(dp63
S'file'
p64
S'/home/www-data/web2py/gluon/restricted.py'
p65
sS'dump'
p66
(dp67
S'environment'
p68
S"{'A': <class 'gluon.html.A'>, 'ANY_OF': <class 'gluon.validators.ANY_OF'>, 'ASSIGNJS': <function ASSIGNJS>, 'AppCache': <class __restricted__.AppCache>, 'AppConfig': <function AppConfig>, 'Auth': <class 'gluon.tools.Auth'>, 'B': <class 'gluon.html.B'>, 'BEAUTIFY': <class 'gluon.html.BEAUTIFY'>, 'BODY': <class 'gluon.html.BODY'>, 'BR': <class 'gluon.html.BR'>, ...}"
p69
sS'ccode'
p70
S'\'response.write(\\\'<!DOCTYPE html>\\\\n<html lang="fr"...ponse.write(\\\'\\\\n</body>\\\\n</html>\\\\n\\\', escape=False)\''
p71
ssS'lnum'
p72
I219
sS'lines'
p73
(dp74
I214
S'    if environment is None:'
p75
sI215
S'        environment = {}'
p76
sI216
S"    environment['__file__'] = layer"
p77
sI217
S"    environment['__name__'] = '__restricted__'"
p78
sI218
S'    try:'
p79
sI219
S'        exec(ccode, environment)'
p80
sI220
S'    except HTTP:'
p81
sI221
S'        raise'
p82
sI222
S'    except RestrictedError:'
p83
sI223
S'        # do not encapsulate (obfuscate) the original RestrictedError'
p84
ssS'call'
p85
S'(ccode=\'response.write(\\\'<!DOCTYPE html>\\\\n<html lang="fr"...ponse.write(\\\'\\\\n</body>\\\\n</html>\\\\n\\\', escape=False)\', environment={\'A\': <class \'gluon.html.A\'>, \'ANY_OF\': <class \'gluon.validators.ANY_OF\'>, \'ASSIGNJS\': <function ASSIGNJS>, \'AppCache\': <class __restricted__.AppCache>, \'AppConfig\': <function AppConfig>, \'Auth\': <class \'gluon.tools.Auth\'>, \'B\': <class \'gluon.html.B\'>, \'BEAUTIFY\': <class \'gluon.html.BEAUTIFY\'>, \'BODY\': <class \'gluon.html.BODY\'>, \'BR\': <class \'gluon.html.BR\'>, ...}, layer=\'/home/www-data/web2py/applications/observatoireassemblee/views/depute/index.html\')'
p86
sS'func'
p87
S'restricted'
p88
sa(dp89
g64
S'/home/www-data/web2py/<string>'
p90
sg66
(dp91
sg72
I75
sg73
(dp92
sg85
S'()'
p93
sg87
S'<module>'
p94
sasS'pyver'
p95
S'Python 2.7.12: /home/www-data/web2py/applications/obsas_dev/.pyenv/bin/python (prefix: /home/www-data/web2py/applications/obsas_dev/.pyenv)'
p96
sS'session'
p97
g59
(S's\x1a\x00\x00\x00<div><table></table></div>'
tRp98
sS'etype'
p99
S"<type 'exceptions.NameError'>"
p100
sS'date'
p101
S'Sun Sep 17 16:37:38 2017'
p102
sS'response'
p103
g59
(S's6?\x00\x00<div><table><tr><td style="font-weight:bold;vertical-align:top;">body</td><td style="vertical-align:top;">:</td><td><div>&lt;cStringIO.StringO object at 0x7f56f657f458&gt;</div></td></tr><tr><td style="font-weight:bold;vertical-align:top;">cookies</td><td style="vertical-align:top;">:</td><td><div><table><tr><td style="font-weight:bold;vertical-align:top;">session_id_observatoireassemblee</td><td style="vertical-align:top;">:</td><td><div>83.203.170.41-efd78693-df18-4a7b-9d74-cd90eaa684ab<table><tr><td style="font-weight:bold;vertical-align:top;">comment</td><td style="vertical-align:top;">:</td><td><div></div></td></tr><tr><td style="font-weight:bold;vertical-align:top;">domain</td><td style="vertical-align:top;">:</td><td><div></div></td></tr><tr><td style="font-weight:bold;vertical-align:top;">expires</td><td style="vertical-align:top;">:</td><td><div></div></td></tr><tr><td style="font-weight:bold;vertical-align:top;">httponly</td><td style="vertical-align:top;">:</td><td><div></div></td></tr><tr><td style="font-weight:bold;vertical-align:top;">max-age</td><td style="vertical-align:top;">:</td><td><div></div></td></tr><tr><td style="font-weight:bold;vertical-align:top;">path</td><td style="vertical-align:top;">:</td><td><div>/</div></td></tr><tr><td style="font-weight:bold;vertical-align:top;">secure</td><td style="vertical-align:top;">:</td><td><div></div></td></tr><tr><td style="font-weight:bold;vertical-align:top;">version</td><td style="vertical-align:top;">:</td><td><div></div></td></tr></table></div></td></tr></table></div></td></tr><tr><td style="font-weight:bold;vertical-align:top;">delimiters</td><td style="vertical-align:top;">:</td><td><div><table><tr><td><div>{{</div></td></tr><tr><td><div>}}</div></td></tr></table></div></td></tr><tr><td style="font-weight:bold;vertical-align:top;">files</td><td style="vertical-align:top;">:</td><td><div><table></table></div></td></tr><tr><td style="font-weight:bold;vertical-align:top;">flash</td><td style="vertical-align:top;">:</td><td><div></div></td></tr><tr><td style="font-weight:bold;vertical-align:top;">form_label_separator</td><td style="vertical-align:top;">:</td><td><div></div></td></tr><tr><td style="font-weight:bold;vertical-align:top;">formstyle</td><td style="vertical-align:top;">:</td><td><div>bootstrap3_inline</div></td></tr><tr><td style="font-weight:bold;vertical-align:top;">generic_patterns</td><td style="vertical-align:top;">:</td><td><div><table><tr><td><div>*.json</div></td></tr></table></div></td></tr><tr><td style="font-weight:bold;vertical-align:top;">google_analytics_id</td><td style="vertical-align:top;">:</td><td><div>None</div></td></tr><tr><td style="font-weight:bold;vertical-align:top;">headers</td><td style="vertical-align:top;">:</td><td><div><table><tr><td style="font-weight:bold;vertical-align:top;">X-Powered-By</td><td style="vertical-align:top;">:</td><td><div>web2py</div></td></tr></table></div></td></tr><tr><td style="font-weight:bold;vertical-align:top;">logo</td><td style="vertical-align:top;">:</td><td><div><a class="navbar-brand" href="http://www.web2py.com/" id="web2py-logo"><b>web<span>2</span>py</b>&trade;&nbsp;</a></div></td></tr><tr><td style="font-weight:bold;vertical-align:top;">menu</td><td style="vertical-align:top;">:</td><td><div><table><tr><td><div><table><tr><td><div>Accueil</div></td></tr><tr><td><div>False</div></td></tr><tr><td><div>/observatoireassemblee</div></td></tr><tr><td><div><table></table></div></td></tr></table></div></td></tr><tr><td><div><table><tr><td><div>Mes sites</div></td></tr><tr><td><div>False</div></td></tr><tr><td><div>/admin/site</div></td></tr></table></div></td></tr><tr><td><div><table><tr><td><div>Cette Appli</div></td></tr><tr><td><div>False</div></td></tr><tr><td><div>#</div></td></tr><tr><td><div><table><tr><td><div><table><tr><td><div>Design</div></td></tr><tr><td><div>False</div></td></tr><tr><td><div>/admin/design/observatoireassemblee</div></td></tr></table></div></td></tr><tr><td><div><li class="divider"></li></div></td></tr><tr><td><div><table><tr><td><div>Contr\xc3\xb4leur</div></td></tr><tr><td><div>False</div></td></tr><tr><td><div>/admin/edit/observatoireassemblee/controllers/depute.py</div></td></tr></table></div></td></tr><tr><td><div><table><tr><td><div>Pr\xc3\xa9sentation</div></td></tr><tr><td><div>False</div></td></tr><tr><td><div>/admin/edit/observatoireassemblee/views/depute/index.html</div></td></tr></table></div></td></tr><tr><td><div><table><tr><td><div>Mod\xc3\xa8le BD</div></td></tr><tr><td><div>False</div></td></tr><tr><td><div>/admin/edit/observatoireassemblee/models/db.py</div></td></tr></table></div></td></tr><tr><td><div><table><tr><td><div>Menu mod\xc3\xa8le</div></td></tr><tr><td><div>False</div></td></tr><tr><td><div>/admin/edit/observatoireassemblee/models/menu.py</div></td></tr></table></div></td></tr><tr><td><div><table><tr><td><div>Config.ini</div></td></tr><tr><td><div>False</div></td></tr><tr><td><div>/admin/edit/observatoireassemblee/private/appconfig.ini</div></td></tr></table></div></td></tr><tr><td><div><table><tr><td><div>Mise en page</div></td></tr><tr><td><div>False</div></td></tr><tr><td><div>/admin/edit/observatoireassemblee/views/layout.html</div></td></tr></table></div></td></tr><tr><td><div><table><tr><td><div>Feuille de style</div></td></tr><tr><td><div>False</div></td></tr><tr><td><div>/admin/edit/observatoireassemblee/static/css/web2py-bootstrap3.css</div></td></tr></table></div></td></tr><tr><td><div><table><tr><td><div>base de donn\xc3\xa9es</div></td></tr><tr><td><div>False</div></td></tr><tr><td><div>/observatoireassemblee/appadmin</div></td></tr></table></div></td></tr><tr><td><div><table><tr><td><div>Erreurs</div></td></tr><tr><td><div>False</div></td></tr><tr><td><div>/admin/errors/observatoireassemblee</div></td></tr></table></div></td></tr><tr><td><div><table><tr><td><div>\xc3\x80 propos</div></td></tr><tr><td><div>False</div></td></tr><tr><td><div>/admin/about/observatoireassemblee</div></td></tr></table></div></td></tr></table></div></td></tr></table></div></td></tr><tr><td><div><table><tr><td><div>web2py.com</div></td></tr><tr><td><div>False</div></td></tr><tr><td><div>#</div></td></tr><tr><td><div><table><tr><td><div><table><tr><td><div>T\xc3\xa9l\xc3\xa9chargement</div></td></tr><tr><td><div>False</div></td></tr><tr><td><div>http://www.web2py.com/examples/default/download</div></td></tr></table></div></td></tr><tr><td><div><table><tr><td><div>Soutien</div></td></tr><tr><td><div>False</div></td></tr><tr><td><div>http://www.web2py.com/examples/default/support</div></td></tr></table></div></td></tr><tr><td><div><table><tr><td><div>D\xc3\xa9mo</div></td></tr><tr><td><div>False</div></td></tr><tr><td><div>http://web2py.com/demo_admin</div></td></tr></table></div></td></tr><tr><td><div><table><tr><td><div>Exemples Rapides</div></td></tr><tr><td><div>False</div></td></tr><tr><td><div>http://web2py.com/examples/default/examples</div></td></tr></table></div></td></tr><tr><td><div><table><tr><td><div>FAQ</div></td></tr><tr><td><div>False</div></td></tr><tr><td><div>http://web2py.com/AlterEgo</div></td></tr></table></div></td></tr><tr><td><div><table><tr><td><div>Vid\xc3\xa9os</div></td></tr><tr><td><div>False</div></td></tr><tr><td><div>http://www.web2py.com/examples/default/videos/</div></td></tr></table></div></td></tr><tr><td><div><table><tr><td><div>Applications gratuites</div></td></tr><tr><td><div>False</div></td></tr><tr><td><div>http://web2py.com/appliances</div></td></tr></table></div></td></tr><tr><td><div><table><tr><td><div>Plugiciels</div></td></tr><tr><td><div>False</div></td></tr><tr><td><div>http://web2py.com/plugins</div></td></tr></table></div></td></tr><tr><td><div><table><tr><td><div>Recettes</div></td></tr><tr><td><div>False</div></td></tr><tr><td><div>http://web2pyslices.com/</div></td></tr></table></div></td></tr></table></div></td></tr></table></div></td></tr><tr><td><div><table><tr><td><div>Documentation</div></td></tr><tr><td><div>False</div></td></tr><tr><td><div>#</div></td></tr><tr><td><div><table><tr><td><div><table><tr><td><div>Online book</div></td></tr><tr><td><div>False</div></td></tr><tr><td><div>http://www.web2py.com/book</div></td></tr></table></div></td></tr><tr><td><div><li class="divider"></li></div></td></tr><tr><td><div><table><tr><td><div>Pr\xc3\xa9face</div></td></tr><tr><td><div>False</div></td></tr><tr><td><div>http://www.web2py.com/book/default/chapter/00</div></td></tr></table></div></td></tr><tr><td><div><table><tr><td><div>Pr\xc3\xa9sentation</div></td></tr><tr><td><div>False</div></td></tr><tr><td><div>http://www.web2py.com/book/default/chapter/01</div></td></tr></table></div></td></tr><tr><td><div><table><tr><td><div>Python</div></td></tr><tr><td><div>False</div></td></tr><tr><td><div>http://www.web2py.com/book/default/chapter/02</div></td></tr></table></div></td></tr><tr><td><div><table><tr><td><div>Pr\xc3\xa9sentation</div></td></tr><tr><td><div>False</div></td></tr><tr><td><div>http://www.web2py.com/book/default/chapter/03</div></td></tr></table></div></td></tr><tr><td><div><table><tr><td><div>Le noyau</div></td></tr><tr><td><div>False</div></td></tr><tr><td><div>http://www.web2py.com/book/default/chapter/04</div></td></tr></table></div></td></tr><tr><td><div><table><tr><td><div>Les Vues</div></td></tr><tr><td><div>False</div></td></tr><tr><td><div>http://www.web2py.com/book/default/chapter/05</div></td></tr></table></div></td></tr><tr><td><div><table><tr><td><div>base de donn\xc3\xa9es</div></td></tr><tr><td><div>False</div></td></tr><tr><td><div>http://www.web2py.com/book/default/chapter/06</div></td></tr></table></div></td></tr><tr><td><div><table><tr><td><div>Formulaires et Validateurs</div></td></tr><tr><td><div>False</div></td></tr><tr><td><div>http://www.web2py.com/book/default/chapter/07</div></td></tr></table></div></td></tr><tr><td><div><table><tr><td><div>Courriel et texto</div></td></tr><tr><td><div>False</div></td></tr><tr><td><div>http://www.web2py.com/book/default/chapter/08</div></td></tr></table></div></td></tr><tr><td><div><table><tr><td><div>Contr\xc3\xb4le d\'acc\xc3\xa8s</div></td></tr><tr><td><div>False</div></td></tr><tr><td><div>http://www.web2py.com/book/default/chapter/09</div></td></tr></table></div></td></tr><tr><td><div><table><tr><td><div>Services</div></td></tr><tr><td><div>False</div></td></tr><tr><td><div>http://www.web2py.com/book/default/chapter/10</div></td></tr></table></div></td></tr><tr><td><div><table><tr><td><div>Recettes Ajax</div></td></tr><tr><td><div>False</div></td></tr><tr><td><div>http://www.web2py.com/book/default/chapter/11</div></td></tr></table></div></td></tr><tr><td><div><table><tr><td><div>Composants et Plugiciels</div></td></tr><tr><td><div>False</div></td></tr><tr><td><div>http://www.web2py.com/book/default/chapter/12</div></td></tr></table></div></td></tr><tr><td><div><table><tr><td><div>Recettes de d\xc3\xa9ploiement</div></td></tr><tr><td><div>False</div></td></tr><tr><td><div>http://www.web2py.com/book/default/chapter/13</div></td></tr></table></div></td></tr><tr><td><div><table><tr><td><div>Autres recettes</div></td></tr><tr><td><div>False</div></td></tr><tr><td><div>http://www.web2py.com/book/default/chapter/14</div></td></tr></table></div></td></tr><tr><td><div><table><tr><td><div>Aider web2py</div></td></tr><tr><td><div>False</div></td></tr><tr><td><div>http://www.web2py.com/book/default/chapter/15</div></td></tr></table></div></td></tr><tr><td><div><table><tr><td><div>Buy web2py\'s book</div></td></tr><tr><td><div>False</div></td></tr><tr><td><div>http://stores.lulu.com/web2py</div></td></tr></table></div></td></tr></table></div></td></tr></table></div></td></tr><tr><td><div><table><tr><td><div>Communaut\xc3\xa9</div></td></tr><tr><td><div>False</div></td></tr><tr><td><div>None</div></td></tr><tr><td><div><table><tr><td><div><table><tr><td><div>Groupes</div></td></tr><tr><td><div>False</div></td></tr><tr><td><div>http://www.web2py.com/examples/default/usergroups</div></td></tr></table></div></td></tr><tr><td><div><table><tr><td><div>Twitter</div></td></tr><tr><td><div>False</div></td></tr><tr><td><div>http://twitter.com/web2py</div></td></tr></table></div></td></tr><tr><td><div><table><tr><td><div>Clavardage en direct</div></td></tr><tr><td><div>False</div></td></tr><tr><td><div>http://webchat.freenode.net/?channels=web2py</div></td></tr></table></div></td></tr></table></div></td></tr></table></div></td></tr></table></div></td></tr><tr><td style="font-weight:bold;vertical-align:top;">meta</td><td style="vertical-align:top;">:</td><td><div><table><tr><td style="font-weight:bold;vertical-align:top;">author</td><td style="vertical-align:top;">:</td><td><div>Your Name &lt;you@example.com&gt;</div></td></tr><tr><td style="font-weight:bold;vertical-align:top;">description</td><td style="vertical-align:top;">:</td><td><div>a cool new app</div></td></tr><tr><td style="font-weight:bold;vertical-align:top;">generator</td><td style="vertical-align:top;">:</td><td><div>Web2py Web Framework</div></td></tr><tr><td style="font-weight:bold;vertical-align:top;">keywords</td><td style="vertical-align:top;">:</td><td><div><table><tr><td><div>web2py</div></td></tr><tr><td><div>python</div></td></tr><tr><td><div>framework</div></td></tr></table></div></td></tr></table></div></td></tr><tr><td style="font-weight:bold;vertical-align:top;">models_to_run</td><td style="vertical-align:top;">:</td><td><div><table><tr><td><div>^\\w+\\.py$</div></td></tr><tr><td><div>^depute/\\w+\\.py$</div></td></tr><tr><td><div>^depute/index/\\w+\\.py$</div></td></tr></table></div></td></tr><tr><td style="font-weight:bold;vertical-align:top;">postprocessing</td><td style="vertical-align:top;">:</td><td><div><table></table></div></td></tr><tr><td style="font-weight:bold;vertical-align:top;">session_client</td><td style="vertical-align:top;">:</td><td><div>83.203.170.41</div></td></tr><tr><td style="font-weight:bold;vertical-align:top;">session_cookie_compression_level</td><td style="vertical-align:top;">:</td><td><div>None</div></td></tr><tr><td style="font-weight:bold;vertical-align:top;">session_cookie_expires</td><td style="vertical-align:top;">:</td><td><div>None</div></td></tr><tr><td style="font-weight:bold;vertical-align:top;">session_data_name</td><td style="vertical-align:top;">:</td><td><div>session_data_observatoireassemblee</div></td></tr><tr><td style="font-weight:bold;vertical-align:top;">session_file</td><td style="vertical-align:top;">:</td><td><div>None</div></td></tr><tr><td style="font-weight:bold;vertical-align:top;">session_filename</td><td style="vertical-align:top;">:</td><td><div>/home/www-data/web2py/applications/observatoireassemblee/sessions/83.203.170.41-efd78693-df18-4a7b-9d74-cd90eaa684ab</div></td></tr><tr><td style="font-weight:bold;vertical-align:top;">session_hash</td><td style="vertical-align:top;">:</td><td><div>c0762cbf4baf7f9af97c051e7fcb8083</div></td></tr><tr><td style="font-weight:bold;vertical-align:top;">session_id</td><td style="vertical-align:top;">:</td><td><div>83.203.170.41-efd78693-df18-4a7b-9d74-cd90eaa684ab</div></td></tr><tr><td style="font-weight:bold;vertical-align:top;">session_id_name</td><td style="vertical-align:top;">:</td><td><div>session_id_observatoireassemblee</div></td></tr><tr><td style="font-weight:bold;vertical-align:top;">session_masterapp</td><td style="vertical-align:top;">:</td><td><div>observatoireassemblee</div></td></tr><tr><td style="font-weight:bold;vertical-align:top;">session_new</td><td style="vertical-align:top;">:</td><td><div>True</div></td></tr><tr><td style="font-weight:bold;vertical-align:top;">session_storage_type</td><td style="vertical-align:top;">:</td><td><div>file</div></td></tr><tr><td style="font-weight:bold;vertical-align:top;">status</td><td style="vertical-align:top;">:</td><td><div>200</div></td></tr><tr><td style="font-weight:bold;vertical-align:top;">subtitle</td><td style="vertical-align:top;">:</td><td><div></div></td></tr><tr><td style="font-weight:bold;vertical-align:top;">title</td><td style="vertical-align:top;">:</td><td><div>Observatoireassemblee</div></td></tr><tr><td style="font-weight:bold;vertical-align:top;">view</td><td style="vertical-align:top;">:</td><td><div>depute/index.html</div></td></tr></table></div>'
tRp104
sS'locals'
p105
(dp106
S'Service'
p107
S"<class 'gluon.tools.Service'>"
p108
sS'PY2'
p109
S'True'
p110
sS'OBJECT'
p111
S"<class 'gluon.html.OBJECT'>"
p112
sS'SQLDB'
p113
S"<class 'pydal.base.DAL'>"
p114
sS'colors'
p115
S"{'FI': 'rgba(12,195,214,1)', 'GDR': 'rgba(192,0,0,1)', 'LC': 'rgba(112,48,160,1)', 'LR': 'rgba(47,85,151,1)', 'MODEM': 'rgba(237,125,49,1)', 'NG': 'rgba(234,52,208,1)', 'NI': 'rgba(191,191,191,1)', 'REM': 'rgba(255,192,0,1)'}"
p116
sg97
S'<Storage {}>'
p117
sS'LINK'
p118
S"<class 'gluon.html.LINK'>"
p119
sS'BR'
p120
S"<class 'gluon.html.BR'>"
p121
sS'local_import'
p122
S'<function <lambda>>'
p123
sVdepute_suppleant
p124
S"u'Mme Carine Sina\\xef-Bossou'"
p125
sS'__package__'
p126
S'None'
p127
sS'PRE'
p128
S"<class 'gluon.html.PRE'>"
p129
sS'IS_INT_IN_RANGE'
p130
S"<class 'gluon.validators.IS_INT_IN_RANGE'>"
p131
sS'to_bytes'
p132
S'<function to_bytes>'
p133
sS'IS_LOWER'
p134
S"<class 'gluon.validators.IS_LOWER'>"
p135
sS'IS_STRONG'
p136
S"<class 'gluon.validators.IS_STRONG'>"
p137
sS'cache'
p138
S'<gluon.cache.Cache object>'
p139
sS'vide'
p140
S'<function vide>'
p141
sS'IS_IN_DB'
p142
S"<class 'gluon.validators.IS_IN_DB'>"
p143
sS'TAG'
p144
S'<gluon.html.__TAG__ object>'
p145
sVdeputes_nuages
p146
g19
sS'CRYPT'
p147
S"<class 'gluon.validators.CRYPT'>"
p148
sS'SQLField'
p149
S"<class 'pydal.objects.Field'>"
p150
sS'mail'
p151
S'<gluon.tools.Mail object>'
p152
sS'BODY'
p153
S"<class 'gluon.html.BODY'>"
p154
sS'IS_DATE_IN_RANGE'
p155
S"<class 'gluon.validators.IS_DATE_IN_RANGE'>"
p156
sVdepute_circo
p157
S"u'1'"
p158
sS'IFRAME'
p159
S"<class 'gluon.html.IFRAME'>"
p160
sS'URL'
p161
S'<function URL>'
p162
sS'__file__'
p163
S"'/home/www-data/web2py/applications/observatoireassemblee/views/depute/index.html'"
p164
sS'db'
p165
S'<DAL uri="sqlite://storage.sqlite">'
p166
sS'hashlib'
p167
S"<module 'hashlib' from '/usr/lib/python2.7/hashlib.pyc'>"
p168
sS'auth'
p169
S'<gluon.tools.Auth object>'
p170
sS'nuages_excl'
p171
S"('ministre', 'monsieur', u'coll\\xe8gue', 'madame', 'premier', 'cher', 'effet', 'commission', 'parlementaire', u'd\\xe9put\\xe9', 'deux', 'amendement', 'sujet', 'texte', 'an', 'fois', 'lieu', 'trois', 'mois', 'rapporteur', ...)"
p172
sVdepute_departement_id
p173
S"u'973'"
p174
sS'P'
S"<class 'gluon.html.P'>"
p175
sS'TFOOT'
p176
S"<class 'gluon.html.TFOOT'>"
p177
sS'iteritems'
p178
S'<function <lambda>>'
p179
sVdepute_contacts
p180
S"[{u'lien': u'mailto:gabriel.serville@assemblee-nationale.fr', u'type': u'mail'}, {u'lien': u'mailto:gabriel.serville@orange.fr', u'type': u'mail'}, {u'lien': u'http://www.gabrielserville.com', u'type': u'site'}, {u'lien': u'https://fr-fr.facebook.com/GabrielServille/', u'type': u'facebook'}, {u'lien': u'https://twitter.com/@GabrielServille/', u'type': u'twitter'}]"
p181
sS'XHTML'
p182
S"<class 'gluon.html.XHTML'>"
p183
sS'datetime'
p184
S"<module 'datetime' (built-in)>"
p185
sS'ON'
p186
g110
sS'OL'
p187
S"<class 'gluon.html.OL'>"
p188
sVgroupe_qualite
p189
S"u'membre'"
p190
sS'TEXTAREA'
p191
S"<class 'gluon.html.TEXTAREA'>"
p192
sS'MENU'
p193
S"<class 'gluon.html.MENU'>"
p194
sS'AppCache'
p195
S'<class __restricted__.AppCache>'
p196
sS'IS_IMAGE'
p197
S"<class 'gluon.validators.IS_IMAGE'>"
p198
sS'EM'
p199
S"<class 'gluon.html.EM'>"
p200
sS'CODE'
p201
S"<class 'gluon.html.CODE'>"
p202
sS'HTTP'
p203
S"<class 'gluon.http.HTTP'>"
p204
sS'locale'
p205
S"<module 'locale' from '/home/www-data/web2py/app...tions/obsas_dev/.pyenv/lib/python2.7/locale.pyc'>"
p206
sS'IS_DATETIME'
p207
S"<class 'gluon.validators.IS_DATETIME'>"
p208
sS'reduce'
p209
S'<built-in function reduce>'
p210
sS'STYLE'
p211
S"<class 'gluon.html.STYLE'>"
p212
sS'LABEL'
p213
S"<class 'gluon.html.LABEL'>"
p214
sS'OPTGROUP'
p215
S"<class 'gluon.html.OPTGROUP'>"
p216
sS'CLEANUP'
p217
S"<class 'gluon.validators.CLEANUP'>"
p218
sS'departements_ids'
p219
S"{u'Ain': '001', u'Aisne': '002', u'Allier': '003', u'Alpes-Maritimes': '006', u'Alpes-de-Haute-Provence': '004', u'Ardennes': '008', u'Ard\\xe8che': '007', u'Ari\\xe8ge': '009', u'Aube': '010', u'Aude': '011', ...}"
p220
sS'THEAD'
p221
S"<class 'gluon.html.THEAD'>"
p222
sS'plugins'
p223
S'<gluon.tools.PluginManager object>'
p224
sS'SELECT'
p225
S"<class 'gluon.html.SELECT'>"
p226
sVstats
p227
S"{u'compat': {u'FI': 75.0, u'GDR': 75.0, u'LC': 25.0, u'LR': 25.0, u'MODEM': 0.0, u'NG': 75.0, u'NI': 75.0, u'REM': 0.0}, u'compat_sort': [{u'g': u'NI', u'p': 75.0}, {u'g': u'GDR', u'p': 75.0}, {u'g': u'NG', u'p': 75.0}, {u'g': u'FI', u'p': 75.0}, {u'g': u'LC', u'p': 25.0}, {u'g': u'LR', u'p': 25.0}, {u'g': u'REM', u'p': 0.0}, {u'g': u'MODEM', u'p': 0.0}], u'nbitvs': 0, u'nbmots': 0, u'positions': {u'absent': 96.639, u'abstention': 1.681, u'contre': 1.681, u'dissidence': 0.84, u'exprimes': 3.361, u'pour': 0.0}, u'ranks': {u'absent': 11, u'abstention': 182, u'compatFI': None, u'compatGDR': None, u'compatLC': None, u'compatLR': None, u'compatMODEM': None, u'compatNG': None, u'compatNI': None, u'compatREM': None, ...}}"
p228
sS'CENTER'
p229
S"<class 'gluon.html.CENTER'>"
p230
sS'axes'
p231
S'{\'ages\': {\'elements\': \'G\', \'libelle\': "Classes d\'age", \'source\': {\'filtre\': {}, \'key\': \'classeage\', \'label\': \'classeage\', \'nom\': \'acteurs\'}, \'titre\': "Votes par classe d\'age", \'tri_defaut\': (\'alpha\', False), \'votes\': {\'field\': \'classeage\'}}, \'assemblee\': {\'elements\': \'G\', \'hidechart\': False, \'libelle\': \'Assembl\\xc3\\xa9e\', \'source\': {\'filtre\': {\'actif\': True, \'codeType\': \'ASSEMBLEE\'}, \'key\': \'libelleAbrev\', \'label\': \'libelle\', \'nom\': \'organes\'}, \'titre\': "Votes de l\'Assembl\\xc3\\xa9e", \'tri_defaut\': (\'alpha\', False), \'votes\': {\'field\': \'organes\'}}, \'commissions\': {\'elements\': \'G\', \'libelle\': \'Commissions\', \'source\': {\'filtre\': {\'$and\': [{\'$or\': [...]}, {\'actif\': True}]}, \'key\': \'uid\', \'label\': \'libelle\', \'nom\': \'organes\'}, \'titre\': \'Votes par Commissions\', \'tri_defaut\': (\'alpha\', False), \'votes\': {\'field\': \'commissions\'}}, \'csp\': {\'elements\': \'G\', \'libelle\': \'Cat\\xc3\\xa9gorie Socio-professionnelle\', \'source\': {\'filtre\': {}, \'key\': \'csp\', \'label\': \'csp\', \'nom\': \'acteurs\'}, \'titre\': \'Votes par Cat\\xc3\\xa9gorie Socio-professionnelle\', \'tri_defaut\': (\'alpha\', False), \'votes\': {\'field\': \'csp\'}}, \'departements\': {\'elements\': \'G\', \'libelle\': \'D\\xc3\\xa9partements\', \'source\': {\'filtre\': {}, \'key\': \'departement\', \'label\': \'departement\', \'nom\': \'acteurs\'}, \'titre\': \'Votes par D\\xc3\\xa9partements\', \'tri_defaut\': (\'alpha\', False), \'votes\': {\'field\': \'departement\'}}, \'depute\': {\'elements\': \'P\', \'libelle\': \'D\\xc3\\xa9put\\xc3\\xa9s\', \'source\': {\'filtre\': {}, \'key\': \'uid\', \'label\': \'prenomnom\', \'nom\': \'acteurs\'}, \'titre\': \'Votes par d\\xc3\\xa9put\\xc3\\xa9\', \'tri_defaut\': (\'alphanom\', False), \'votes\': {\'field\': \'uid\'}}, \'dossierleg\': {\'elements\': \'G\', \'libelle\': \'Dossier l\\xc3\\xa9gislatif\', \'source\': {\'filtre\': {}, \'key\': \'scrutin_dossier\', \'label\': \'scrutin_dossierLibelle\', \'nom\': \'scrutins\'}, \'titre\': \'Votes par dossier l\\xc3\\xa9gislatif\', \'tri_defaut\': (\'alpha\', False), \'votes\': {\'field\': \'scrutin_dossier\'}}, \'groupes\': {\'elements\': \'G\', \'hidechart\': False, \'libelle\': \'Groupes\', \'source\': {\'filtre\': {\'actif\': True, \'codeType\': \'GP\'}, \'key\': \'uid\', \'label\': \'libelle\', \'nom\': \'organes\'}, \'titre\': \'Votes par Groupe parlementaire\', \'tri_defaut\': (\'alpha\', False), \'votes\': {\'field\': \'groupe\'}}, \'regions\': {\'elements\': \'G\', \'libelle\': \'R\\xc3\\xa9gions\', \'source\': {\'filtre\': {}, \'key\': \'region\', \'label\': \'region\', \'nom\': \'acteurs\'}, \'titre\': \'Votes par R\\xc3\\xa9gions\', \'tri_defaut\': (\'alpha\', False), \'votes\': {\'field\': \'region\'}}, \'scrutin\': {\'elements\': \'G\', \'libelle\': \'Scrutins\', \'source\': {\'filtre\': {}, \'key\': \'scrutin_id\', \'label\': \'scrutin_fulldesc\', \'nom\': \'scrutins\'}, \'titre\': \'Votes par scrutin\', \'tri_defaut\': (\'datescrutin\', True), \'tris\': [\'datescrutin\'], \'votes\': {\'field\': \'scrutin_id\'}}, ...}'
p232
sS'Auth'
p233
S"<class 'gluon.tools.Auth'>"
p234
sS'DEVELOPMENT_MENU'
p235
g110
sS'__builtins__'
p236
S"{'ArithmeticError': <type 'exceptions.ArithmeticError'>, 'AssertionError': <type 'exceptions.AssertionError'>, 'AttributeError': <type 'exceptions.AttributeError'>, 'BaseException': <type 'exceptions.BaseException'>, 'BufferError': <type 'exceptions.BufferError'>, 'BytesWarning': <type 'exceptions.BytesWarning'>, 'DeprecationWarning': <type 'exceptions.DeprecationWarning'>, 'EOFError': <type 'exceptions.EOFError'>, 'Ellipsis': Ellipsis, 'EnvironmentError': <type 'exceptions.EnvironmentError'>, ...}"
p237
sS'HTML'
p238
S"<class 'gluon.html.HTML'>"
p239
sS'filtresitm_order'
p240
S"['participation', 'ficompat', 'emcompat']"
p241
sS'SQLFORM'
p242
S"<class 'gluon.sqlhtml.SQLFORM'>"
p243
sVdepute_id
p244
S"u'm.gabrielserville'"
p245
sS'LOAD'
p246
S'<function LOAD>'
p247
sS'redirect'
p248
S'<function redirect>'
p249
sS'FIELDSET'
p250
S"<class 'gluon.html.FIELDSET'>"
p251
sS'embed64'
p252
S'<function embed64>'
p253
sS'IS_EQUAL_TO'
p254
S"<class 'gluon.validators.IS_EQUAL_TO'>"
p255
sS'sortfcts_order'
p256
S"['participation', 'pctpour', 'pctcontre', 'pctabs', 'alpha', 'ficompat', 'emcompat']"
p257
sVdepute_age
p258
S'57'
p259
sS'filtresitm'
p260
S"{'emcompat': {'fct': <function <lambda>>, 'libelle': 'Taux de EM-compatibilit\\xc3\\xa9', 'max': 100, 'min': 0}, 'ficompat': {'fct': <function <lambda>>, 'libelle': 'Taux de FI-compatibilit\\xc3\\xa9', 'max': 100, 'min': 0}, 'participation': {'fct': <function <lambda>>, 'libelle': 'Taux de participation', 'max': 100, 'min': 0}}"
p261
sS'TinyURL'
p262
S'<class __restricted__.TinyURL>'
p263
sVdepute_compat
p264
S"{u'FI': 3, u'GDR': 3, u'LC': 1, u'LR': 1, u'MODEM': 0, u'NG': 3, u'NI': 3, u'REM': 0}"
p265
sS'IS_LIST_OF'
p266
S"<class 'gluon.validators.IS_LIST_OF'>"
p267
sS'__name__'
p268
S"'__restricted__'"
p269
sS'EMBED'
p270
S"<class 'gluon.html.EMBED'>"
p271
sS'_'
S'<function _>'
p272
sVdepute_circo_id
p273
S"u'973-01'"
p274
sVdepute_uid
p275
S"u'PA610667'"
p276
sS'myconf'
p277
S"{'forms': {'formstyle': 'bootstrap3_inline', 'se...': {'names': 'localhost:*, 127.0.0.1:*, *:*, *'}}"
p278
sS'IS_NOT_IN_DB'
p279
S"<class 'gluon.validators.IS_NOT_IN_DB'>"
p280
sS'H2'
p281
S"<class 'gluon.html.H2'>"
p282
sS'H3'
p283
S"<class 'gluon.html.H3'>"
p284
sS'AppConfig'
p285
S'<function AppConfig>'
p286
sS'H1'
p287
S"<class 'gluon.html.H1'>"
p288
sS'H6'
p289
S"<class 'gluon.html.H6'>"
p290
sVdepute_typeregion
p291
S"u'Dom'"
p292
sS'H4'
p293
S"<class 'gluon.html.H4'>"
p294
sS'H5'
p295
S"<class 'gluon.html.H5'>"
p296
sS'UL'
p297
S"<class 'gluon.html.UL'>"
p298
sS'IS_UPPER'
p299
S"<class 'gluon.validators.IS_UPPER'>"
p300
sVdepute_autresmandats
p301
S'[u\'Maire\\xa0de Matoury, Guyane\', u"Membre\\xa0de la communaut\\xe9 d\'agglom\\xe9ration du Centre Littoral"]'
p302
sS'xmlescape'
p303
S'<function xmlescape>'
p304
sS'IS_TIME'
p305
S"<class 'gluon.validators.IS_TIME'>"
p306
sS'svggauge'
p307
S'<function svggauge>'
p308
sS'OPTION'
p309
S"<class 'gluon.html.OPTION'>"
p310
sS'TITLE'
p311
S"<class 'gluon.html.TITLE'>"
p312
sS'short_url'
p313
S"<module 'short_url' from '/home/www-data/web2py/.../python2.7/site-packages/short_url/__init__.pyc'>"
p314
sS'IS_EMPTY_OR'
p315
S"<class 'gluon.validators.IS_EMPTY_OR'>"
p316
sS'MARKMIN'
p317
S"<class 'gluon.html.MARKMIN'>"
p318
sVdepute_ddn
p319
S"u'27/09/1959'"
p320
sS'INPUT'
p321
S"<class 'gluon.html.INPUT'>"
p322
sS'STRONG'
p323
S"<class 'gluon.html.STRONG'>"
p324
sS'COL'
p325
S"<class 'gluon.html.COL'>"
p326
sVdepute_votes
p327
S"{u'absent': 115, u'abstention': 2, u'compat': {u'FI': 38, u'GDR': 104, u'LC': 111, u'LR': 114, u'MODEM': 97, u'NG': 113, u'NI': 115, u'REM': 95, u'assemblee': 111}, u'contre': 2, u'exprimes': 4, u'pour': 0, u'total': 119, u'votants': 0}"
p328
sS'service'
p329
S'<gluon.tools.Service object>'
p330
sS'SCRIPT'
p331
S"<class 'gluon.html.SCRIPT'>"
p332
sVdepute_deputywatch
p333
S"{u'flag': True, u'nom': u'M. Gabriel Serville', u'url': u'https://www.deputywatch.org/afficherDepute/?nom=Serville&prenom=Gabriel&consulter=1'}"
p334
sS'HR'
p335
S"<class 'gluon.html.HR'>"
p336
sVdepute_mandat_debut
p337
S"u'21/06/2017'"
p338
sVdepute_actif
p339
g110
sS'mdb'
p340
S"Database(MongoClient(host=['localhost:27017'], d...s=dict, tz_aware=False, connect=True), u'obsass')"
p341
sVgroupe_abrev
p342
S"u'GDR'"
p343
sVdepute_hatvp
p344
S"[{u'civilite': u'M.', u'classement': u'servilleaaagabriel8200', u'date_depot': u'', u'date_publication': u'', u'departement': u'973', u'docurl': u'http://www.hatvp.fr/livraison/dossiers/dispense', u'id_origine': u'', u'nom': u'SERVILLE', u'nom_fichier': u'dispense', u'open_data': u'', ...}, {u'civilite': u'M.', u'classement': u'servilleaaagabriel8200', u'date_depot': u'', u'date_publication': u'', u'departement': u'973', u'docurl': u'http://www.hatvp.fr/livraison/dossiers/', u'id_origine': u'610667', u'nom': u'SERVILLE', u'nom_fichier': u'', u'open_data': u'', ...}]"
p345
sVdepute_classeage
p346
S"u'50-60 ans'"
p347
sS'TABLE'
p348
S"<class 'gluon.html.TABLE'>"
p349
sVdepute_naissance
p350
S"u'N\\xe9\\n\\t\\t\\t le 27 septembre 1959 \\xe0 Cayenne\\xa0(Guyane)'"
p351
sS'IS_IPV4'
p352
S"<class 'gluon.validators.IS_IPV4'>"
p353
sS'IS_LENGTH'
p354
S"<class 'gluon.validators.IS_LENGTH'>"
p355
sS'IS_IPV6'
p356
S"<class 'gluon.validators.IS_IPV6'>"
p357
sS'XML'
p358
S"<class 'gluon.html.XML'>"
p359
sVdepute_collaborateurs
p360
S"[u'M. Thibault Lechat-Vega', u'M. Christian Porthos']"
p361
sS'B'
S"<class 'gluon.html.B'>"
p362
sS'IMG'
p363
S"<class 'gluon.html.IMG'>"
p364
sS'SQLTABLE'
p365
S"<class 'gluon.sqlhtml.SQLTABLE'>"
p366
sVdepute_region
p367
S"u'Guyane'"
p368
sS'IS_MATCH'
p369
S"<class 'gluon.validators.IS_MATCH'>"
p370
sVdepute_bureau
p371
S'u"Secr\\xe9taire de l\'Assembl\\xe9e nationale depuis le :  28/06/2017"'
p372
sS'IS_ALPHANUMERIC'
p373
S"<class 'gluon.validators.IS_ALPHANUMERIC'>"
p374
sVdepute_mandats
p375
S'{u\'commissions\': [{u\'id\': u\'PO419865\', u\'lien\': u\'http://www2.assemblee-nationale.fr/instances/fiche/OMC_PO419865\', u\'nom\': u"Commission du d\\xe9veloppement durable et de l\'am\\xe9nagement du territoire", u\'qualite\': u\'Membre\'}], u\'delegations_bureau\': [{u\'id\': u\'PO732735\', u\'lien\': u\'http://www2.assemblee-nationale.fr/instances/fiche/OMC_PO732735\', u\'nom\': u\'D\\xe9l\\xe9gation charg\\xe9e des activit\\xe9s internationales\', u\'qualite\': u\'Membre\'}, {u\'id\': u\'PO732748\', u\'lien\': u\'http://www2.assemblee-nationale.fr/instances/fiche/OMC_PO732748\', u\'nom\': u"D\\xe9l\\xe9gation charg\\xe9e de l\'application du statut du d\\xe9put\\xe9", u\'qualite\': u\'Membre\'}], u\'delegations_office\': [{u\'id\': u\'PO675659\', u\'lien\': u\'http://www2.assemblee-nationale.fr/instances/fiche/OMC_PO675659\', u\'nom\': u\'D\\xe9l\\xe9gation aux outre-mer\', u\'qualite\': u\'Membre\'}]}'
p376
sVdeputes_mots
p377
S'None'
p378
sVdepute_sexe
p379
S"u'Femme'"
p380
sVdepute_mots
p381
g19
sS'CAT'
p382
S"<class 'gluon.html.CAT'>"
p383
sS'getVoteData_fct'
p384
S'<function getVoteData_fct>'
p385
sS'axes_order'
p386
S"['assemblee', 'groupes', 'commissions', 'typeregion', 'regions', 'departements', 'ages', 'csp', 'sexe', 'depute', 'scrutin', 'typescrutin', 'dossierleg']"
p387
sVdepute_nom_tri
p388
S"u'SERVILLE'"
p389
sS'SPAN'
p390
S"<class 'gluon.html.SPAN'>"
p391
sS'IS_JSON'
p392
S"<class 'gluon.validators.IS_JSON'>"
p393
sS'IS_IPADDRESS'
p394
S"<class 'gluon.validators.IS_IPADDRESS'>"
p395
sS'IS_SLUG'
p396
S"<class 'gluon.validators.IS_SLUG'>"
p397
sVdepute_departement
p398
S"u'Guyane'"
p399
sVdepute_nuages
p400
g19
sVdepute_shortid
p401
S"u'gabrielserville'"
p402
sS'META'
p403
S"<class 'gluon.html.META'>"
p404
sS'client'
p405
S"MongoClient(host=['localhost:27017'], document_class=dict, tz_aware=False, connect=True)"
p406
sVdepute_commissions
p407
S'[{u\'id\': u\'PO419865\', u\'lien\': u\'http://www2.assemblee-nationale.fr/instances/fiche/OMC_PO419865\', u\'nom\': u"Commission du d\\xe9veloppement durable et de l\'am\\xe9nagement du territoire", u\'qualite\': u\'Membre\'}]'
p408
sS'pickle'
p409
S"<module 'pickle' from '/usr/lib/python2.7/pickle.pyc'>"
p410
sS'BUTTON'
p411
S"<class 'gluon.html.BUTTON'>"
p412
sVdepute_mandat_fin_cause
p413
S'None'
p414
sVdepute_nom
p415
S"u'M. Gabriel Serville'"
p416
sS'IS_DATE'
p417
S"<class 'gluon.validators.IS_DATE'>"
p418
sS'IS_EMAIL'
p419
S"<class 'gluon.validators.IS_EMAIL'>"
p420
sS'mandats'
p421
S"[{u'id': u'PO675659', u'lien': u'http://www2.assemblee-nationale.fr/instances/fiche/OMC_PO675659', u'nom': u'D\\xe9l\\xe9gation aux outre-mer', u'qualite': u'Membre'}]"
p422
sS'IS_NOT_EMPTY'
p423
S"<class 'gluon.validators.IS_NOT_EMPTY'>"
p424
sS'xrange'
p425
S"<type 'xrange'>"
p426
sVgroupe_libelle
p427
S"u'Gauche d\\xe9mocrate et r\\xe9publicaine'"
p428
sS'BEAUTIFY'
p429
S"<class 'gluon.html.BEAUTIFY'>"
p430
sVdepute_dateelec
p431
S"u'18/06/2017'"
p432
sS'TBODY'
p433
S"<class 'gluon.html.TBODY'>"
p434
sS'appcache'
p435
S'<__restricted__.AppCache instance>'
p436
sS'Field'
p437
S"<class 'pydal.objects.Field'>"
p438
sS'tinyurl'
p439
S'<__restricted__.TinyURL instance>'
p440
sVmots
p441
S'None'
p442
sS'IS_LIST_OF_EMAILS'
p443
S"<class 'gluon.validators.IS_LIST_OF_EMAILS'>"
p444
sg58
S"<Storage {'_vars': None, 'function': 'index', 'c...ata/web2py/applications/observatoireassemblee/'}>"
p445
sS'DIV'
p446
S"<class 'gluon.html.DIV'>"
p447
sS'LEGEND'
p448
S"<class 'gluon.html.LEGEND'>"
p449
sS'sortfcts'
p450
S"{'alpha': {'fct': <function <lambda>>, 'libelle': 'Ordre Alphab\\xc3\\xa9tique'}, 'alphanom': {'fct': <function <lambda>>, 'libelle': 'Ordre Alphab\\xc3\\xa9tique (nom prenom)'}, 'datescrutin': {'fct': <function <lambda>>, 'libelle': 'par N\\xc2\\xb0 de scrutin'}, 'emcompat': {'fct': <function <lambda>>, 'libelle': 'EM-Compatibilit\\xc3\\xa9'}, 'ficompat': {'fct': <function <lambda>>, 'libelle': 'FI-Compatibilit\\xc3\\xa9'}, 'participation': {'fct': <function <lambda>>, 'libelle': 'Participation'}, 'pctabs': {'fct': <function <lambda>>, 'libelle': '% Votes abstention'}, 'pctcontre': {'fct': <function <lambda>>, 'libelle': '% Votes contre'}, 'pctpour': {'fct': <function <lambda>>, 'libelle': '% Votes pour'}}"
p451
sS'svgtop'
p452
S'<function svgtop>'
p453
sS'to_native'
p454
S'<function to_native>'
p455
sS'COLGROUP'
p456
S"<class 'gluon.html.COLGROUP'>"
p457
sS'DAL'
p458
S"<class 'pydal.base.DAL'>"
p459
sS'ASSIGNJS'
p460
S'<function ASSIGNJS>'
p461
sS'TR'
p462
S"<class 'gluon.html.TR'>"
p463
sS'LI'
p464
S"<class 'gluon.html.LI'>"
p465
sVgroupe_uid
p466
S"u'PO730940'"
p467
sS'TH'
p468
S"<class 'gluon.html.TH'>"
p469
sS'TD'
p470
S"<class 'gluon.html.TD'>"
p471
sS'PluginManager'
p472
S"<class 'gluon.tools.PluginManager'>"
p473
sS'IS_URL'
p474
S"<class 'gluon.validators.IS_URL'>"
p475
sVdepute_place
p476
S"u'597'"
p477
sS'A'
S"<class 'gluon.html.A'>"
p478
sS'HEAD'
p479
S"<class 'gluon.html.HEAD'>"
p480
sS'IS_DATETIME_IN_RANGE'
p481
S"<class 'gluon.validators.IS_DATETIME_IN_RANGE'>"
p482
sS'FORM'
p483
S"<class 'gluon.html.FORM'>"
p484
sS'I'
S"<class 'gluon.html.I'>"
p485
sS'm'
S"{u'id': u'PO675659', u'lien': u'http://www2.assemblee-nationale.fr/instances/fiche/OMC_PO675659', u'nom': u'D\\xe9l\\xe9gation aux outre-mer', u'qualite': u'Membre'}"
p486
sS'pymongo'
p487
S"<module 'pymongo' from '/home/www-data/web2py/ap...ib/python2.7/site-packages/pymongo/__init__.pyc'>"
p488
sVdepute_mandat_fin
p489
S'None'
p490
sVdepute_positions
p491
S"{u'absent': 115, u'abstention': 2, u'contre': 2, u'dissidence': 1, u'exprimes': 4, u'total': 119}"
p492
sS'typ'
p493
S"u'delegations_office'"
p494
sg103
S"<Storage {'body': <cStringIO.StringO object at 0...at 0x7f56f68321b8>, 'view': 'depute/index.html'}>"
p495
sVdepute_profession
p496
S"u'Professeur de Math\\xe9matiques - Proviseur'"
p497
sS'ANY_OF'
p498
S"<class 'gluon.validators.ANY_OF'>"
p499
sS'IS_NULL_OR'
p500
S"<class 'gluon.validators.IS_EMPTY_OR'>"
p501
sS'IS_FLOAT_IN_RANGE'
p502
S"<class 'gluon.validators.IS_FLOAT_IN_RANGE'>"
p503
sS'IS_EXPR'
p504
S"<class 'gluon.validators.IS_EXPR'>"
p505
sS'T'
S'<gluon.languages.translator object>'
p506
sS'IS_IN_SET'
p507
S"<class 'gluon.validators.IS_IN_SET'>"
p508
sS'contact'
p509
S"{u'lien': u'https://twitter.com/@GabrielServille/', u'type': u'twitter'}"
p510
sS'IS_UPLOAD_FILENAME'
p511
S"<class 'gluon.validators.IS_UPLOAD_FILENAME'>"
p512
sV_id
p513
S"ObjectId('59af32496d8669a20452a33a')"
p514
sVdepute_csp
p515
S"u'Cadres et professions intellectuelles sup\\xe9rieures'"
p516
sS'TT'
p517
S"<class 'gluon.html.TT'>"
p518
sS'IS_DECIMAL_IN_RANGE'
p519
S"<class 'gluon.validators.IS_DECIMAL_IN_RANGE'>"
p520
sssS'traceback'
p521
S'Traceback (most recent call last):\n  File "/home/www-data/web2py/gluon/restricted.py", line 219, in restricted\n    exec(ccode, environment)\n  File "<string>", line 75, in <module>\nNameError: name \'depute_autresandats\' is not defined\n'
p522
s.